   1              	 .syntax unified
   2              	 .cpu cortex-m4
   3              	 .eabi_attribute 27,3
   4              	 .fpu fpv4-sp-d16
   5              	 .eabi_attribute 20,1
   6              	 .eabi_attribute 21,1
   7              	 .eabi_attribute 23,3
   8              	 .eabi_attribute 24,1
   9              	 .eabi_attribute 25,1
  10              	 .eabi_attribute 26,1
  11              	 .eabi_attribute 30,2
  12              	 .eabi_attribute 34,1
  13              	 .eabi_attribute 18,4
  14              	 .thumb
  15              	 .file "e_eeprom_xmc4.c"
  16              	 .text
  17              	.Ltext0:
  18              	 .cfi_sections .debug_frame
  19              	 .section .text.E_EEPROM_XMC4_GetAppVersion,"ax",%progbits
  20              	 .align 2
  21              	 .global E_EEPROM_XMC4_GetAppVersion
  22              	 .thumb
  23              	 .thumb_func
  25              	E_EEPROM_XMC4_GetAppVersion:
  26              	.LFB158:
  27              	 .file 1 "E:/NOVA/Assets/IFX_P2G-HW-SW_V1.0.4/Firmware_Software/DAVE project/P2G_FW/Dave/Generated/E_EEPROM_XMC4/e_eeprom_xmc4.c"
   1:E:/NOVA/Assets/IFX_P2G-HW-SW_V1.0.4/Firmware_Software/DAVE project/P2G_FW/Dave/Generated/E_EEPROM_XMC4\e_eeprom_xmc4.c **** /**
   2:E:/NOVA/Assets/IFX_P2G-HW-SW_V1.0.4/Firmware_Software/DAVE project/P2G_FW/Dave/Generated/E_EEPROM_XMC4\e_eeprom_xmc4.c ****  * @file e_eeprom_xmc4.c
   3:E:/NOVA/Assets/IFX_P2G-HW-SW_V1.0.4/Firmware_Software/DAVE project/P2G_FW/Dave/Generated/E_EEPROM_XMC4\e_eeprom_xmc4.c ****  * @date 2017-02-16
   4:E:/NOVA/Assets/IFX_P2G-HW-SW_V1.0.4/Firmware_Software/DAVE project/P2G_FW/Dave/Generated/E_EEPROM_XMC4\e_eeprom_xmc4.c ****  *
   5:E:/NOVA/Assets/IFX_P2G-HW-SW_V1.0.4/Firmware_Software/DAVE project/P2G_FW/Dave/Generated/E_EEPROM_XMC4\e_eeprom_xmc4.c ****  * NOTE:
   6:E:/NOVA/Assets/IFX_P2G-HW-SW_V1.0.4/Firmware_Software/DAVE project/P2G_FW/Dave/Generated/E_EEPROM_XMC4\e_eeprom_xmc4.c ****  * This file is generated by DAVE. Any manual modification done to this file will be lost when the 
   7:E:/NOVA/Assets/IFX_P2G-HW-SW_V1.0.4/Firmware_Software/DAVE project/P2G_FW/Dave/Generated/E_EEPROM_XMC4\e_eeprom_xmc4.c ****  *
   8:E:/NOVA/Assets/IFX_P2G-HW-SW_V1.0.4/Firmware_Software/DAVE project/P2G_FW/Dave/Generated/E_EEPROM_XMC4\e_eeprom_xmc4.c ****  * @cond
   9:E:/NOVA/Assets/IFX_P2G-HW-SW_V1.0.4/Firmware_Software/DAVE project/P2G_FW/Dave/Generated/E_EEPROM_XMC4\e_eeprom_xmc4.c ****  **************************************************************************************************
  10:E:/NOVA/Assets/IFX_P2G-HW-SW_V1.0.4/Firmware_Software/DAVE project/P2G_FW/Dave/Generated/E_EEPROM_XMC4\e_eeprom_xmc4.c ****  * E_EEPROM_XMC4 v4.0.14 - The E_EEPROM_XMC4 APP is used to Emulates a portion of program flash as 
  11:E:/NOVA/Assets/IFX_P2G-HW-SW_V1.0.4/Firmware_Software/DAVE project/P2G_FW/Dave/Generated/E_EEPROM_XMC4\e_eeprom_xmc4.c ****  *                        data storage.
  12:E:/NOVA/Assets/IFX_P2G-HW-SW_V1.0.4/Firmware_Software/DAVE project/P2G_FW/Dave/Generated/E_EEPROM_XMC4\e_eeprom_xmc4.c ****  *
  13:E:/NOVA/Assets/IFX_P2G-HW-SW_V1.0.4/Firmware_Software/DAVE project/P2G_FW/Dave/Generated/E_EEPROM_XMC4\e_eeprom_xmc4.c ****  * Copyright (c) 2016, Infineon Technologies AG
  14:E:/NOVA/Assets/IFX_P2G-HW-SW_V1.0.4/Firmware_Software/DAVE project/P2G_FW/Dave/Generated/E_EEPROM_XMC4\e_eeprom_xmc4.c ****  * All rights reserved.
  15:E:/NOVA/Assets/IFX_P2G-HW-SW_V1.0.4/Firmware_Software/DAVE project/P2G_FW/Dave/Generated/E_EEPROM_XMC4\e_eeprom_xmc4.c ****  *
  16:E:/NOVA/Assets/IFX_P2G-HW-SW_V1.0.4/Firmware_Software/DAVE project/P2G_FW/Dave/Generated/E_EEPROM_XMC4\e_eeprom_xmc4.c ****  * Redistribution and use in source and binary forms, with or without modification,are permitted pr
  17:E:/NOVA/Assets/IFX_P2G-HW-SW_V1.0.4/Firmware_Software/DAVE project/P2G_FW/Dave/Generated/E_EEPROM_XMC4\e_eeprom_xmc4.c ****  * following conditions are met:
  18:E:/NOVA/Assets/IFX_P2G-HW-SW_V1.0.4/Firmware_Software/DAVE project/P2G_FW/Dave/Generated/E_EEPROM_XMC4\e_eeprom_xmc4.c ****  *
  19:E:/NOVA/Assets/IFX_P2G-HW-SW_V1.0.4/Firmware_Software/DAVE project/P2G_FW/Dave/Generated/E_EEPROM_XMC4\e_eeprom_xmc4.c ****  *   Redistributions of source code must retain the above copyright notice, this list of conditions
  20:E:/NOVA/Assets/IFX_P2G-HW-SW_V1.0.4/Firmware_Software/DAVE project/P2G_FW/Dave/Generated/E_EEPROM_XMC4\e_eeprom_xmc4.c ****  *   disclaimer.
  21:E:/NOVA/Assets/IFX_P2G-HW-SW_V1.0.4/Firmware_Software/DAVE project/P2G_FW/Dave/Generated/E_EEPROM_XMC4\e_eeprom_xmc4.c ****  *
  22:E:/NOVA/Assets/IFX_P2G-HW-SW_V1.0.4/Firmware_Software/DAVE project/P2G_FW/Dave/Generated/E_EEPROM_XMC4\e_eeprom_xmc4.c ****  *   Redistributions in binary form must reproduce the above copyright notice, this list of conditi
  23:E:/NOVA/Assets/IFX_P2G-HW-SW_V1.0.4/Firmware_Software/DAVE project/P2G_FW/Dave/Generated/E_EEPROM_XMC4\e_eeprom_xmc4.c ****  *   following disclaimer in the documentation and/or other materials provided with the distributio
  24:E:/NOVA/Assets/IFX_P2G-HW-SW_V1.0.4/Firmware_Software/DAVE project/P2G_FW/Dave/Generated/E_EEPROM_XMC4\e_eeprom_xmc4.c ****  *
  25:E:/NOVA/Assets/IFX_P2G-HW-SW_V1.0.4/Firmware_Software/DAVE project/P2G_FW/Dave/Generated/E_EEPROM_XMC4\e_eeprom_xmc4.c ****  *   Neither the name of the copyright holders nor the names of its contributors may be used to end
  26:E:/NOVA/Assets/IFX_P2G-HW-SW_V1.0.4/Firmware_Software/DAVE project/P2G_FW/Dave/Generated/E_EEPROM_XMC4\e_eeprom_xmc4.c ****  *   products derived from this software without specific prior written permission.
  27:E:/NOVA/Assets/IFX_P2G-HW-SW_V1.0.4/Firmware_Software/DAVE project/P2G_FW/Dave/Generated/E_EEPROM_XMC4\e_eeprom_xmc4.c ****  *
  28:E:/NOVA/Assets/IFX_P2G-HW-SW_V1.0.4/Firmware_Software/DAVE project/P2G_FW/Dave/Generated/E_EEPROM_XMC4\e_eeprom_xmc4.c ****  * THIS SOFTWARE IS PROVIDED BY THE COPYRIGHT HOLDERS AND CONTRIBUTORS "AS IS" AND ANY EXPRESS OR I
  29:E:/NOVA/Assets/IFX_P2G-HW-SW_V1.0.4/Firmware_Software/DAVE project/P2G_FW/Dave/Generated/E_EEPROM_XMC4\e_eeprom_xmc4.c ****  * INCLUDING, BUT NOT LIMITED TO, THE IMPLIED WARRANTIES OF MERCHANTABILITY AND FITNESS FOR A PARTI
  30:E:/NOVA/Assets/IFX_P2G-HW-SW_V1.0.4/Firmware_Software/DAVE project/P2G_FW/Dave/Generated/E_EEPROM_XMC4\e_eeprom_xmc4.c ****  * DISCLAIMED. IN NO EVENT SHALL THE COPYRIGHT HOLDER OR CONTRIBUTORS BE LIABLE  FOR ANY DIRECT, IN
  31:E:/NOVA/Assets/IFX_P2G-HW-SW_V1.0.4/Firmware_Software/DAVE project/P2G_FW/Dave/Generated/E_EEPROM_XMC4\e_eeprom_xmc4.c ****  * SPECIAL, EXEMPLARY, OR CONSEQUENTIAL DAMAGES (INCLUDING, BUT NOT LIMITED TO, PROCUREMENT OF SUBS
  32:E:/NOVA/Assets/IFX_P2G-HW-SW_V1.0.4/Firmware_Software/DAVE project/P2G_FW/Dave/Generated/E_EEPROM_XMC4\e_eeprom_xmc4.c ****  * SERVICES; LOSS OF USE, DATA, OR PROFITS; OR BUSINESS INTERRUPTION) HOWEVER CAUSED AND ON ANY THE
  33:E:/NOVA/Assets/IFX_P2G-HW-SW_V1.0.4/Firmware_Software/DAVE project/P2G_FW/Dave/Generated/E_EEPROM_XMC4\e_eeprom_xmc4.c ****  * WHETHER IN CONTRACT, STRICT LIABILITY,OR TORT (INCLUDING NEGLIGENCE OR OTHERWISE) ARISING IN ANY
  34:E:/NOVA/Assets/IFX_P2G-HW-SW_V1.0.4/Firmware_Software/DAVE project/P2G_FW/Dave/Generated/E_EEPROM_XMC4\e_eeprom_xmc4.c ****  * USE OF THIS SOFTWARE, EVEN IF ADVISED OF THE POSSIBILITY OF SUCH DAMAGE.
  35:E:/NOVA/Assets/IFX_P2G-HW-SW_V1.0.4/Firmware_Software/DAVE project/P2G_FW/Dave/Generated/E_EEPROM_XMC4\e_eeprom_xmc4.c ****  *
  36:E:/NOVA/Assets/IFX_P2G-HW-SW_V1.0.4/Firmware_Software/DAVE project/P2G_FW/Dave/Generated/E_EEPROM_XMC4\e_eeprom_xmc4.c ****  * To improve the quality of the software, users are encouraged to share modifications, enhancement
  37:E:/NOVA/Assets/IFX_P2G-HW-SW_V1.0.4/Firmware_Software/DAVE project/P2G_FW/Dave/Generated/E_EEPROM_XMC4\e_eeprom_xmc4.c ****  * with Infineon Technologies AG (dave@infineon.com).
  38:E:/NOVA/Assets/IFX_P2G-HW-SW_V1.0.4/Firmware_Software/DAVE project/P2G_FW/Dave/Generated/E_EEPROM_XMC4\e_eeprom_xmc4.c ****  **************************************************************************************************
  39:E:/NOVA/Assets/IFX_P2G-HW-SW_V1.0.4/Firmware_Software/DAVE project/P2G_FW/Dave/Generated/E_EEPROM_XMC4\e_eeprom_xmc4.c ****  *
  40:E:/NOVA/Assets/IFX_P2G-HW-SW_V1.0.4/Firmware_Software/DAVE project/P2G_FW/Dave/Generated/E_EEPROM_XMC4\e_eeprom_xmc4.c ****  * Change History
  41:E:/NOVA/Assets/IFX_P2G-HW-SW_V1.0.4/Firmware_Software/DAVE project/P2G_FW/Dave/Generated/E_EEPROM_XMC4\e_eeprom_xmc4.c ****  * --------------
  42:E:/NOVA/Assets/IFX_P2G-HW-SW_V1.0.4/Firmware_Software/DAVE project/P2G_FW/Dave/Generated/E_EEPROM_XMC4\e_eeprom_xmc4.c ****  *
  43:E:/NOVA/Assets/IFX_P2G-HW-SW_V1.0.4/Firmware_Software/DAVE project/P2G_FW/Dave/Generated/E_EEPROM_XMC4\e_eeprom_xmc4.c ****  * 2016-01-20
  44:E:/NOVA/Assets/IFX_P2G-HW-SW_V1.0.4/Firmware_Software/DAVE project/P2G_FW/Dave/Generated/E_EEPROM_XMC4\e_eeprom_xmc4.c ****  *     - Initial version
  45:E:/NOVA/Assets/IFX_P2G-HW-SW_V1.0.4/Firmware_Software/DAVE project/P2G_FW/Dave/Generated/E_EEPROM_XMC4\e_eeprom_xmc4.c ****  *
  46:E:/NOVA/Assets/IFX_P2G-HW-SW_V1.0.4/Firmware_Software/DAVE project/P2G_FW/Dave/Generated/E_EEPROM_XMC4\e_eeprom_xmc4.c ****  * 2016-07-08:
  47:E:/NOVA/Assets/IFX_P2G-HW-SW_V1.0.4/Firmware_Software/DAVE project/P2G_FW/Dave/Generated/E_EEPROM_XMC4\e_eeprom_xmc4.c ****  *     - Fixed incorrect case for an included header.<br>
  48:E:/NOVA/Assets/IFX_P2G-HW-SW_V1.0.4/Firmware_Software/DAVE project/P2G_FW/Dave/Generated/E_EEPROM_XMC4\e_eeprom_xmc4.c ****  *
  49:E:/NOVA/Assets/IFX_P2G-HW-SW_V1.0.4/Firmware_Software/DAVE project/P2G_FW/Dave/Generated/E_EEPROM_XMC4\e_eeprom_xmc4.c ****  * 2017-02-16:
  50:E:/NOVA/Assets/IFX_P2G-HW-SW_V1.0.4/Firmware_Software/DAVE project/P2G_FW/Dave/Generated/E_EEPROM_XMC4\e_eeprom_xmc4.c ****  *     - E_EEPROM_XMC4_WriteByte() and E_EEPROM_XMC4_WriteArray() returns a boolean indicating if c
  51:E:/NOVA/Assets/IFX_P2G-HW-SW_V1.0.4/Firmware_Software/DAVE project/P2G_FW/Dave/Generated/E_EEPROM_XMC4\e_eeprom_xmc4.c ****  *
  52:E:/NOVA/Assets/IFX_P2G-HW-SW_V1.0.4/Firmware_Software/DAVE project/P2G_FW/Dave/Generated/E_EEPROM_XMC4\e_eeprom_xmc4.c ****  */
  53:E:/NOVA/Assets/IFX_P2G-HW-SW_V1.0.4/Firmware_Software/DAVE project/P2G_FW/Dave/Generated/E_EEPROM_XMC4\e_eeprom_xmc4.c **** 
  54:E:/NOVA/Assets/IFX_P2G-HW-SW_V1.0.4/Firmware_Software/DAVE project/P2G_FW/Dave/Generated/E_EEPROM_XMC4\e_eeprom_xmc4.c **** /**************************************************************************************************
  55:E:/NOVA/Assets/IFX_P2G-HW-SW_V1.0.4/Firmware_Software/DAVE project/P2G_FW/Dave/Generated/E_EEPROM_XMC4\e_eeprom_xmc4.c ****  * HEADER FILES
  56:E:/NOVA/Assets/IFX_P2G-HW-SW_V1.0.4/Firmware_Software/DAVE project/P2G_FW/Dave/Generated/E_EEPROM_XMC4\e_eeprom_xmc4.c ****  **************************************************************************************************
  57:E:/NOVA/Assets/IFX_P2G-HW-SW_V1.0.4/Firmware_Software/DAVE project/P2G_FW/Dave/Generated/E_EEPROM_XMC4\e_eeprom_xmc4.c **** #include "e_eeprom_xmc4.h"
  58:E:/NOVA/Assets/IFX_P2G-HW-SW_V1.0.4/Firmware_Software/DAVE project/P2G_FW/Dave/Generated/E_EEPROM_XMC4\e_eeprom_xmc4.c **** 
  59:E:/NOVA/Assets/IFX_P2G-HW-SW_V1.0.4/Firmware_Software/DAVE project/P2G_FW/Dave/Generated/E_EEPROM_XMC4\e_eeprom_xmc4.c **** /**************************************************************************************************
  60:E:/NOVA/Assets/IFX_P2G-HW-SW_V1.0.4/Firmware_Software/DAVE project/P2G_FW/Dave/Generated/E_EEPROM_XMC4\e_eeprom_xmc4.c ****  * MACROS
  61:E:/NOVA/Assets/IFX_P2G-HW-SW_V1.0.4/Firmware_Software/DAVE project/P2G_FW/Dave/Generated/E_EEPROM_XMC4\e_eeprom_xmc4.c ****  **************************************************************************************************
  62:E:/NOVA/Assets/IFX_P2G-HW-SW_V1.0.4/Firmware_Software/DAVE project/P2G_FW/Dave/Generated/E_EEPROM_XMC4\e_eeprom_xmc4.c **** 
  63:E:/NOVA/Assets/IFX_P2G-HW-SW_V1.0.4/Firmware_Software/DAVE project/P2G_FW/Dave/Generated/E_EEPROM_XMC4\e_eeprom_xmc4.c **** /* EEPROM SECTOR numbers definitions */
  64:E:/NOVA/Assets/IFX_P2G-HW-SW_V1.0.4/Firmware_Software/DAVE project/P2G_FW/Dave/Generated/E_EEPROM_XMC4\e_eeprom_xmc4.c **** #define E_EEPROM_XMC4_SECTOR_0    ((uint32_t)0U)
  65:E:/NOVA/Assets/IFX_P2G-HW-SW_V1.0.4/Firmware_Software/DAVE project/P2G_FW/Dave/Generated/E_EEPROM_XMC4\e_eeprom_xmc4.c **** #define E_EEPROM_XMC4_SECTOR_1    ((uint32_t)1U)
  66:E:/NOVA/Assets/IFX_P2G-HW-SW_V1.0.4/Firmware_Software/DAVE project/P2G_FW/Dave/Generated/E_EEPROM_XMC4\e_eeprom_xmc4.c **** #define E_EEPROM_XMC4_SECTOR_2    ((uint32_t)2U)
  67:E:/NOVA/Assets/IFX_P2G-HW-SW_V1.0.4/Firmware_Software/DAVE project/P2G_FW/Dave/Generated/E_EEPROM_XMC4\e_eeprom_xmc4.c **** #define E_EEPROM_XMC4_SECTOR_3    ((uint32_t)3U)
  68:E:/NOVA/Assets/IFX_P2G-HW-SW_V1.0.4/Firmware_Software/DAVE project/P2G_FW/Dave/Generated/E_EEPROM_XMC4\e_eeprom_xmc4.c **** #define E_EEPROM_XMC4_MAX_SECTORS ((uint32_t)4U)
  69:E:/NOVA/Assets/IFX_P2G-HW-SW_V1.0.4/Firmware_Software/DAVE project/P2G_FW/Dave/Generated/E_EEPROM_XMC4\e_eeprom_xmc4.c **** 
  70:E:/NOVA/Assets/IFX_P2G-HW-SW_V1.0.4/Firmware_Software/DAVE project/P2G_FW/Dave/Generated/E_EEPROM_XMC4\e_eeprom_xmc4.c **** /* Offset positions for CRC and user DATA definitions*/
  71:E:/NOVA/Assets/IFX_P2G-HW-SW_V1.0.4/Firmware_Software/DAVE project/P2G_FW/Dave/Generated/E_EEPROM_XMC4\e_eeprom_xmc4.c **** #define E_EEPROM_XMC4_BCC_OFFSET  ((uint8_t)1U)
  72:E:/NOVA/Assets/IFX_P2G-HW-SW_V1.0.4/Firmware_Software/DAVE project/P2G_FW/Dave/Generated/E_EEPROM_XMC4\e_eeprom_xmc4.c **** #define E_EEPROM_XMC4_DATA_OFFSET ((uint8_t)2U)
  73:E:/NOVA/Assets/IFX_P2G-HW-SW_V1.0.4/Firmware_Software/DAVE project/P2G_FW/Dave/Generated/E_EEPROM_XMC4\e_eeprom_xmc4.c **** 
  74:E:/NOVA/Assets/IFX_P2G-HW-SW_V1.0.4/Firmware_Software/DAVE project/P2G_FW/Dave/Generated/E_EEPROM_XMC4\e_eeprom_xmc4.c **** /* All four logical sector starting addresses defined */
  75:E:/NOVA/Assets/IFX_P2G-HW-SW_V1.0.4/Firmware_Software/DAVE project/P2G_FW/Dave/Generated/E_EEPROM_XMC4\e_eeprom_xmc4.c **** #define E_EEPROM_XMC4_SECTOR0_START_ADDR   (XMC_FLASH_UNCACHED_BASE + 0x10000U)
  76:E:/NOVA/Assets/IFX_P2G-HW-SW_V1.0.4/Firmware_Software/DAVE project/P2G_FW/Dave/Generated/E_EEPROM_XMC4\e_eeprom_xmc4.c **** #define E_EEPROM_XMC4_SECTOR1_START_ADDR   (XMC_FLASH_UNCACHED_BASE + 0x14000U)
  77:E:/NOVA/Assets/IFX_P2G-HW-SW_V1.0.4/Firmware_Software/DAVE project/P2G_FW/Dave/Generated/E_EEPROM_XMC4\e_eeprom_xmc4.c **** #define E_EEPROM_XMC4_SECTOR2_START_ADDR   (XMC_FLASH_UNCACHED_BASE + 0x18000U)
  78:E:/NOVA/Assets/IFX_P2G-HW-SW_V1.0.4/Firmware_Software/DAVE project/P2G_FW/Dave/Generated/E_EEPROM_XMC4\e_eeprom_xmc4.c **** #define E_EEPROM_XMC4_SECTOR3_START_ADDR   (XMC_FLASH_UNCACHED_BASE + 0x1C000U)
  79:E:/NOVA/Assets/IFX_P2G-HW-SW_V1.0.4/Firmware_Software/DAVE project/P2G_FW/Dave/Generated/E_EEPROM_XMC4\e_eeprom_xmc4.c **** #define E_EEPROM_XMC4_SECTOR4_START_ADDR   (XMC_FLASH_UNCACHED_BASE + 0x20000U)
  80:E:/NOVA/Assets/IFX_P2G-HW-SW_V1.0.4/Firmware_Software/DAVE project/P2G_FW/Dave/Generated/E_EEPROM_XMC4\e_eeprom_xmc4.c **** 
  81:E:/NOVA/Assets/IFX_P2G-HW-SW_V1.0.4/Firmware_Software/DAVE project/P2G_FW/Dave/Generated/E_EEPROM_XMC4\e_eeprom_xmc4.c **** /* Local definitions for internal usage*/
  82:E:/NOVA/Assets/IFX_P2G-HW-SW_V1.0.4/Firmware_Software/DAVE project/P2G_FW/Dave/Generated/E_EEPROM_XMC4\e_eeprom_xmc4.c **** #define E_EEPROM_XMC4_EMPTY                   ((uint32_t)0x0U)
  83:E:/NOVA/Assets/IFX_P2G-HW-SW_V1.0.4/Firmware_Software/DAVE project/P2G_FW/Dave/Generated/E_EEPROM_XMC4\e_eeprom_xmc4.c **** #define E_EEPROM_XMC4_ALL_SECTORS_FILLED      ((uint8_t)0x0FU)
  84:E:/NOVA/Assets/IFX_P2G-HW-SW_V1.0.4/Firmware_Software/DAVE project/P2G_FW/Dave/Generated/E_EEPROM_XMC4\e_eeprom_xmc4.c **** #define E_EEPROM_XMC4_MIN_WORDS_PER_PAGE      ((uint32_t)64U)
  85:E:/NOVA/Assets/IFX_P2G-HW-SW_V1.0.4/Firmware_Software/DAVE project/P2G_FW/Dave/Generated/E_EEPROM_XMC4\e_eeprom_xmc4.c **** #define E_EEPROM_XMC4_SECTOR_SIZE             ((uint32_t)0x00004000U)
  86:E:/NOVA/Assets/IFX_P2G-HW-SW_V1.0.4/Firmware_Software/DAVE project/P2G_FW/Dave/Generated/E_EEPROM_XMC4\e_eeprom_xmc4.c **** #define E_EEPROM_XMC4_SECTOR_POSITION_MASK    ((uint32_t)0x0000C000U)
  87:E:/NOVA/Assets/IFX_P2G-HW-SW_V1.0.4/Firmware_Software/DAVE project/P2G_FW/Dave/Generated/E_EEPROM_XMC4\e_eeprom_xmc4.c **** #define E_EEPROM_XMC4_SECTOR_POSITION         ((uint32_t)14U)
  88:E:/NOVA/Assets/IFX_P2G-HW-SW_V1.0.4/Firmware_Software/DAVE project/P2G_FW/Dave/Generated/E_EEPROM_XMC4\e_eeprom_xmc4.c **** #define E_EEPROM_XMC4_WORKING_BUFFER_SIZE     ((uint32_t)E_EEPROM_XMC4_ACTUAL_FLASH_BLOCK_SIZE - (u
  89:E:/NOVA/Assets/IFX_P2G-HW-SW_V1.0.4/Firmware_Software/DAVE project/P2G_FW/Dave/Generated/E_EEPROM_XMC4\e_eeprom_xmc4.c **** #define E_EEPROM_XMC4_DATA_SIZE_FOR_CRC       ((uint32_t)E_EEPROM_XMC4_ACTUAL_FLASH_BLOCK_SIZE - (u
  90:E:/NOVA/Assets/IFX_P2G-HW-SW_V1.0.4/Firmware_Software/DAVE project/P2G_FW/Dave/Generated/E_EEPROM_XMC4\e_eeprom_xmc4.c **** #define E_EEPROM_XMC4_MAX_PAGES               ((uint32_t)E_EEPROM_XMC4_ACTUAL_FLASH_BLOCK_SIZE >> (
  91:E:/NOVA/Assets/IFX_P2G-HW-SW_V1.0.4/Firmware_Software/DAVE project/P2G_FW/Dave/Generated/E_EEPROM_XMC4\e_eeprom_xmc4.c **** #define E_EEPROM_XMC4_MAX_WORDS               ((uint32_t)E_EEPROM_XMC4_ACTUAL_FLASH_BLOCK_SIZE >> (
  92:E:/NOVA/Assets/IFX_P2G-HW-SW_V1.0.4/Firmware_Software/DAVE project/P2G_FW/Dave/Generated/E_EEPROM_XMC4\e_eeprom_xmc4.c **** 
  93:E:/NOVA/Assets/IFX_P2G-HW-SW_V1.0.4/Firmware_Software/DAVE project/P2G_FW/Dave/Generated/E_EEPROM_XMC4\e_eeprom_xmc4.c **** 
  94:E:/NOVA/Assets/IFX_P2G-HW-SW_V1.0.4/Firmware_Software/DAVE project/P2G_FW/Dave/Generated/E_EEPROM_XMC4\e_eeprom_xmc4.c **** /**************************************************************************************************
  95:E:/NOVA/Assets/IFX_P2G-HW-SW_V1.0.4/Firmware_Software/DAVE project/P2G_FW/Dave/Generated/E_EEPROM_XMC4\e_eeprom_xmc4.c ****  * Data structure Configurations
  96:E:/NOVA/Assets/IFX_P2G-HW-SW_V1.0.4/Firmware_Software/DAVE project/P2G_FW/Dave/Generated/E_EEPROM_XMC4\e_eeprom_xmc4.c ****  **************************************************************************************************
  97:E:/NOVA/Assets/IFX_P2G-HW-SW_V1.0.4/Firmware_Software/DAVE project/P2G_FW/Dave/Generated/E_EEPROM_XMC4\e_eeprom_xmc4.c **** 
  98:E:/NOVA/Assets/IFX_P2G-HW-SW_V1.0.4/Firmware_Software/DAVE project/P2G_FW/Dave/Generated/E_EEPROM_XMC4\e_eeprom_xmc4.c **** /** Data structure to hold the complete state data information of sector*/
  99:E:/NOVA/Assets/IFX_P2G-HW-SW_V1.0.4/Firmware_Software/DAVE project/P2G_FW/Dave/Generated/E_EEPROM_XMC4\e_eeprom_xmc4.c **** typedef struct E_EEPROM_XMC4_SECTOR_INFO
 100:E:/NOVA/Assets/IFX_P2G-HW-SW_V1.0.4/Firmware_Software/DAVE project/P2G_FW/Dave/Generated/E_EEPROM_XMC4\e_eeprom_xmc4.c **** {
 101:E:/NOVA/Assets/IFX_P2G-HW-SW_V1.0.4/Firmware_Software/DAVE project/P2G_FW/Dave/Generated/E_EEPROM_XMC4\e_eeprom_xmc4.c ****   uint32_t next_free_start_addr;
 102:E:/NOVA/Assets/IFX_P2G-HW-SW_V1.0.4/Firmware_Software/DAVE project/P2G_FW/Dave/Generated/E_EEPROM_XMC4\e_eeprom_xmc4.c **** 
 103:E:/NOVA/Assets/IFX_P2G-HW-SW_V1.0.4/Firmware_Software/DAVE project/P2G_FW/Dave/Generated/E_EEPROM_XMC4\e_eeprom_xmc4.c ****   uint32_t flash_data_addr;
 104:E:/NOVA/Assets/IFX_P2G-HW-SW_V1.0.4/Firmware_Software/DAVE project/P2G_FW/Dave/Generated/E_EEPROM_XMC4\e_eeprom_xmc4.c **** 
 105:E:/NOVA/Assets/IFX_P2G-HW-SW_V1.0.4/Firmware_Software/DAVE project/P2G_FW/Dave/Generated/E_EEPROM_XMC4\e_eeprom_xmc4.c ****   uint32_t  current_sector;
 106:E:/NOVA/Assets/IFX_P2G-HW-SW_V1.0.4/Firmware_Software/DAVE project/P2G_FW/Dave/Generated/E_EEPROM_XMC4\e_eeprom_xmc4.c **** 
 107:E:/NOVA/Assets/IFX_P2G-HW-SW_V1.0.4/Firmware_Software/DAVE project/P2G_FW/Dave/Generated/E_EEPROM_XMC4\e_eeprom_xmc4.c ****   uint32_t  erase_state;
 108:E:/NOVA/Assets/IFX_P2G-HW-SW_V1.0.4/Firmware_Software/DAVE project/P2G_FW/Dave/Generated/E_EEPROM_XMC4\e_eeprom_xmc4.c **** 
 109:E:/NOVA/Assets/IFX_P2G-HW-SW_V1.0.4/Firmware_Software/DAVE project/P2G_FW/Dave/Generated/E_EEPROM_XMC4\e_eeprom_xmc4.c **** } E_EEPROM_XMC4_SECTOR_INFO_t;
 110:E:/NOVA/Assets/IFX_P2G-HW-SW_V1.0.4/Firmware_Software/DAVE project/P2G_FW/Dave/Generated/E_EEPROM_XMC4\e_eeprom_xmc4.c **** 
 111:E:/NOVA/Assets/IFX_P2G-HW-SW_V1.0.4/Firmware_Software/DAVE project/P2G_FW/Dave/Generated/E_EEPROM_XMC4\e_eeprom_xmc4.c **** /* Data structure to hold the User Data block information (BCC + CRC + DATA)*/
 112:E:/NOVA/Assets/IFX_P2G-HW-SW_V1.0.4/Firmware_Software/DAVE project/P2G_FW/Dave/Generated/E_EEPROM_XMC4\e_eeprom_xmc4.c **** typedef struct E_EEPROM_XMC4_RAM_BUFFER
 113:E:/NOVA/Assets/IFX_P2G-HW-SW_V1.0.4/Firmware_Software/DAVE project/P2G_FW/Dave/Generated/E_EEPROM_XMC4\e_eeprom_xmc4.c **** {
 114:E:/NOVA/Assets/IFX_P2G-HW-SW_V1.0.4/Firmware_Software/DAVE project/P2G_FW/Dave/Generated/E_EEPROM_XMC4\e_eeprom_xmc4.c ****   uint32_t crc;
 115:E:/NOVA/Assets/IFX_P2G-HW-SW_V1.0.4/Firmware_Software/DAVE project/P2G_FW/Dave/Generated/E_EEPROM_XMC4\e_eeprom_xmc4.c **** 
 116:E:/NOVA/Assets/IFX_P2G-HW-SW_V1.0.4/Firmware_Software/DAVE project/P2G_FW/Dave/Generated/E_EEPROM_XMC4\e_eeprom_xmc4.c ****   uint32_t block_cycle_count;
 117:E:/NOVA/Assets/IFX_P2G-HW-SW_V1.0.4/Firmware_Software/DAVE project/P2G_FW/Dave/Generated/E_EEPROM_XMC4\e_eeprom_xmc4.c **** 
 118:E:/NOVA/Assets/IFX_P2G-HW-SW_V1.0.4/Firmware_Software/DAVE project/P2G_FW/Dave/Generated/E_EEPROM_XMC4\e_eeprom_xmc4.c ****   uint8_t  eeprom_data[E_EEPROM_XMC4_WORKING_BUFFER_SIZE];
 119:E:/NOVA/Assets/IFX_P2G-HW-SW_V1.0.4/Firmware_Software/DAVE project/P2G_FW/Dave/Generated/E_EEPROM_XMC4\e_eeprom_xmc4.c **** 
 120:E:/NOVA/Assets/IFX_P2G-HW-SW_V1.0.4/Firmware_Software/DAVE project/P2G_FW/Dave/Generated/E_EEPROM_XMC4\e_eeprom_xmc4.c **** } E_EEPROM_XMC4_RAM_BUFFER_t;
 121:E:/NOVA/Assets/IFX_P2G-HW-SW_V1.0.4/Firmware_Software/DAVE project/P2G_FW/Dave/Generated/E_EEPROM_XMC4\e_eeprom_xmc4.c **** 
 122:E:/NOVA/Assets/IFX_P2G-HW-SW_V1.0.4/Firmware_Software/DAVE project/P2G_FW/Dave/Generated/E_EEPROM_XMC4\e_eeprom_xmc4.c **** /* RAM data buffer structure definition */
 123:E:/NOVA/Assets/IFX_P2G-HW-SW_V1.0.4/Firmware_Software/DAVE project/P2G_FW/Dave/Generated/E_EEPROM_XMC4\e_eeprom_xmc4.c **** static E_EEPROM_XMC4_RAM_BUFFER_t e_eeprom_xmc4_data_buffer;
 124:E:/NOVA/Assets/IFX_P2G-HW-SW_V1.0.4/Firmware_Software/DAVE project/P2G_FW/Dave/Generated/E_EEPROM_XMC4\e_eeprom_xmc4.c **** 
 125:E:/NOVA/Assets/IFX_P2G-HW-SW_V1.0.4/Firmware_Software/DAVE project/P2G_FW/Dave/Generated/E_EEPROM_XMC4\e_eeprom_xmc4.c **** /* Sector info data structure definition */
 126:E:/NOVA/Assets/IFX_P2G-HW-SW_V1.0.4/Firmware_Software/DAVE project/P2G_FW/Dave/Generated/E_EEPROM_XMC4\e_eeprom_xmc4.c **** static E_EEPROM_XMC4_SECTOR_INFO_t  e_eeprom_xmc4_sector_info  =
 127:E:/NOVA/Assets/IFX_P2G-HW-SW_V1.0.4/Firmware_Software/DAVE project/P2G_FW/Dave/Generated/E_EEPROM_XMC4\e_eeprom_xmc4.c **** {
 128:E:/NOVA/Assets/IFX_P2G-HW-SW_V1.0.4/Firmware_Software/DAVE project/P2G_FW/Dave/Generated/E_EEPROM_XMC4\e_eeprom_xmc4.c ****   .next_free_start_addr = 0U,
 129:E:/NOVA/Assets/IFX_P2G-HW-SW_V1.0.4/Firmware_Software/DAVE project/P2G_FW/Dave/Generated/E_EEPROM_XMC4\e_eeprom_xmc4.c ****   .flash_data_addr      = 0U,
 130:E:/NOVA/Assets/IFX_P2G-HW-SW_V1.0.4/Firmware_Software/DAVE project/P2G_FW/Dave/Generated/E_EEPROM_XMC4\e_eeprom_xmc4.c ****   .current_sector       = 0xFFFFFFFFU,
 131:E:/NOVA/Assets/IFX_P2G-HW-SW_V1.0.4/Firmware_Software/DAVE project/P2G_FW/Dave/Generated/E_EEPROM_XMC4\e_eeprom_xmc4.c ****   .erase_state          = 0U
 132:E:/NOVA/Assets/IFX_P2G-HW-SW_V1.0.4/Firmware_Software/DAVE project/P2G_FW/Dave/Generated/E_EEPROM_XMC4\e_eeprom_xmc4.c **** };
 133:E:/NOVA/Assets/IFX_P2G-HW-SW_V1.0.4/Firmware_Software/DAVE project/P2G_FW/Dave/Generated/E_EEPROM_XMC4\e_eeprom_xmc4.c **** 
 134:E:/NOVA/Assets/IFX_P2G-HW-SW_V1.0.4/Firmware_Software/DAVE project/P2G_FW/Dave/Generated/E_EEPROM_XMC4\e_eeprom_xmc4.c **** /* FCE configuration data structure definition */
 135:E:/NOVA/Assets/IFX_P2G-HW-SW_V1.0.4/Firmware_Software/DAVE project/P2G_FW/Dave/Generated/E_EEPROM_XMC4\e_eeprom_xmc4.c **** static const XMC_FCE_t e_eeprom_xmc4_fce =
 136:E:/NOVA/Assets/IFX_P2G-HW-SW_V1.0.4/Firmware_Software/DAVE project/P2G_FW/Dave/Generated/E_EEPROM_XMC4\e_eeprom_xmc4.c **** {
 137:E:/NOVA/Assets/IFX_P2G-HW-SW_V1.0.4/Firmware_Software/DAVE project/P2G_FW/Dave/Generated/E_EEPROM_XMC4\e_eeprom_xmc4.c ****  .kernel_ptr     = (XMC_FCE_Kernel_t*)(void*)E_EEPROM_XMC4_FCE_KERNEL_BASE,
 138:E:/NOVA/Assets/IFX_P2G-HW-SW_V1.0.4/Firmware_Software/DAVE project/P2G_FW/Dave/Generated/E_EEPROM_XMC4\e_eeprom_xmc4.c ****  .fce_cfg_update = {{
 139:E:/NOVA/Assets/IFX_P2G-HW-SW_V1.0.4/Firmware_Software/DAVE project/P2G_FW/Dave/Generated/E_EEPROM_XMC4\e_eeprom_xmc4.c ****                      .config_refin  = 1U,
 140:E:/NOVA/Assets/IFX_P2G-HW-SW_V1.0.4/Firmware_Software/DAVE project/P2G_FW/Dave/Generated/E_EEPROM_XMC4\e_eeprom_xmc4.c ****                      .config_refout = 1U,
 141:E:/NOVA/Assets/IFX_P2G-HW-SW_V1.0.4/Firmware_Software/DAVE project/P2G_FW/Dave/Generated/E_EEPROM_XMC4\e_eeprom_xmc4.c ****                      .config_xsel   = 1U
 142:E:/NOVA/Assets/IFX_P2G-HW-SW_V1.0.4/Firmware_Software/DAVE project/P2G_FW/Dave/Generated/E_EEPROM_XMC4\e_eeprom_xmc4.c ****                    }},
 143:E:/NOVA/Assets/IFX_P2G-HW-SW_V1.0.4/Firmware_Software/DAVE project/P2G_FW/Dave/Generated/E_EEPROM_XMC4\e_eeprom_xmc4.c ****  .seedvalue      = 0U
 144:E:/NOVA/Assets/IFX_P2G-HW-SW_V1.0.4/Firmware_Software/DAVE project/P2G_FW/Dave/Generated/E_EEPROM_XMC4\e_eeprom_xmc4.c **** };
 145:E:/NOVA/Assets/IFX_P2G-HW-SW_V1.0.4/Firmware_Software/DAVE project/P2G_FW/Dave/Generated/E_EEPROM_XMC4\e_eeprom_xmc4.c **** 
 146:E:/NOVA/Assets/IFX_P2G-HW-SW_V1.0.4/Firmware_Software/DAVE project/P2G_FW/Dave/Generated/E_EEPROM_XMC4\e_eeprom_xmc4.c **** /**************************************************************************************************
 147:E:/NOVA/Assets/IFX_P2G-HW-SW_V1.0.4/Firmware_Software/DAVE project/P2G_FW/Dave/Generated/E_EEPROM_XMC4\e_eeprom_xmc4.c ****  * Local Function Prototypes
 148:E:/NOVA/Assets/IFX_P2G-HW-SW_V1.0.4/Firmware_Software/DAVE project/P2G_FW/Dave/Generated/E_EEPROM_XMC4\e_eeprom_xmc4.c ****  **************************************************************************************************
 149:E:/NOVA/Assets/IFX_P2G-HW-SW_V1.0.4/Firmware_Software/DAVE project/P2G_FW/Dave/Generated/E_EEPROM_XMC4\e_eeprom_xmc4.c **** static E_EEPROM_XMC4_STATUS_t E_EEPROM_XMC4_lWriteToFlash(void);
 150:E:/NOVA/Assets/IFX_P2G-HW-SW_V1.0.4/Firmware_Software/DAVE project/P2G_FW/Dave/Generated/E_EEPROM_XMC4\e_eeprom_xmc4.c **** 
 151:E:/NOVA/Assets/IFX_P2G-HW-SW_V1.0.4/Firmware_Software/DAVE project/P2G_FW/Dave/Generated/E_EEPROM_XMC4\e_eeprom_xmc4.c **** static void E_EEPROM_XMC4_lCopyFlashToRam(void);
 152:E:/NOVA/Assets/IFX_P2G-HW-SW_V1.0.4/Firmware_Software/DAVE project/P2G_FW/Dave/Generated/E_EEPROM_XMC4\e_eeprom_xmc4.c **** 
 153:E:/NOVA/Assets/IFX_P2G-HW-SW_V1.0.4/Firmware_Software/DAVE project/P2G_FW/Dave/Generated/E_EEPROM_XMC4\e_eeprom_xmc4.c **** static void E_EEPROM_XMC4_lInitReadSectorInfo(uint32_t sector);
 154:E:/NOVA/Assets/IFX_P2G-HW-SW_V1.0.4/Firmware_Software/DAVE project/P2G_FW/Dave/Generated/E_EEPROM_XMC4\e_eeprom_xmc4.c **** 
 155:E:/NOVA/Assets/IFX_P2G-HW-SW_V1.0.4/Firmware_Software/DAVE project/P2G_FW/Dave/Generated/E_EEPROM_XMC4\e_eeprom_xmc4.c **** static E_EEPROM_XMC4_STATUS_t E_EEPROM_XMC4_lInitEraseStateMachine(void);
 156:E:/NOVA/Assets/IFX_P2G-HW-SW_V1.0.4/Firmware_Software/DAVE project/P2G_FW/Dave/Generated/E_EEPROM_XMC4\e_eeprom_xmc4.c **** 
 157:E:/NOVA/Assets/IFX_P2G-HW-SW_V1.0.4/Firmware_Software/DAVE project/P2G_FW/Dave/Generated/E_EEPROM_XMC4\e_eeprom_xmc4.c **** static uint32_t E_EEPROM_XMC4_lCalculateCRC(const uint32_t *data_start_addr);
 158:E:/NOVA/Assets/IFX_P2G-HW-SW_V1.0.4/Firmware_Software/DAVE project/P2G_FW/Dave/Generated/E_EEPROM_XMC4\e_eeprom_xmc4.c **** 
 159:E:/NOVA/Assets/IFX_P2G-HW-SW_V1.0.4/Firmware_Software/DAVE project/P2G_FW/Dave/Generated/E_EEPROM_XMC4\e_eeprom_xmc4.c **** /**************************************************************************************************
 160:E:/NOVA/Assets/IFX_P2G-HW-SW_V1.0.4/Firmware_Software/DAVE project/P2G_FW/Dave/Generated/E_EEPROM_XMC4\e_eeprom_xmc4.c ****  * API IMPLEMENTATION
 161:E:/NOVA/Assets/IFX_P2G-HW-SW_V1.0.4/Firmware_Software/DAVE project/P2G_FW/Dave/Generated/E_EEPROM_XMC4\e_eeprom_xmc4.c ****  **************************************************************************************************
 162:E:/NOVA/Assets/IFX_P2G-HW-SW_V1.0.4/Firmware_Software/DAVE project/P2G_FW/Dave/Generated/E_EEPROM_XMC4\e_eeprom_xmc4.c **** 
 163:E:/NOVA/Assets/IFX_P2G-HW-SW_V1.0.4/Firmware_Software/DAVE project/P2G_FW/Dave/Generated/E_EEPROM_XMC4\e_eeprom_xmc4.c **** DAVE_APP_VERSION_t E_EEPROM_XMC4_GetAppVersion(void)
 164:E:/NOVA/Assets/IFX_P2G-HW-SW_V1.0.4/Firmware_Software/DAVE project/P2G_FW/Dave/Generated/E_EEPROM_XMC4\e_eeprom_xmc4.c **** {
  28              	 .loc 1 164 0
  29              	 .cfi_startproc
  30              	 
  31              	 
  32              	 
  33              	.LVL0:
 165:E:/NOVA/Assets/IFX_P2G-HW-SW_V1.0.4/Firmware_Software/DAVE project/P2G_FW/Dave/Generated/E_EEPROM_XMC4\e_eeprom_xmc4.c ****   DAVE_APP_VERSION_t version;
 166:E:/NOVA/Assets/IFX_P2G-HW-SW_V1.0.4/Firmware_Software/DAVE project/P2G_FW/Dave/Generated/E_EEPROM_XMC4\e_eeprom_xmc4.c **** 
 167:E:/NOVA/Assets/IFX_P2G-HW-SW_V1.0.4/Firmware_Software/DAVE project/P2G_FW/Dave/Generated/E_EEPROM_XMC4\e_eeprom_xmc4.c ****   version.major = (uint8_t)E_EEPROM_XMC4_MAJOR_VERSION;
 168:E:/NOVA/Assets/IFX_P2G-HW-SW_V1.0.4/Firmware_Software/DAVE project/P2G_FW/Dave/Generated/E_EEPROM_XMC4\e_eeprom_xmc4.c ****   version.minor = (uint8_t)E_EEPROM_XMC4_MINOR_VERSION;
 169:E:/NOVA/Assets/IFX_P2G-HW-SW_V1.0.4/Firmware_Software/DAVE project/P2G_FW/Dave/Generated/E_EEPROM_XMC4\e_eeprom_xmc4.c ****   version.patch = (uint8_t)E_EEPROM_XMC4_PATCH_VERSION;
 170:E:/NOVA/Assets/IFX_P2G-HW-SW_V1.0.4/Firmware_Software/DAVE project/P2G_FW/Dave/Generated/E_EEPROM_XMC4\e_eeprom_xmc4.c **** 
 171:E:/NOVA/Assets/IFX_P2G-HW-SW_V1.0.4/Firmware_Software/DAVE project/P2G_FW/Dave/Generated/E_EEPROM_XMC4\e_eeprom_xmc4.c ****   return (version);
  34              	 .loc 1 171 0
  35 0000 0023     	 movs r3,#0
  36 0002 1846     	 mov r0,r3
  37 0004 0422     	 movs r2,#4
  38 0006 62F30700 	 bfi r0,r2,#0,#8
  39 000a 63F30F20 	 bfi r0,r3,#8,#8
  40 000e 0E23     	 movs r3,#14
  41 0010 63F31740 	 bfi r0,r3,#16,#8
 164:E:/NOVA/Assets/IFX_P2G-HW-SW_V1.0.4/Firmware_Software/DAVE project/P2G_FW/Dave/Generated/E_EEPROM_XMC4\e_eeprom_xmc4.c ****   DAVE_APP_VERSION_t version;
  42              	 .loc 1 164 0
  43 0014 82B0     	 sub sp,sp,#8
  44              	.LCFI0:
  45              	 .cfi_def_cfa_offset 8
 172:E:/NOVA/Assets/IFX_P2G-HW-SW_V1.0.4/Firmware_Software/DAVE project/P2G_FW/Dave/Generated/E_EEPROM_XMC4\e_eeprom_xmc4.c **** }
  46              	 .loc 1 172 0
  47 0016 02B0     	 add sp,sp,#8
  48              	.LCFI1:
  49              	 .cfi_def_cfa_offset 0
  50              	 
  51 0018 7047     	 bx lr
  52              	 .cfi_endproc
  53              	.LFE158:
  55 001a 00BF     	 .section .text.E_EEPROM_XMC4_Init,"ax",%progbits
  56              	 .align 2
  57              	 .global E_EEPROM_XMC4_Init
  58              	 .thumb
  59              	 .thumb_func
  61              	E_EEPROM_XMC4_Init:
  62              	.LFB159:
 173:E:/NOVA/Assets/IFX_P2G-HW-SW_V1.0.4/Firmware_Software/DAVE project/P2G_FW/Dave/Generated/E_EEPROM_XMC4\e_eeprom_xmc4.c **** 
 174:E:/NOVA/Assets/IFX_P2G-HW-SW_V1.0.4/Firmware_Software/DAVE project/P2G_FW/Dave/Generated/E_EEPROM_XMC4\e_eeprom_xmc4.c **** E_EEPROM_XMC4_STATUS_t E_EEPROM_XMC4_Init(E_EEPROM_XMC4_t *const handle)
 175:E:/NOVA/Assets/IFX_P2G-HW-SW_V1.0.4/Firmware_Software/DAVE project/P2G_FW/Dave/Generated/E_EEPROM_XMC4\e_eeprom_xmc4.c **** {
  63              	 .loc 1 175 0
  64              	 .cfi_startproc
  65              	 
  66              	 
  67              	.LVL1:
  68 0000 2DE9F04F 	 push {r4,r5,r6,r7,r8,r9,r10,fp,lr}
  69              	.LCFI2:
  70              	 .cfi_def_cfa_offset 36
  71              	 .cfi_offset 4,-36
  72              	 .cfi_offset 5,-32
  73              	 .cfi_offset 6,-28
  74              	 .cfi_offset 7,-24
  75              	 .cfi_offset 8,-20
  76              	 .cfi_offset 9,-16
  77              	 .cfi_offset 10,-12
  78              	 .cfi_offset 11,-8
  79              	 .cfi_offset 14,-4
 176:E:/NOVA/Assets/IFX_P2G-HW-SW_V1.0.4/Firmware_Software/DAVE project/P2G_FW/Dave/Generated/E_EEPROM_XMC4\e_eeprom_xmc4.c ****   uint32_t sector_count;
 177:E:/NOVA/Assets/IFX_P2G-HW-SW_V1.0.4/Firmware_Software/DAVE project/P2G_FW/Dave/Generated/E_EEPROM_XMC4\e_eeprom_xmc4.c ****   E_EEPROM_XMC4_STATUS_t status ;
 178:E:/NOVA/Assets/IFX_P2G-HW-SW_V1.0.4/Firmware_Software/DAVE project/P2G_FW/Dave/Generated/E_EEPROM_XMC4\e_eeprom_xmc4.c **** 
 179:E:/NOVA/Assets/IFX_P2G-HW-SW_V1.0.4/Firmware_Software/DAVE project/P2G_FW/Dave/Generated/E_EEPROM_XMC4\e_eeprom_xmc4.c ****   XMC_ASSERT("E_EEPROM_XMC4_Init:Invalid handle Pointer", (handle != NULL))
 180:E:/NOVA/Assets/IFX_P2G-HW-SW_V1.0.4/Firmware_Software/DAVE project/P2G_FW/Dave/Generated/E_EEPROM_XMC4\e_eeprom_xmc4.c **** 
 181:E:/NOVA/Assets/IFX_P2G-HW-SW_V1.0.4/Firmware_Software/DAVE project/P2G_FW/Dave/Generated/E_EEPROM_XMC4\e_eeprom_xmc4.c ****   status = E_EEPROM_XMC4_STATUS_OK;
 182:E:/NOVA/Assets/IFX_P2G-HW-SW_V1.0.4/Firmware_Software/DAVE project/P2G_FW/Dave/Generated/E_EEPROM_XMC4\e_eeprom_xmc4.c ****   
 183:E:/NOVA/Assets/IFX_P2G-HW-SW_V1.0.4/Firmware_Software/DAVE project/P2G_FW/Dave/Generated/E_EEPROM_XMC4\e_eeprom_xmc4.c ****   if (handle->initialized == (bool)false)
  80              	 .loc 1 183 0
  81 0004 0478     	 ldrb r4,[r0]
 175:E:/NOVA/Assets/IFX_P2G-HW-SW_V1.0.4/Firmware_Software/DAVE project/P2G_FW/Dave/Generated/E_EEPROM_XMC4\e_eeprom_xmc4.c ****   uint32_t sector_count;
  82              	 .loc 1 175 0
  83 0006 85B0     	 sub sp,sp,#20
  84              	.LCFI3:
  85              	 .cfi_def_cfa_offset 56
  86              	 .loc 1 183 0
  87 0008 1CB1     	 cbz r4,.L57
 181:E:/NOVA/Assets/IFX_P2G-HW-SW_V1.0.4/Firmware_Software/DAVE project/P2G_FW/Dave/Generated/E_EEPROM_XMC4\e_eeprom_xmc4.c ****   
  88              	 .loc 1 181 0
  89 000a 0020     	 movs r0,#0
  90              	.LVL2:
 184:E:/NOVA/Assets/IFX_P2G-HW-SW_V1.0.4/Firmware_Software/DAVE project/P2G_FW/Dave/Generated/E_EEPROM_XMC4\e_eeprom_xmc4.c ****   {
 185:E:/NOVA/Assets/IFX_P2G-HW-SW_V1.0.4/Firmware_Software/DAVE project/P2G_FW/Dave/Generated/E_EEPROM_XMC4\e_eeprom_xmc4.c ****     e_eeprom_xmc4_data_buffer.block_cycle_count = 0U;
 186:E:/NOVA/Assets/IFX_P2G-HW-SW_V1.0.4/Firmware_Software/DAVE project/P2G_FW/Dave/Generated/E_EEPROM_XMC4\e_eeprom_xmc4.c ****     e_eeprom_xmc4_sector_info.flash_data_addr = E_EEPROM_XMC4_EMPTY;
 187:E:/NOVA/Assets/IFX_P2G-HW-SW_V1.0.4/Firmware_Software/DAVE project/P2G_FW/Dave/Generated/E_EEPROM_XMC4\e_eeprom_xmc4.c ****   
 188:E:/NOVA/Assets/IFX_P2G-HW-SW_V1.0.4/Firmware_Software/DAVE project/P2G_FW/Dave/Generated/E_EEPROM_XMC4\e_eeprom_xmc4.c ****     XMC_FLASH_SetMargin(XMC_FLASH_MARGIN_TIGHT0);
 189:E:/NOVA/Assets/IFX_P2G-HW-SW_V1.0.4/Firmware_Software/DAVE project/P2G_FW/Dave/Generated/E_EEPROM_XMC4\e_eeprom_xmc4.c ****     XMC_FLASH_DisableDoubleBitErrorTrap();
 190:E:/NOVA/Assets/IFX_P2G-HW-SW_V1.0.4/Firmware_Software/DAVE project/P2G_FW/Dave/Generated/E_EEPROM_XMC4\e_eeprom_xmc4.c ****   
 191:E:/NOVA/Assets/IFX_P2G-HW-SW_V1.0.4/Firmware_Software/DAVE project/P2G_FW/Dave/Generated/E_EEPROM_XMC4\e_eeprom_xmc4.c ****     XMC_FCE_Enable();
 192:E:/NOVA/Assets/IFX_P2G-HW-SW_V1.0.4/Firmware_Software/DAVE project/P2G_FW/Dave/Generated/E_EEPROM_XMC4\e_eeprom_xmc4.c **** 
 193:E:/NOVA/Assets/IFX_P2G-HW-SW_V1.0.4/Firmware_Software/DAVE project/P2G_FW/Dave/Generated/E_EEPROM_XMC4\e_eeprom_xmc4.c ****     /* Initialize FCE module for Hardware calculations */
 194:E:/NOVA/Assets/IFX_P2G-HW-SW_V1.0.4/Firmware_Software/DAVE project/P2G_FW/Dave/Generated/E_EEPROM_XMC4\e_eeprom_xmc4.c ****     (void)XMC_FCE_Init(&e_eeprom_xmc4_fce);
 195:E:/NOVA/Assets/IFX_P2G-HW-SW_V1.0.4/Firmware_Software/DAVE project/P2G_FW/Dave/Generated/E_EEPROM_XMC4\e_eeprom_xmc4.c ****   
 196:E:/NOVA/Assets/IFX_P2G-HW-SW_V1.0.4/Firmware_Software/DAVE project/P2G_FW/Dave/Generated/E_EEPROM_XMC4\e_eeprom_xmc4.c ****     /* Iterate all 4 sectors to find out which is the active sector having the latest data block*/
 197:E:/NOVA/Assets/IFX_P2G-HW-SW_V1.0.4/Firmware_Software/DAVE project/P2G_FW/Dave/Generated/E_EEPROM_XMC4\e_eeprom_xmc4.c ****     for (sector_count = 0U; sector_count < E_EEPROM_XMC4_MAX_SECTORS ; sector_count++)
 198:E:/NOVA/Assets/IFX_P2G-HW-SW_V1.0.4/Firmware_Software/DAVE project/P2G_FW/Dave/Generated/E_EEPROM_XMC4\e_eeprom_xmc4.c ****     {
 199:E:/NOVA/Assets/IFX_P2G-HW-SW_V1.0.4/Firmware_Software/DAVE project/P2G_FW/Dave/Generated/E_EEPROM_XMC4\e_eeprom_xmc4.c ****       E_EEPROM_XMC4_lInitReadSectorInfo(sector_count);
 200:E:/NOVA/Assets/IFX_P2G-HW-SW_V1.0.4/Firmware_Software/DAVE project/P2G_FW/Dave/Generated/E_EEPROM_XMC4\e_eeprom_xmc4.c ****     }  
 201:E:/NOVA/Assets/IFX_P2G-HW-SW_V1.0.4/Firmware_Software/DAVE project/P2G_FW/Dave/Generated/E_EEPROM_XMC4\e_eeprom_xmc4.c ****   
 202:E:/NOVA/Assets/IFX_P2G-HW-SW_V1.0.4/Firmware_Software/DAVE project/P2G_FW/Dave/Generated/E_EEPROM_XMC4\e_eeprom_xmc4.c ****     XMC_FLASH_SetMargin(XMC_FLASH_MARGIN_DEFAULT);
 203:E:/NOVA/Assets/IFX_P2G-HW-SW_V1.0.4/Firmware_Software/DAVE project/P2G_FW/Dave/Generated/E_EEPROM_XMC4\e_eeprom_xmc4.c ****   
 204:E:/NOVA/Assets/IFX_P2G-HW-SW_V1.0.4/Firmware_Software/DAVE project/P2G_FW/Dave/Generated/E_EEPROM_XMC4\e_eeprom_xmc4.c ****     /* Implement the OVER ERASE CHECK code here and return the status*/
 205:E:/NOVA/Assets/IFX_P2G-HW-SW_V1.0.4/Firmware_Software/DAVE project/P2G_FW/Dave/Generated/E_EEPROM_XMC4\e_eeprom_xmc4.c ****   
 206:E:/NOVA/Assets/IFX_P2G-HW-SW_V1.0.4/Firmware_Software/DAVE project/P2G_FW/Dave/Generated/E_EEPROM_XMC4\e_eeprom_xmc4.c ****     /* If Read was successful*/
 207:E:/NOVA/Assets/IFX_P2G-HW-SW_V1.0.4/Firmware_Software/DAVE project/P2G_FW/Dave/Generated/E_EEPROM_XMC4\e_eeprom_xmc4.c ****     if (status == E_EEPROM_XMC4_STATUS_OK)
 208:E:/NOVA/Assets/IFX_P2G-HW-SW_V1.0.4/Firmware_Software/DAVE project/P2G_FW/Dave/Generated/E_EEPROM_XMC4\e_eeprom_xmc4.c ****     {
 209:E:/NOVA/Assets/IFX_P2G-HW-SW_V1.0.4/Firmware_Software/DAVE project/P2G_FW/Dave/Generated/E_EEPROM_XMC4\e_eeprom_xmc4.c ****       /* Execute erase state machine to free up the unwanted sectors and keep
 210:E:/NOVA/Assets/IFX_P2G-HW-SW_V1.0.4/Firmware_Software/DAVE project/P2G_FW/Dave/Generated/E_EEPROM_XMC4\e_eeprom_xmc4.c ****        * only the sector which has latest valid block. If no valid block found then all sectors are
 211:E:/NOVA/Assets/IFX_P2G-HW-SW_V1.0.4/Firmware_Software/DAVE project/P2G_FW/Dave/Generated/E_EEPROM_XMC4\e_eeprom_xmc4.c ****        */
 212:E:/NOVA/Assets/IFX_P2G-HW-SW_V1.0.4/Firmware_Software/DAVE project/P2G_FW/Dave/Generated/E_EEPROM_XMC4\e_eeprom_xmc4.c ****       status = E_EEPROM_XMC4_lInitEraseStateMachine();
 213:E:/NOVA/Assets/IFX_P2G-HW-SW_V1.0.4/Firmware_Software/DAVE project/P2G_FW/Dave/Generated/E_EEPROM_XMC4\e_eeprom_xmc4.c ****   
 214:E:/NOVA/Assets/IFX_P2G-HW-SW_V1.0.4/Firmware_Software/DAVE project/P2G_FW/Dave/Generated/E_EEPROM_XMC4\e_eeprom_xmc4.c ****       /* If erase operations were successful, continue block data updates to RAM buffer */
 215:E:/NOVA/Assets/IFX_P2G-HW-SW_V1.0.4/Firmware_Software/DAVE project/P2G_FW/Dave/Generated/E_EEPROM_XMC4\e_eeprom_xmc4.c ****       if (status == E_EEPROM_XMC4_STATUS_OK)
 216:E:/NOVA/Assets/IFX_P2G-HW-SW_V1.0.4/Firmware_Software/DAVE project/P2G_FW/Dave/Generated/E_EEPROM_XMC4\e_eeprom_xmc4.c ****       {
 217:E:/NOVA/Assets/IFX_P2G-HW-SW_V1.0.4/Firmware_Software/DAVE project/P2G_FW/Dave/Generated/E_EEPROM_XMC4\e_eeprom_xmc4.c ****   
 218:E:/NOVA/Assets/IFX_P2G-HW-SW_V1.0.4/Firmware_Software/DAVE project/P2G_FW/Dave/Generated/E_EEPROM_XMC4\e_eeprom_xmc4.c ****         /* If a valid latest block were not detected, we shall assume that all sectors may be empty
 219:E:/NOVA/Assets/IFX_P2G-HW-SW_V1.0.4/Firmware_Software/DAVE project/P2G_FW/Dave/Generated/E_EEPROM_XMC4\e_eeprom_xmc4.c ****          * Then make Sector-0 as current sector and next free address as Sector0 start address
 220:E:/NOVA/Assets/IFX_P2G-HW-SW_V1.0.4/Firmware_Software/DAVE project/P2G_FW/Dave/Generated/E_EEPROM_XMC4\e_eeprom_xmc4.c ****          */
 221:E:/NOVA/Assets/IFX_P2G-HW-SW_V1.0.4/Firmware_Software/DAVE project/P2G_FW/Dave/Generated/E_EEPROM_XMC4\e_eeprom_xmc4.c ****         if (e_eeprom_xmc4_sector_info.flash_data_addr == E_EEPROM_XMC4_EMPTY)
 222:E:/NOVA/Assets/IFX_P2G-HW-SW_V1.0.4/Firmware_Software/DAVE project/P2G_FW/Dave/Generated/E_EEPROM_XMC4\e_eeprom_xmc4.c ****         {
 223:E:/NOVA/Assets/IFX_P2G-HW-SW_V1.0.4/Firmware_Software/DAVE project/P2G_FW/Dave/Generated/E_EEPROM_XMC4\e_eeprom_xmc4.c ****           e_eeprom_xmc4_sector_info.current_sector = E_EEPROM_XMC4_SECTOR_0;
 224:E:/NOVA/Assets/IFX_P2G-HW-SW_V1.0.4/Firmware_Software/DAVE project/P2G_FW/Dave/Generated/E_EEPROM_XMC4\e_eeprom_xmc4.c ****           e_eeprom_xmc4_sector_info.next_free_start_addr =  E_EEPROM_XMC4_SECTOR0_START_ADDR;
 225:E:/NOVA/Assets/IFX_P2G-HW-SW_V1.0.4/Firmware_Software/DAVE project/P2G_FW/Dave/Generated/E_EEPROM_XMC4\e_eeprom_xmc4.c ****         }
 226:E:/NOVA/Assets/IFX_P2G-HW-SW_V1.0.4/Firmware_Software/DAVE project/P2G_FW/Dave/Generated/E_EEPROM_XMC4\e_eeprom_xmc4.c ****         else
 227:E:/NOVA/Assets/IFX_P2G-HW-SW_V1.0.4/Firmware_Software/DAVE project/P2G_FW/Dave/Generated/E_EEPROM_XMC4\e_eeprom_xmc4.c ****         {
 228:E:/NOVA/Assets/IFX_P2G-HW-SW_V1.0.4/Firmware_Software/DAVE project/P2G_FW/Dave/Generated/E_EEPROM_XMC4\e_eeprom_xmc4.c ****           /* If a valid latest block was detected, copy the valid block from flash to RAM. */
 229:E:/NOVA/Assets/IFX_P2G-HW-SW_V1.0.4/Firmware_Software/DAVE project/P2G_FW/Dave/Generated/E_EEPROM_XMC4\e_eeprom_xmc4.c ****           E_EEPROM_XMC4_lCopyFlashToRam();
 230:E:/NOVA/Assets/IFX_P2G-HW-SW_V1.0.4/Firmware_Software/DAVE project/P2G_FW/Dave/Generated/E_EEPROM_XMC4\e_eeprom_xmc4.c ****   
 231:E:/NOVA/Assets/IFX_P2G-HW-SW_V1.0.4/Firmware_Software/DAVE project/P2G_FW/Dave/Generated/E_EEPROM_XMC4\e_eeprom_xmc4.c ****           if ((e_eeprom_xmc4_sector_info.next_free_start_addr - e_eeprom_xmc4_sector_info.flash_dat
 232:E:/NOVA/Assets/IFX_P2G-HW-SW_V1.0.4/Firmware_Software/DAVE project/P2G_FW/Dave/Generated/E_EEPROM_XMC4\e_eeprom_xmc4.c ****               E_EEPROM_XMC4_ACTUAL_FLASH_BLOCK_SIZE)
 233:E:/NOVA/Assets/IFX_P2G-HW-SW_V1.0.4/Firmware_Software/DAVE project/P2G_FW/Dave/Generated/E_EEPROM_XMC4\e_eeprom_xmc4.c ****           {
 234:E:/NOVA/Assets/IFX_P2G-HW-SW_V1.0.4/Firmware_Software/DAVE project/P2G_FW/Dave/Generated/E_EEPROM_XMC4\e_eeprom_xmc4.c ****             status = E_EEPROM_XMC4_STATUS_ERROR_OLD_DATA;
 235:E:/NOVA/Assets/IFX_P2G-HW-SW_V1.0.4/Firmware_Software/DAVE project/P2G_FW/Dave/Generated/E_EEPROM_XMC4\e_eeprom_xmc4.c ****           }
 236:E:/NOVA/Assets/IFX_P2G-HW-SW_V1.0.4/Firmware_Software/DAVE project/P2G_FW/Dave/Generated/E_EEPROM_XMC4\e_eeprom_xmc4.c ****   
 237:E:/NOVA/Assets/IFX_P2G-HW-SW_V1.0.4/Firmware_Software/DAVE project/P2G_FW/Dave/Generated/E_EEPROM_XMC4\e_eeprom_xmc4.c ****           if (e_eeprom_xmc4_sector_info.next_free_start_addr >= E_EEPROM_XMC4_SECTOR4_START_ADDR)
 238:E:/NOVA/Assets/IFX_P2G-HW-SW_V1.0.4/Firmware_Software/DAVE project/P2G_FW/Dave/Generated/E_EEPROM_XMC4\e_eeprom_xmc4.c ****           {
 239:E:/NOVA/Assets/IFX_P2G-HW-SW_V1.0.4/Firmware_Software/DAVE project/P2G_FW/Dave/Generated/E_EEPROM_XMC4\e_eeprom_xmc4.c ****             e_eeprom_xmc4_sector_info.next_free_start_addr =  E_EEPROM_XMC4_SECTOR0_START_ADDR;
 240:E:/NOVA/Assets/IFX_P2G-HW-SW_V1.0.4/Firmware_Software/DAVE project/P2G_FW/Dave/Generated/E_EEPROM_XMC4\e_eeprom_xmc4.c ****           }
 241:E:/NOVA/Assets/IFX_P2G-HW-SW_V1.0.4/Firmware_Software/DAVE project/P2G_FW/Dave/Generated/E_EEPROM_XMC4\e_eeprom_xmc4.c ****   
 242:E:/NOVA/Assets/IFX_P2G-HW-SW_V1.0.4/Firmware_Software/DAVE project/P2G_FW/Dave/Generated/E_EEPROM_XMC4\e_eeprom_xmc4.c ****         }
 243:E:/NOVA/Assets/IFX_P2G-HW-SW_V1.0.4/Firmware_Software/DAVE project/P2G_FW/Dave/Generated/E_EEPROM_XMC4\e_eeprom_xmc4.c ****       }
 244:E:/NOVA/Assets/IFX_P2G-HW-SW_V1.0.4/Firmware_Software/DAVE project/P2G_FW/Dave/Generated/E_EEPROM_XMC4\e_eeprom_xmc4.c ****     }
 245:E:/NOVA/Assets/IFX_P2G-HW-SW_V1.0.4/Firmware_Software/DAVE project/P2G_FW/Dave/Generated/E_EEPROM_XMC4\e_eeprom_xmc4.c **** 
 246:E:/NOVA/Assets/IFX_P2G-HW-SW_V1.0.4/Firmware_Software/DAVE project/P2G_FW/Dave/Generated/E_EEPROM_XMC4\e_eeprom_xmc4.c ****     XMC_FLASH_EnableDoubleBitErrorTrap();
 247:E:/NOVA/Assets/IFX_P2G-HW-SW_V1.0.4/Firmware_Software/DAVE project/P2G_FW/Dave/Generated/E_EEPROM_XMC4\e_eeprom_xmc4.c **** 
 248:E:/NOVA/Assets/IFX_P2G-HW-SW_V1.0.4/Firmware_Software/DAVE project/P2G_FW/Dave/Generated/E_EEPROM_XMC4\e_eeprom_xmc4.c ****     handle->initialized = (bool)true;
 249:E:/NOVA/Assets/IFX_P2G-HW-SW_V1.0.4/Firmware_Software/DAVE project/P2G_FW/Dave/Generated/E_EEPROM_XMC4\e_eeprom_xmc4.c ****   }
 250:E:/NOVA/Assets/IFX_P2G-HW-SW_V1.0.4/Firmware_Software/DAVE project/P2G_FW/Dave/Generated/E_EEPROM_XMC4\e_eeprom_xmc4.c **** 
 251:E:/NOVA/Assets/IFX_P2G-HW-SW_V1.0.4/Firmware_Software/DAVE project/P2G_FW/Dave/Generated/E_EEPROM_XMC4\e_eeprom_xmc4.c ****   return (status);
 252:E:/NOVA/Assets/IFX_P2G-HW-SW_V1.0.4/Firmware_Software/DAVE project/P2G_FW/Dave/Generated/E_EEPROM_XMC4\e_eeprom_xmc4.c **** }
  91              	 .loc 1 252 0
  92 000c 05B0     	 add sp,sp,#20
  93              	.LCFI4:
  94              	 .cfi_remember_state
  95              	 .cfi_def_cfa_offset 36
  96              	 
  97 000e BDE8F08F 	 pop {r4,r5,r6,r7,r8,r9,r10,fp,pc}
  98              	.LVL3:
  99              	.L57:
 100              	.LCFI5:
 101              	 .cfi_restore_state
 185:E:/NOVA/Assets/IFX_P2G-HW-SW_V1.0.4/Firmware_Software/DAVE project/P2G_FW/Dave/Generated/E_EEPROM_XMC4\e_eeprom_xmc4.c ****     e_eeprom_xmc4_sector_info.flash_data_addr = E_EEPROM_XMC4_EMPTY;
 102              	 .loc 1 185 0
 103 0012 7A4B     	 ldr r3,.L63
 186:E:/NOVA/Assets/IFX_P2G-HW-SW_V1.0.4/Firmware_Software/DAVE project/P2G_FW/Dave/Generated/E_EEPROM_XMC4\e_eeprom_xmc4.c ****   
 104              	 .loc 1 186 0
 105 0014 DFF8F481 	 ldr r8,.L63+16
 106              	.LBB40:
 107              	.LBB41:
 108              	 .file 2 "E:/NOVA/Assets/IFX_P2G-HW-SW_V1.0.4/Firmware_Software/DAVE project/P2G_FMCW/Libraries/XMCLib/inc/xmc4_flash.h"
   1:E:/NOVA/Assets/IFX_P2G-HW-SW_V1.0.4/Firmware_Software/DAVE project/P2G_FMCW/Libraries/XMCLib/inc\xmc4_flash.h **** /**
   2:E:/NOVA/Assets/IFX_P2G-HW-SW_V1.0.4/Firmware_Software/DAVE project/P2G_FMCW/Libraries/XMCLib/inc\xmc4_flash.h ****  * @file xmc4_flash.h
   3:E:/NOVA/Assets/IFX_P2G-HW-SW_V1.0.4/Firmware_Software/DAVE project/P2G_FMCW/Libraries/XMCLib/inc\xmc4_flash.h ****  * @date 2016-03-22
   4:E:/NOVA/Assets/IFX_P2G-HW-SW_V1.0.4/Firmware_Software/DAVE project/P2G_FMCW/Libraries/XMCLib/inc\xmc4_flash.h ****  *
   5:E:/NOVA/Assets/IFX_P2G-HW-SW_V1.0.4/Firmware_Software/DAVE project/P2G_FMCW/Libraries/XMCLib/inc\xmc4_flash.h ****  * @cond
   6:E:/NOVA/Assets/IFX_P2G-HW-SW_V1.0.4/Firmware_Software/DAVE project/P2G_FMCW/Libraries/XMCLib/inc\xmc4_flash.h ****  **************************************************************************************************
   7:E:/NOVA/Assets/IFX_P2G-HW-SW_V1.0.4/Firmware_Software/DAVE project/P2G_FMCW/Libraries/XMCLib/inc\xmc4_flash.h ****  * XMClib v2.1.14 - XMC Peripheral Driver Library 
   8:E:/NOVA/Assets/IFX_P2G-HW-SW_V1.0.4/Firmware_Software/DAVE project/P2G_FMCW/Libraries/XMCLib/inc\xmc4_flash.h ****  *
   9:E:/NOVA/Assets/IFX_P2G-HW-SW_V1.0.4/Firmware_Software/DAVE project/P2G_FMCW/Libraries/XMCLib/inc\xmc4_flash.h ****  * Copyright (c) 2015-2017, Infineon Technologies AG
  10:E:/NOVA/Assets/IFX_P2G-HW-SW_V1.0.4/Firmware_Software/DAVE project/P2G_FMCW/Libraries/XMCLib/inc\xmc4_flash.h ****  * All rights reserved.                        
  11:E:/NOVA/Assets/IFX_P2G-HW-SW_V1.0.4/Firmware_Software/DAVE project/P2G_FMCW/Libraries/XMCLib/inc\xmc4_flash.h ****  *                                             
  12:E:/NOVA/Assets/IFX_P2G-HW-SW_V1.0.4/Firmware_Software/DAVE project/P2G_FMCW/Libraries/XMCLib/inc\xmc4_flash.h ****  * Redistribution and use in source and binary forms, with or without modification,are permitted pr
  13:E:/NOVA/Assets/IFX_P2G-HW-SW_V1.0.4/Firmware_Software/DAVE project/P2G_FMCW/Libraries/XMCLib/inc\xmc4_flash.h ****  * following conditions are met:   
  14:E:/NOVA/Assets/IFX_P2G-HW-SW_V1.0.4/Firmware_Software/DAVE project/P2G_FMCW/Libraries/XMCLib/inc\xmc4_flash.h ****  *                                                                              
  15:E:/NOVA/Assets/IFX_P2G-HW-SW_V1.0.4/Firmware_Software/DAVE project/P2G_FMCW/Libraries/XMCLib/inc\xmc4_flash.h ****  * Redistributions of source code must retain the above copyright notice, this list of conditions a
  16:E:/NOVA/Assets/IFX_P2G-HW-SW_V1.0.4/Firmware_Software/DAVE project/P2G_FMCW/Libraries/XMCLib/inc\xmc4_flash.h ****  * disclaimer.                        
  17:E:/NOVA/Assets/IFX_P2G-HW-SW_V1.0.4/Firmware_Software/DAVE project/P2G_FMCW/Libraries/XMCLib/inc\xmc4_flash.h ****  * 
  18:E:/NOVA/Assets/IFX_P2G-HW-SW_V1.0.4/Firmware_Software/DAVE project/P2G_FMCW/Libraries/XMCLib/inc\xmc4_flash.h ****  * Redistributions in binary form must reproduce the above copyright notice, this list of condition
  19:E:/NOVA/Assets/IFX_P2G-HW-SW_V1.0.4/Firmware_Software/DAVE project/P2G_FMCW/Libraries/XMCLib/inc\xmc4_flash.h ****  * disclaimer in the documentation and/or other materials provided with the distribution.          
  20:E:/NOVA/Assets/IFX_P2G-HW-SW_V1.0.4/Firmware_Software/DAVE project/P2G_FMCW/Libraries/XMCLib/inc\xmc4_flash.h ****  * 
  21:E:/NOVA/Assets/IFX_P2G-HW-SW_V1.0.4/Firmware_Software/DAVE project/P2G_FMCW/Libraries/XMCLib/inc\xmc4_flash.h ****  * Neither the name of the copyright holders nor the names of its contributors may be used to endor
  22:E:/NOVA/Assets/IFX_P2G-HW-SW_V1.0.4/Firmware_Software/DAVE project/P2G_FMCW/Libraries/XMCLib/inc\xmc4_flash.h ****  * products derived from this software without specific prior written permission.                  
  23:E:/NOVA/Assets/IFX_P2G-HW-SW_V1.0.4/Firmware_Software/DAVE project/P2G_FMCW/Libraries/XMCLib/inc\xmc4_flash.h ****  *                                                                              
  24:E:/NOVA/Assets/IFX_P2G-HW-SW_V1.0.4/Firmware_Software/DAVE project/P2G_FMCW/Libraries/XMCLib/inc\xmc4_flash.h ****  * THIS SOFTWARE IS PROVIDED BY THE COPYRIGHT HOLDERS AND CONTRIBUTORS "AS IS" AND ANY EXPRESS OR I
  25:E:/NOVA/Assets/IFX_P2G-HW-SW_V1.0.4/Firmware_Software/DAVE project/P2G_FMCW/Libraries/XMCLib/inc\xmc4_flash.h ****  * INCLUDING, BUT NOT LIMITED TO, THE IMPLIED WARRANTIES OF MERCHANTABILITY AND FITNESS FOR A PARTI
  26:E:/NOVA/Assets/IFX_P2G-HW-SW_V1.0.4/Firmware_Software/DAVE project/P2G_FMCW/Libraries/XMCLib/inc\xmc4_flash.h ****  * DISCLAIMED. IN NO EVENT SHALL THE COPYRIGHT HOLDER OR CONTRIBUTORS BE LIABLE  FOR ANY DIRECT, IN
  27:E:/NOVA/Assets/IFX_P2G-HW-SW_V1.0.4/Firmware_Software/DAVE project/P2G_FMCW/Libraries/XMCLib/inc\xmc4_flash.h ****  * SPECIAL, EXEMPLARY, OR CONSEQUENTIAL DAMAGES (INCLUDING, BUT NOT LIMITED TO, PROCUREMENT OF SUBS
  28:E:/NOVA/Assets/IFX_P2G-HW-SW_V1.0.4/Firmware_Software/DAVE project/P2G_FMCW/Libraries/XMCLib/inc\xmc4_flash.h ****  * SERVICES; LOSS OF USE, DATA, OR PROFITS; OR BUSINESS INTERRUPTION) HOWEVER CAUSED AND ON ANY THE
  29:E:/NOVA/Assets/IFX_P2G-HW-SW_V1.0.4/Firmware_Software/DAVE project/P2G_FMCW/Libraries/XMCLib/inc\xmc4_flash.h ****  * WHETHER IN CONTRACT, STRICT LIABILITY,OR TORT (INCLUDING NEGLIGENCE OR OTHERWISE) ARISING IN ANY
  30:E:/NOVA/Assets/IFX_P2G-HW-SW_V1.0.4/Firmware_Software/DAVE project/P2G_FMCW/Libraries/XMCLib/inc\xmc4_flash.h ****  * OF THIS SOFTWARE, EVEN IF ADVISED OF THE POSSIBILITY OF SUCH DAMAGE.                            
  31:E:/NOVA/Assets/IFX_P2G-HW-SW_V1.0.4/Firmware_Software/DAVE project/P2G_FMCW/Libraries/XMCLib/inc\xmc4_flash.h ****  *                                                                              
  32:E:/NOVA/Assets/IFX_P2G-HW-SW_V1.0.4/Firmware_Software/DAVE project/P2G_FMCW/Libraries/XMCLib/inc\xmc4_flash.h ****  * To improve the quality of the software, users are encouraged to share modifications, enhancement
  33:E:/NOVA/Assets/IFX_P2G-HW-SW_V1.0.4/Firmware_Software/DAVE project/P2G_FMCW/Libraries/XMCLib/inc\xmc4_flash.h ****  * Infineon Technologies AG dave@infineon.com).                                                    
  34:E:/NOVA/Assets/IFX_P2G-HW-SW_V1.0.4/Firmware_Software/DAVE project/P2G_FMCW/Libraries/XMCLib/inc\xmc4_flash.h ****  **************************************************************************************************
  35:E:/NOVA/Assets/IFX_P2G-HW-SW_V1.0.4/Firmware_Software/DAVE project/P2G_FMCW/Libraries/XMCLib/inc\xmc4_flash.h ****  *
  36:E:/NOVA/Assets/IFX_P2G-HW-SW_V1.0.4/Firmware_Software/DAVE project/P2G_FMCW/Libraries/XMCLib/inc\xmc4_flash.h ****  * Change History
  37:E:/NOVA/Assets/IFX_P2G-HW-SW_V1.0.4/Firmware_Software/DAVE project/P2G_FMCW/Libraries/XMCLib/inc\xmc4_flash.h ****  * --------------
  38:E:/NOVA/Assets/IFX_P2G-HW-SW_V1.0.4/Firmware_Software/DAVE project/P2G_FMCW/Libraries/XMCLib/inc\xmc4_flash.h ****  *
  39:E:/NOVA/Assets/IFX_P2G-HW-SW_V1.0.4/Firmware_Software/DAVE project/P2G_FMCW/Libraries/XMCLib/inc\xmc4_flash.h ****  * 2014-12-10:
  40:E:/NOVA/Assets/IFX_P2G-HW-SW_V1.0.4/Firmware_Software/DAVE project/P2G_FMCW/Libraries/XMCLib/inc\xmc4_flash.h ****  *     - Initial <br>
  41:E:/NOVA/Assets/IFX_P2G-HW-SW_V1.0.4/Firmware_Software/DAVE project/P2G_FMCW/Libraries/XMCLib/inc\xmc4_flash.h ****  * 2015-02-20:
  42:E:/NOVA/Assets/IFX_P2G-HW-SW_V1.0.4/Firmware_Software/DAVE project/P2G_FMCW/Libraries/XMCLib/inc\xmc4_flash.h ****  *     - Updated for Documentation related changes<br>
  43:E:/NOVA/Assets/IFX_P2G-HW-SW_V1.0.4/Firmware_Software/DAVE project/P2G_FMCW/Libraries/XMCLib/inc\xmc4_flash.h ****  * 2015-06-20: 
  44:E:/NOVA/Assets/IFX_P2G-HW-SW_V1.0.4/Firmware_Software/DAVE project/P2G_FMCW/Libraries/XMCLib/inc\xmc4_flash.h ****  *     - Removed version macros and declaration of GetDriverVersion API 
  45:E:/NOVA/Assets/IFX_P2G-HW-SW_V1.0.4/Firmware_Software/DAVE project/P2G_FMCW/Libraries/XMCLib/inc\xmc4_flash.h ****  * 2015-08-17: 
  46:E:/NOVA/Assets/IFX_P2G-HW-SW_V1.0.4/Firmware_Software/DAVE project/P2G_FMCW/Libraries/XMCLib/inc\xmc4_flash.h ****  *     - Added the below API's to the public interface.
  47:E:/NOVA/Assets/IFX_P2G-HW-SW_V1.0.4/Firmware_Software/DAVE project/P2G_FMCW/Libraries/XMCLib/inc\xmc4_flash.h ****  *       1. XMC_FLASH_Reset
  48:E:/NOVA/Assets/IFX_P2G-HW-SW_V1.0.4/Firmware_Software/DAVE project/P2G_FMCW/Libraries/XMCLib/inc\xmc4_flash.h ****  *       2. XMC_FLASH_ErasePhysicalSector
  49:E:/NOVA/Assets/IFX_P2G-HW-SW_V1.0.4/Firmware_Software/DAVE project/P2G_FMCW/Libraries/XMCLib/inc\xmc4_flash.h ****  *       3. XMC_FLASH_EraseUCB
  50:E:/NOVA/Assets/IFX_P2G-HW-SW_V1.0.4/Firmware_Software/DAVE project/P2G_FMCW/Libraries/XMCLib/inc\xmc4_flash.h ****  *       4. XMC_FLASH_ResumeProtection
  51:E:/NOVA/Assets/IFX_P2G-HW-SW_V1.0.4/Firmware_Software/DAVE project/P2G_FMCW/Libraries/XMCLib/inc\xmc4_flash.h ****  *       5. XMC_FLASH_RepairPhysicalSector 
  52:E:/NOVA/Assets/IFX_P2G-HW-SW_V1.0.4/Firmware_Software/DAVE project/P2G_FMCW/Libraries/XMCLib/inc\xmc4_flash.h ****  *     - Added support for XMC4800/4700 devices
  53:E:/NOVA/Assets/IFX_P2G-HW-SW_V1.0.4/Firmware_Software/DAVE project/P2G_FMCW/Libraries/XMCLib/inc\xmc4_flash.h ****  * 2015-12-07:
  54:E:/NOVA/Assets/IFX_P2G-HW-SW_V1.0.4/Firmware_Software/DAVE project/P2G_FMCW/Libraries/XMCLib/inc\xmc4_flash.h ****  *     - Fix XMC_FLASH_READ_ACCESS_TIME for XMC43, 47 and 48 devices
  55:E:/NOVA/Assets/IFX_P2G-HW-SW_V1.0.4/Firmware_Software/DAVE project/P2G_FMCW/Libraries/XMCLib/inc\xmc4_flash.h ****  * 2016-03-18:
  56:E:/NOVA/Assets/IFX_P2G-HW-SW_V1.0.4/Firmware_Software/DAVE project/P2G_FMCW/Libraries/XMCLib/inc\xmc4_flash.h ****  *     - Fix implementation of XMC_PREFETCH_EnableInstructionBuffer and XMC_PREFETCH_DisableInstruc
  57:E:/NOVA/Assets/IFX_P2G-HW-SW_V1.0.4/Firmware_Software/DAVE project/P2G_FMCW/Libraries/XMCLib/inc\xmc4_flash.h ****  * 2016-03-22:
  58:E:/NOVA/Assets/IFX_P2G-HW-SW_V1.0.4/Firmware_Software/DAVE project/P2G_FMCW/Libraries/XMCLib/inc\xmc4_flash.h ****  *     - Fix implementation of XMC_PREFETCH_InvalidateInstructionBuffer
  59:E:/NOVA/Assets/IFX_P2G-HW-SW_V1.0.4/Firmware_Software/DAVE project/P2G_FMCW/Libraries/XMCLib/inc\xmc4_flash.h ****  * @endcond 
  60:E:/NOVA/Assets/IFX_P2G-HW-SW_V1.0.4/Firmware_Software/DAVE project/P2G_FMCW/Libraries/XMCLib/inc\xmc4_flash.h ****  *
  61:E:/NOVA/Assets/IFX_P2G-HW-SW_V1.0.4/Firmware_Software/DAVE project/P2G_FMCW/Libraries/XMCLib/inc\xmc4_flash.h ****  */
  62:E:/NOVA/Assets/IFX_P2G-HW-SW_V1.0.4/Firmware_Software/DAVE project/P2G_FMCW/Libraries/XMCLib/inc\xmc4_flash.h **** 
  63:E:/NOVA/Assets/IFX_P2G-HW-SW_V1.0.4/Firmware_Software/DAVE project/P2G_FMCW/Libraries/XMCLib/inc\xmc4_flash.h **** #ifndef XMC4_FLASH_H
  64:E:/NOVA/Assets/IFX_P2G-HW-SW_V1.0.4/Firmware_Software/DAVE project/P2G_FMCW/Libraries/XMCLib/inc\xmc4_flash.h **** #define XMC4_FLASH_H
  65:E:/NOVA/Assets/IFX_P2G-HW-SW_V1.0.4/Firmware_Software/DAVE project/P2G_FMCW/Libraries/XMCLib/inc\xmc4_flash.h **** 
  66:E:/NOVA/Assets/IFX_P2G-HW-SW_V1.0.4/Firmware_Software/DAVE project/P2G_FMCW/Libraries/XMCLib/inc\xmc4_flash.h **** /**************************************************************************************************
  67:E:/NOVA/Assets/IFX_P2G-HW-SW_V1.0.4/Firmware_Software/DAVE project/P2G_FMCW/Libraries/XMCLib/inc\xmc4_flash.h ****  * HEADER FILES
  68:E:/NOVA/Assets/IFX_P2G-HW-SW_V1.0.4/Firmware_Software/DAVE project/P2G_FMCW/Libraries/XMCLib/inc\xmc4_flash.h ****  **************************************************************************************************
  69:E:/NOVA/Assets/IFX_P2G-HW-SW_V1.0.4/Firmware_Software/DAVE project/P2G_FMCW/Libraries/XMCLib/inc\xmc4_flash.h **** 
  70:E:/NOVA/Assets/IFX_P2G-HW-SW_V1.0.4/Firmware_Software/DAVE project/P2G_FMCW/Libraries/XMCLib/inc\xmc4_flash.h **** #include "xmc_common.h"
  71:E:/NOVA/Assets/IFX_P2G-HW-SW_V1.0.4/Firmware_Software/DAVE project/P2G_FMCW/Libraries/XMCLib/inc\xmc4_flash.h **** 
  72:E:/NOVA/Assets/IFX_P2G-HW-SW_V1.0.4/Firmware_Software/DAVE project/P2G_FMCW/Libraries/XMCLib/inc\xmc4_flash.h **** #if UC_FAMILY == XMC4
  73:E:/NOVA/Assets/IFX_P2G-HW-SW_V1.0.4/Firmware_Software/DAVE project/P2G_FMCW/Libraries/XMCLib/inc\xmc4_flash.h **** 
  74:E:/NOVA/Assets/IFX_P2G-HW-SW_V1.0.4/Firmware_Software/DAVE project/P2G_FMCW/Libraries/XMCLib/inc\xmc4_flash.h **** /**
  75:E:/NOVA/Assets/IFX_P2G-HW-SW_V1.0.4/Firmware_Software/DAVE project/P2G_FMCW/Libraries/XMCLib/inc\xmc4_flash.h ****  * @addtogroup XMClib XMC Peripheral Library
  76:E:/NOVA/Assets/IFX_P2G-HW-SW_V1.0.4/Firmware_Software/DAVE project/P2G_FMCW/Libraries/XMCLib/inc\xmc4_flash.h ****  * @{
  77:E:/NOVA/Assets/IFX_P2G-HW-SW_V1.0.4/Firmware_Software/DAVE project/P2G_FMCW/Libraries/XMCLib/inc\xmc4_flash.h ****  */
  78:E:/NOVA/Assets/IFX_P2G-HW-SW_V1.0.4/Firmware_Software/DAVE project/P2G_FMCW/Libraries/XMCLib/inc\xmc4_flash.h **** 
  79:E:/NOVA/Assets/IFX_P2G-HW-SW_V1.0.4/Firmware_Software/DAVE project/P2G_FMCW/Libraries/XMCLib/inc\xmc4_flash.h **** /**
  80:E:/NOVA/Assets/IFX_P2G-HW-SW_V1.0.4/Firmware_Software/DAVE project/P2G_FMCW/Libraries/XMCLib/inc\xmc4_flash.h ****  * @addtogroup FLASH
  81:E:/NOVA/Assets/IFX_P2G-HW-SW_V1.0.4/Firmware_Software/DAVE project/P2G_FMCW/Libraries/XMCLib/inc\xmc4_flash.h ****  * @{
  82:E:/NOVA/Assets/IFX_P2G-HW-SW_V1.0.4/Firmware_Software/DAVE project/P2G_FMCW/Libraries/XMCLib/inc\xmc4_flash.h ****  */
  83:E:/NOVA/Assets/IFX_P2G-HW-SW_V1.0.4/Firmware_Software/DAVE project/P2G_FMCW/Libraries/XMCLib/inc\xmc4_flash.h **** 
  84:E:/NOVA/Assets/IFX_P2G-HW-SW_V1.0.4/Firmware_Software/DAVE project/P2G_FMCW/Libraries/XMCLib/inc\xmc4_flash.h **** /**************************************************************************************************
  85:E:/NOVA/Assets/IFX_P2G-HW-SW_V1.0.4/Firmware_Software/DAVE project/P2G_FMCW/Libraries/XMCLib/inc\xmc4_flash.h ****  * MACROS
  86:E:/NOVA/Assets/IFX_P2G-HW-SW_V1.0.4/Firmware_Software/DAVE project/P2G_FMCW/Libraries/XMCLib/inc\xmc4_flash.h ****  **************************************************************************************************
  87:E:/NOVA/Assets/IFX_P2G-HW-SW_V1.0.4/Firmware_Software/DAVE project/P2G_FMCW/Libraries/XMCLib/inc\xmc4_flash.h **** #define XMC_FLASH_UNCACHED_BASE    (0x0C000000U) /**< Non cached flash starting address of for
  88:E:/NOVA/Assets/IFX_P2G-HW-SW_V1.0.4/Firmware_Software/DAVE project/P2G_FMCW/Libraries/XMCLib/inc\xmc4_flash.h ****                                                       XMC4 family of microcontrollers */
  89:E:/NOVA/Assets/IFX_P2G-HW-SW_V1.0.4/Firmware_Software/DAVE project/P2G_FMCW/Libraries/XMCLib/inc\xmc4_flash.h **** #define XMC_FLASH_WORDS_PER_PAGE   (64UL)        /**< Number of words in a page (256 bytes / 4 byte
  90:E:/NOVA/Assets/IFX_P2G-HW-SW_V1.0.4/Firmware_Software/DAVE project/P2G_FMCW/Libraries/XMCLib/inc\xmc4_flash.h **** #define XMC_FLASH_BYTES_PER_PAGE   (256UL)       /**< Number of bytes in a  page*/
  91:E:/NOVA/Assets/IFX_P2G-HW-SW_V1.0.4/Firmware_Software/DAVE project/P2G_FMCW/Libraries/XMCLib/inc\xmc4_flash.h **** 
  92:E:/NOVA/Assets/IFX_P2G-HW-SW_V1.0.4/Firmware_Software/DAVE project/P2G_FMCW/Libraries/XMCLib/inc\xmc4_flash.h **** #define XMC_FLASH_UCB0             (uint32_t *)(XMC_FLASH_UNCACHED_BASE + 0x0000UL) /**< Starting a
  93:E:/NOVA/Assets/IFX_P2G-HW-SW_V1.0.4/Firmware_Software/DAVE project/P2G_FMCW/Libraries/XMCLib/inc\xmc4_flash.h ****                                                                                          Configurab
  94:E:/NOVA/Assets/IFX_P2G-HW-SW_V1.0.4/Firmware_Software/DAVE project/P2G_FMCW/Libraries/XMCLib/inc\xmc4_flash.h **** #define XMC_FLASH_UCB1             (uint32_t *)(XMC_FLASH_UNCACHED_BASE + 0x0400UL) /**< Starting a
  95:E:/NOVA/Assets/IFX_P2G-HW-SW_V1.0.4/Firmware_Software/DAVE project/P2G_FMCW/Libraries/XMCLib/inc\xmc4_flash.h ****                                                                                          Configurab
  96:E:/NOVA/Assets/IFX_P2G-HW-SW_V1.0.4/Firmware_Software/DAVE project/P2G_FMCW/Libraries/XMCLib/inc\xmc4_flash.h **** #define XMC_FLASH_UCB2             (uint32_t *)(XMC_FLASH_UNCACHED_BASE + 0x0800UL) /**< Starting a
  97:E:/NOVA/Assets/IFX_P2G-HW-SW_V1.0.4/Firmware_Software/DAVE project/P2G_FMCW/Libraries/XMCLib/inc\xmc4_flash.h ****                                                                                          Configurab
  98:E:/NOVA/Assets/IFX_P2G-HW-SW_V1.0.4/Firmware_Software/DAVE project/P2G_FMCW/Libraries/XMCLib/inc\xmc4_flash.h **** #define XMC_FLASH_BYTES_PER_UCB    (1024UL) /**< Number of bytes in a user configurable block*/
  99:E:/NOVA/Assets/IFX_P2G-HW-SW_V1.0.4/Firmware_Software/DAVE project/P2G_FMCW/Libraries/XMCLib/inc\xmc4_flash.h **** 
 100:E:/NOVA/Assets/IFX_P2G-HW-SW_V1.0.4/Firmware_Software/DAVE project/P2G_FMCW/Libraries/XMCLib/inc\xmc4_flash.h **** /**< Note : Total number of Sectors depends on the flash size of the controller. So while using the
 101:E:/NOVA/Assets/IFX_P2G-HW-SW_V1.0.4/Firmware_Software/DAVE project/P2G_FMCW/Libraries/XMCLib/inc\xmc4_flash.h ****  *          operations ensure that sector is available, other may lead to flash error.
 102:E:/NOVA/Assets/IFX_P2G-HW-SW_V1.0.4/Firmware_Software/DAVE project/P2G_FMCW/Libraries/XMCLib/inc\xmc4_flash.h ****  */
 103:E:/NOVA/Assets/IFX_P2G-HW-SW_V1.0.4/Firmware_Software/DAVE project/P2G_FMCW/Libraries/XMCLib/inc\xmc4_flash.h **** #define XMC_FLASH_SECTOR_0         (uint32_t *)(XMC_FLASH_UNCACHED_BASE + 0x00000UL) /**<Starting a
 104:E:/NOVA/Assets/IFX_P2G-HW-SW_V1.0.4/Firmware_Software/DAVE project/P2G_FMCW/Libraries/XMCLib/inc\xmc4_flash.h **** #define XMC_FLASH_SECTOR_1         (uint32_t *)(XMC_FLASH_UNCACHED_BASE + 0x04000UL) /**<Starting a
 105:E:/NOVA/Assets/IFX_P2G-HW-SW_V1.0.4/Firmware_Software/DAVE project/P2G_FMCW/Libraries/XMCLib/inc\xmc4_flash.h **** #define XMC_FLASH_SECTOR_2         (uint32_t *)(XMC_FLASH_UNCACHED_BASE + 0x08000UL) /**<Starting a
 106:E:/NOVA/Assets/IFX_P2G-HW-SW_V1.0.4/Firmware_Software/DAVE project/P2G_FMCW/Libraries/XMCLib/inc\xmc4_flash.h **** #define XMC_FLASH_SECTOR_3         (uint32_t *)(XMC_FLASH_UNCACHED_BASE + 0x0C000UL) /**<Starting a
 107:E:/NOVA/Assets/IFX_P2G-HW-SW_V1.0.4/Firmware_Software/DAVE project/P2G_FMCW/Libraries/XMCLib/inc\xmc4_flash.h **** #define XMC_FLASH_SECTOR_4         (uint32_t *)(XMC_FLASH_UNCACHED_BASE + 0x10000UL) /**<Starting a
 108:E:/NOVA/Assets/IFX_P2G-HW-SW_V1.0.4/Firmware_Software/DAVE project/P2G_FMCW/Libraries/XMCLib/inc\xmc4_flash.h **** #define XMC_FLASH_SECTOR_5         (uint32_t *)(XMC_FLASH_UNCACHED_BASE + 0x14000UL) /**<Starting a
 109:E:/NOVA/Assets/IFX_P2G-HW-SW_V1.0.4/Firmware_Software/DAVE project/P2G_FMCW/Libraries/XMCLib/inc\xmc4_flash.h **** #define XMC_FLASH_SECTOR_6         (uint32_t *)(XMC_FLASH_UNCACHED_BASE + 0x18000UL) /**<Starting a
 110:E:/NOVA/Assets/IFX_P2G-HW-SW_V1.0.4/Firmware_Software/DAVE project/P2G_FMCW/Libraries/XMCLib/inc\xmc4_flash.h **** #define XMC_FLASH_SECTOR_7         (uint32_t *)(XMC_FLASH_UNCACHED_BASE + 0x1C000UL) /**<Starting a
 111:E:/NOVA/Assets/IFX_P2G-HW-SW_V1.0.4/Firmware_Software/DAVE project/P2G_FMCW/Libraries/XMCLib/inc\xmc4_flash.h **** #define XMC_FLASH_SECTOR_8         (uint32_t *)(XMC_FLASH_UNCACHED_BASE + 0x20000UL) /**<Starting a
 112:E:/NOVA/Assets/IFX_P2G-HW-SW_V1.0.4/Firmware_Software/DAVE project/P2G_FMCW/Libraries/XMCLib/inc\xmc4_flash.h **** #define XMC_FLASH_SECTOR_9         (uint32_t *)(XMC_FLASH_UNCACHED_BASE + 0x40000UL) /**<Starting a
 113:E:/NOVA/Assets/IFX_P2G-HW-SW_V1.0.4/Firmware_Software/DAVE project/P2G_FMCW/Libraries/XMCLib/inc\xmc4_flash.h **** #define XMC_FLASH_SECTOR_10        (uint32_t *)(XMC_FLASH_UNCACHED_BASE + 0x80000UL) /**<Starting a
 114:E:/NOVA/Assets/IFX_P2G-HW-SW_V1.0.4/Firmware_Software/DAVE project/P2G_FMCW/Libraries/XMCLib/inc\xmc4_flash.h **** #define XMC_FLASH_SECTOR_11        (uint32_t *)(XMC_FLASH_UNCACHED_BASE + 0xC0000UL) /**<Starting a
 115:E:/NOVA/Assets/IFX_P2G-HW-SW_V1.0.4/Firmware_Software/DAVE project/P2G_FMCW/Libraries/XMCLib/inc\xmc4_flash.h **** 
 116:E:/NOVA/Assets/IFX_P2G-HW-SW_V1.0.4/Firmware_Software/DAVE project/P2G_FMCW/Libraries/XMCLib/inc\xmc4_flash.h **** #define XMC_FLASH_SECTOR_12        (uint32_t *)(XMC_FLASH_UNCACHED_BASE + 0x100000UL) /**<Starting 
 117:E:/NOVA/Assets/IFX_P2G-HW-SW_V1.0.4/Firmware_Software/DAVE project/P2G_FMCW/Libraries/XMCLib/inc\xmc4_flash.h **** #define XMC_FLASH_SECTOR_13        (uint32_t *)(XMC_FLASH_UNCACHED_BASE + 0x140000UL) /**<Starting 
 118:E:/NOVA/Assets/IFX_P2G-HW-SW_V1.0.4/Firmware_Software/DAVE project/P2G_FMCW/Libraries/XMCLib/inc\xmc4_flash.h **** #define XMC_FLASH_SECTOR_14        (uint32_t *)(XMC_FLASH_UNCACHED_BASE + 0x180000UL) /**<Starting 
 119:E:/NOVA/Assets/IFX_P2G-HW-SW_V1.0.4/Firmware_Software/DAVE project/P2G_FMCW/Libraries/XMCLib/inc\xmc4_flash.h **** #define XMC_FLASH_SECTOR_15        (uint32_t *)(XMC_FLASH_UNCACHED_BASE + 0x1C0000UL) /**<Starting 
 120:E:/NOVA/Assets/IFX_P2G-HW-SW_V1.0.4/Firmware_Software/DAVE project/P2G_FMCW/Libraries/XMCLib/inc\xmc4_flash.h **** 
 121:E:/NOVA/Assets/IFX_P2G-HW-SW_V1.0.4/Firmware_Software/DAVE project/P2G_FMCW/Libraries/XMCLib/inc\xmc4_flash.h **** #define XMC_FLASH_PHY_SECTOR_0     (uint32_t *)(XMC_FLASH_UNCACHED_BASE + 0x00000UL) /**<Starting a
 122:E:/NOVA/Assets/IFX_P2G-HW-SW_V1.0.4/Firmware_Software/DAVE project/P2G_FMCW/Libraries/XMCLib/inc\xmc4_flash.h ****                                                                                          physical s
 123:E:/NOVA/Assets/IFX_P2G-HW-SW_V1.0.4/Firmware_Software/DAVE project/P2G_FMCW/Libraries/XMCLib/inc\xmc4_flash.h **** #define XMC_FLASH_PHY_SECTOR_4     (uint32_t *)(XMC_FLASH_UNCACHED_BASE + 0x10000UL) /**<Starting a
 124:E:/NOVA/Assets/IFX_P2G-HW-SW_V1.0.4/Firmware_Software/DAVE project/P2G_FMCW/Libraries/XMCLib/inc\xmc4_flash.h ****                                                                                          physical s
 125:E:/NOVA/Assets/IFX_P2G-HW-SW_V1.0.4/Firmware_Software/DAVE project/P2G_FMCW/Libraries/XMCLib/inc\xmc4_flash.h **** #define XMC_FLASH_PHY_SECTOR_8     (uint32_t *)(XMC_FLASH_UNCACHED_BASE + 0x20000UL) /**<Starting a
 126:E:/NOVA/Assets/IFX_P2G-HW-SW_V1.0.4/Firmware_Software/DAVE project/P2G_FMCW/Libraries/XMCLib/inc\xmc4_flash.h ****                                                                                          physical s
 127:E:/NOVA/Assets/IFX_P2G-HW-SW_V1.0.4/Firmware_Software/DAVE project/P2G_FMCW/Libraries/XMCLib/inc\xmc4_flash.h **** #define XMC_FLASH_PHY_SECTOR_9     (uint32_t *)(XMC_FLASH_UNCACHED_BASE + 0x40000UL) /**<Starting a
 128:E:/NOVA/Assets/IFX_P2G-HW-SW_V1.0.4/Firmware_Software/DAVE project/P2G_FMCW/Libraries/XMCLib/inc\xmc4_flash.h ****                                                                                          physical s
 129:E:/NOVA/Assets/IFX_P2G-HW-SW_V1.0.4/Firmware_Software/DAVE project/P2G_FMCW/Libraries/XMCLib/inc\xmc4_flash.h **** #define XMC_FLASH_PHY_SECTOR_10    (uint32_t *)(XMC_FLASH_UNCACHED_BASE + 0x80000UL) /**<Starting a
 130:E:/NOVA/Assets/IFX_P2G-HW-SW_V1.0.4/Firmware_Software/DAVE project/P2G_FMCW/Libraries/XMCLib/inc\xmc4_flash.h ****                                                                                          physical s
 131:E:/NOVA/Assets/IFX_P2G-HW-SW_V1.0.4/Firmware_Software/DAVE project/P2G_FMCW/Libraries/XMCLib/inc\xmc4_flash.h **** #define XMC_FLASH_PHY_SECTOR_11    (uint32_t *)(XMC_FLASH_UNCACHED_BASE + 0xC0000UL) /**<Starting a
 132:E:/NOVA/Assets/IFX_P2G-HW-SW_V1.0.4/Firmware_Software/DAVE project/P2G_FMCW/Libraries/XMCLib/inc\xmc4_flash.h ****                                                                                          physical s
 133:E:/NOVA/Assets/IFX_P2G-HW-SW_V1.0.4/Firmware_Software/DAVE project/P2G_FMCW/Libraries/XMCLib/inc\xmc4_flash.h **** #define XMC_FLASH_PHY_SECTOR_12    (uint32_t *)(XMC_FLASH_UNCACHED_BASE + 0x100000UL) /**<Starting 
 134:E:/NOVA/Assets/IFX_P2G-HW-SW_V1.0.4/Firmware_Software/DAVE project/P2G_FMCW/Libraries/XMCLib/inc\xmc4_flash.h ****                                                                                          physical s
 135:E:/NOVA/Assets/IFX_P2G-HW-SW_V1.0.4/Firmware_Software/DAVE project/P2G_FMCW/Libraries/XMCLib/inc\xmc4_flash.h **** #define XMC_FLASH_PHY_SECTOR_13    (uint32_t *)(XMC_FLASH_UNCACHED_BASE + 0x140000UL) /**<Starting 
 136:E:/NOVA/Assets/IFX_P2G-HW-SW_V1.0.4/Firmware_Software/DAVE project/P2G_FMCW/Libraries/XMCLib/inc\xmc4_flash.h ****                                                                                          physical s
 137:E:/NOVA/Assets/IFX_P2G-HW-SW_V1.0.4/Firmware_Software/DAVE project/P2G_FMCW/Libraries/XMCLib/inc\xmc4_flash.h **** #define XMC_FLASH_PHY_SECTOR_14    (uint32_t *)(XMC_FLASH_UNCACHED_BASE + 0x180000UL) /**<Starting 
 138:E:/NOVA/Assets/IFX_P2G-HW-SW_V1.0.4/Firmware_Software/DAVE project/P2G_FMCW/Libraries/XMCLib/inc\xmc4_flash.h ****                                                                                          physical s
 139:E:/NOVA/Assets/IFX_P2G-HW-SW_V1.0.4/Firmware_Software/DAVE project/P2G_FMCW/Libraries/XMCLib/inc\xmc4_flash.h **** #define XMC_FLASH_PHY_SECTOR_15    (uint32_t *)(XMC_FLASH_UNCACHED_BASE + 0x1C0000UL) /**<Starting 
 140:E:/NOVA/Assets/IFX_P2G-HW-SW_V1.0.4/Firmware_Software/DAVE project/P2G_FMCW/Libraries/XMCLib/inc\xmc4_flash.h ****                                                                                          physical s
 141:E:/NOVA/Assets/IFX_P2G-HW-SW_V1.0.4/Firmware_Software/DAVE project/P2G_FMCW/Libraries/XMCLib/inc\xmc4_flash.h **** 
 142:E:/NOVA/Assets/IFX_P2G-HW-SW_V1.0.4/Firmware_Software/DAVE project/P2G_FMCW/Libraries/XMCLib/inc\xmc4_flash.h **** #if UC_SERIES == XMC45 || UC_SERIES == XMC43 || UC_SERIES == XMC47 || UC_SERIES == XMC48
 143:E:/NOVA/Assets/IFX_P2G-HW-SW_V1.0.4/Firmware_Software/DAVE project/P2G_FMCW/Libraries/XMCLib/inc\xmc4_flash.h **** #define XMC_FLASH_READ_ACCESS_TIME (22E-9F) /* Flash read access time  */
 144:E:/NOVA/Assets/IFX_P2G-HW-SW_V1.0.4/Firmware_Software/DAVE project/P2G_FMCW/Libraries/XMCLib/inc\xmc4_flash.h **** #else
 145:E:/NOVA/Assets/IFX_P2G-HW-SW_V1.0.4/Firmware_Software/DAVE project/P2G_FMCW/Libraries/XMCLib/inc\xmc4_flash.h **** #define XMC_FLASH_READ_ACCESS_TIME (20E-9F)
 146:E:/NOVA/Assets/IFX_P2G-HW-SW_V1.0.4/Firmware_Software/DAVE project/P2G_FMCW/Libraries/XMCLib/inc\xmc4_flash.h **** #endif
 147:E:/NOVA/Assets/IFX_P2G-HW-SW_V1.0.4/Firmware_Software/DAVE project/P2G_FMCW/Libraries/XMCLib/inc\xmc4_flash.h **** 
 148:E:/NOVA/Assets/IFX_P2G-HW-SW_V1.0.4/Firmware_Software/DAVE project/P2G_FMCW/Libraries/XMCLib/inc\xmc4_flash.h **** /**************************************************************************************************
 149:E:/NOVA/Assets/IFX_P2G-HW-SW_V1.0.4/Firmware_Software/DAVE project/P2G_FMCW/Libraries/XMCLib/inc\xmc4_flash.h ****  * ENUMS
 150:E:/NOVA/Assets/IFX_P2G-HW-SW_V1.0.4/Firmware_Software/DAVE project/P2G_FMCW/Libraries/XMCLib/inc\xmc4_flash.h ****  **************************************************************************************************
 151:E:/NOVA/Assets/IFX_P2G-HW-SW_V1.0.4/Firmware_Software/DAVE project/P2G_FMCW/Libraries/XMCLib/inc\xmc4_flash.h **** /**
 152:E:/NOVA/Assets/IFX_P2G-HW-SW_V1.0.4/Firmware_Software/DAVE project/P2G_FMCW/Libraries/XMCLib/inc\xmc4_flash.h ****  *  Defines the return status of the API.
 153:E:/NOVA/Assets/IFX_P2G-HW-SW_V1.0.4/Firmware_Software/DAVE project/P2G_FMCW/Libraries/XMCLib/inc\xmc4_flash.h ****  */
 154:E:/NOVA/Assets/IFX_P2G-HW-SW_V1.0.4/Firmware_Software/DAVE project/P2G_FMCW/Libraries/XMCLib/inc\xmc4_flash.h **** typedef enum XMC_FLASH_STATUS
 155:E:/NOVA/Assets/IFX_P2G-HW-SW_V1.0.4/Firmware_Software/DAVE project/P2G_FMCW/Libraries/XMCLib/inc\xmc4_flash.h **** {
 156:E:/NOVA/Assets/IFX_P2G-HW-SW_V1.0.4/Firmware_Software/DAVE project/P2G_FMCW/Libraries/XMCLib/inc\xmc4_flash.h ****   XMC_FLASH_STATUS_OK                               = 0U,                 /**< Operation completed 
 157:E:/NOVA/Assets/IFX_P2G-HW-SW_V1.0.4/Firmware_Software/DAVE project/P2G_FMCW/Libraries/XMCLib/inc\xmc4_flash.h ****   XMC_FLASH_STATUS_BUSY                             = FLASH_FSR_PBUSY_Msk, /**< API cannot proceed 
 158:E:/NOVA/Assets/IFX_P2G-HW-SW_V1.0.4/Firmware_Software/DAVE project/P2G_FMCW/Libraries/XMCLib/inc\xmc4_flash.h ****   XMC_FLASH_STATUS_PROGRAMMING_STATE                = FLASH_FSR_PROG_Msk, /**< Write page is in pro
 159:E:/NOVA/Assets/IFX_P2G-HW-SW_V1.0.4/Firmware_Software/DAVE project/P2G_FMCW/Libraries/XMCLib/inc\xmc4_flash.h ****   XMC_FLASH_STATUS_ERASE_STATE                      = FLASH_FSR_ERASE_Msk, /**< Erase page is in pr
 160:E:/NOVA/Assets/IFX_P2G-HW-SW_V1.0.4/Firmware_Software/DAVE project/P2G_FMCW/Libraries/XMCLib/inc\xmc4_flash.h ****   XMC_FLASH_STATUS_PAGE_MODE                        = FLASH_FSR_PFPAGE_Msk, /**< Flash is in page m
 161:E:/NOVA/Assets/IFX_P2G-HW-SW_V1.0.4/Firmware_Software/DAVE project/P2G_FMCW/Libraries/XMCLib/inc\xmc4_flash.h ****                                                                                  of PFLASH is in us
 162:E:/NOVA/Assets/IFX_P2G-HW-SW_V1.0.4/Firmware_Software/DAVE project/P2G_FMCW/Libraries/XMCLib/inc\xmc4_flash.h ****   XMC_FLASH_STATUS_OPERATION_ERROR                  = FLASH_FSR_PFOPER_Msk, /**< Flash Operation ab
 163:E:/NOVA/Assets/IFX_P2G-HW-SW_V1.0.4/Firmware_Software/DAVE project/P2G_FMCW/Libraries/XMCLib/inc\xmc4_flash.h ****   XMC_FLASH_STATUS_COMMAND_SEQUENCE_ERROR           = FLASH_FSR_SQER_Msk, /**< Improper address or 
 164:E:/NOVA/Assets/IFX_P2G-HW-SW_V1.0.4/Firmware_Software/DAVE project/P2G_FMCW/Libraries/XMCLib/inc\xmc4_flash.h ****                                                                                operation */ 
 165:E:/NOVA/Assets/IFX_P2G-HW-SW_V1.0.4/Firmware_Software/DAVE project/P2G_FMCW/Libraries/XMCLib/inc\xmc4_flash.h ****   XMC_FLASH_STATUS_PROTECTION_ERROR                 = FLASH_FSR_PROER_Msk, /**< Flash operation add
 166:E:/NOVA/Assets/IFX_P2G-HW-SW_V1.0.4/Firmware_Software/DAVE project/P2G_FMCW/Libraries/XMCLib/inc\xmc4_flash.h ****                                                                                 sector */
 167:E:/NOVA/Assets/IFX_P2G-HW-SW_V1.0.4/Firmware_Software/DAVE project/P2G_FMCW/Libraries/XMCLib/inc\xmc4_flash.h ****   XMC_FLASH_STATUS_SINGLE_BIT_ERROR_AND_CORRECTION  = FLASH_FSR_PFSBER_Msk, /**< Single bit error d
 168:E:/NOVA/Assets/IFX_P2G-HW-SW_V1.0.4/Firmware_Software/DAVE project/P2G_FMCW/Libraries/XMCLib/inc\xmc4_flash.h ****                                                                                  corrected */
 169:E:/NOVA/Assets/IFX_P2G-HW-SW_V1.0.4/Firmware_Software/DAVE project/P2G_FMCW/Libraries/XMCLib/inc\xmc4_flash.h ****   XMC_FLASH_STATUS_DOUBLE_BIT_ERROR                 = FLASH_FSR_PFDBER_Msk, /**< Multiple bit error
 170:E:/NOVA/Assets/IFX_P2G-HW-SW_V1.0.4/Firmware_Software/DAVE project/P2G_FMCW/Libraries/XMCLib/inc\xmc4_flash.h ****   XMC_FLASH_STATUS_PROTECTION_INSTALLED             = FLASH_FSR_PROIN_Msk, /**< Confirmation of the
 171:E:/NOVA/Assets/IFX_P2G-HW-SW_V1.0.4/Firmware_Software/DAVE project/P2G_FMCW/Libraries/XMCLib/inc\xmc4_flash.h ****                                                                                 protection is succe
 172:E:/NOVA/Assets/IFX_P2G-HW-SW_V1.0.4/Firmware_Software/DAVE project/P2G_FMCW/Libraries/XMCLib/inc\xmc4_flash.h ****   XMC_FLASH_STATUS_READ_PROTECTION_INSTALLED        = FLASH_FSR_RPROIN_Msk, /**< Confirmation of re
 173:E:/NOVA/Assets/IFX_P2G-HW-SW_V1.0.4/Firmware_Software/DAVE project/P2G_FMCW/Libraries/XMCLib/inc\xmc4_flash.h ****                                                                                  protection is succ
 174:E:/NOVA/Assets/IFX_P2G-HW-SW_V1.0.4/Firmware_Software/DAVE project/P2G_FMCW/Libraries/XMCLib/inc\xmc4_flash.h ****   XMC_FLASH_STATUS_READ_PROTECTION_DISABLED_STATE   = FLASH_FSR_RPRODIS_Msk, /**< Read or/and write
 175:E:/NOVA/Assets/IFX_P2G-HW-SW_V1.0.4/Firmware_Software/DAVE project/P2G_FMCW/Libraries/XMCLib/inc\xmc4_flash.h ****                                                                                   temporarily disab
 176:E:/NOVA/Assets/IFX_P2G-HW-SW_V1.0.4/Firmware_Software/DAVE project/P2G_FMCW/Libraries/XMCLib/inc\xmc4_flash.h ****   XMC_FLASH_STATUS_WRITE_PROTECTION_INSTALLED_UCB0  = FLASH_FSR_WPROIN0_Msk, /**< Sector write prot
 177:E:/NOVA/Assets/IFX_P2G-HW-SW_V1.0.4/Firmware_Software/DAVE project/P2G_FMCW/Libraries/XMCLib/inc\xmc4_flash.h ****                                                                                   for user-0 */
 178:E:/NOVA/Assets/IFX_P2G-HW-SW_V1.0.4/Firmware_Software/DAVE project/P2G_FMCW/Libraries/XMCLib/inc\xmc4_flash.h ****   XMC_FLASH_STATUS_WRITE_PROTECTION_INSTALLED_UCB1  = FLASH_FSR_WPROIN1_Msk, /**< Sector write prot
 179:E:/NOVA/Assets/IFX_P2G-HW-SW_V1.0.4/Firmware_Software/DAVE project/P2G_FMCW/Libraries/XMCLib/inc\xmc4_flash.h ****                                                                                   for user-1 */
 180:E:/NOVA/Assets/IFX_P2G-HW-SW_V1.0.4/Firmware_Software/DAVE project/P2G_FMCW/Libraries/XMCLib/inc\xmc4_flash.h ****   XMC_FLASH_STATUS_WRITE_PROTECTION_INSTALLED_UCB2  = FLASH_FSR_WPROIN2_Msk, /**< Sector OTP protec
 181:E:/NOVA/Assets/IFX_P2G-HW-SW_V1.0.4/Firmware_Software/DAVE project/P2G_FMCW/Libraries/XMCLib/inc\xmc4_flash.h ****                                                                                   for user-2 */
 182:E:/NOVA/Assets/IFX_P2G-HW-SW_V1.0.4/Firmware_Software/DAVE project/P2G_FMCW/Libraries/XMCLib/inc\xmc4_flash.h ****   XMC_FLASH_STATUS_WRITE_PROTECTION_DISABLED_UCB0   = FLASH_FSR_WPRODIS0_Msk, /**< Sector write pro
 183:E:/NOVA/Assets/IFX_P2G-HW-SW_V1.0.4/Firmware_Software/DAVE project/P2G_FMCW/Libraries/XMCLib/inc\xmc4_flash.h ****                                                                                   for user-0 */
 184:E:/NOVA/Assets/IFX_P2G-HW-SW_V1.0.4/Firmware_Software/DAVE project/P2G_FMCW/Libraries/XMCLib/inc\xmc4_flash.h ****   XMC_FLASH_STATUS_WRITE_PROTECTION_DISABLED_UCB1   = FLASH_FSR_WPRODIS1_Msk, /**< Sector write pro
 185:E:/NOVA/Assets/IFX_P2G-HW-SW_V1.0.4/Firmware_Software/DAVE project/P2G_FMCW/Libraries/XMCLib/inc\xmc4_flash.h ****                                                                                   for user-1 */
 186:E:/NOVA/Assets/IFX_P2G-HW-SW_V1.0.4/Firmware_Software/DAVE project/P2G_FMCW/Libraries/XMCLib/inc\xmc4_flash.h ****   XMC_FLASH_STATUS_SLEEP_MODE                       = FLASH_FSR_SLM_Msk, /**< Indicates flash in sl
 187:E:/NOVA/Assets/IFX_P2G-HW-SW_V1.0.4/Firmware_Software/DAVE project/P2G_FMCW/Libraries/XMCLib/inc\xmc4_flash.h ****   XMC_FLASH_STATUS_VERIFY_ERROR                     = (int32_t)FLASH_FSR_VER_Msk, /**< Write verifi
 188:E:/NOVA/Assets/IFX_P2G-HW-SW_V1.0.4/Firmware_Software/DAVE project/P2G_FMCW/Libraries/XMCLib/inc\xmc4_flash.h ****                                                                                        verification
 189:E:/NOVA/Assets/IFX_P2G-HW-SW_V1.0.4/Firmware_Software/DAVE project/P2G_FMCW/Libraries/XMCLib/inc\xmc4_flash.h **** } XMC_FLASH_STATUS_t;
 190:E:/NOVA/Assets/IFX_P2G-HW-SW_V1.0.4/Firmware_Software/DAVE project/P2G_FMCW/Libraries/XMCLib/inc\xmc4_flash.h **** 
 191:E:/NOVA/Assets/IFX_P2G-HW-SW_V1.0.4/Firmware_Software/DAVE project/P2G_FMCW/Libraries/XMCLib/inc\xmc4_flash.h **** /**
 192:E:/NOVA/Assets/IFX_P2G-HW-SW_V1.0.4/Firmware_Software/DAVE project/P2G_FMCW/Libraries/XMCLib/inc\xmc4_flash.h ****  *  Provides the options to select flash margin read settings of the for quality assurance.
 193:E:/NOVA/Assets/IFX_P2G-HW-SW_V1.0.4/Firmware_Software/DAVE project/P2G_FMCW/Libraries/XMCLib/inc\xmc4_flash.h ****  */
 194:E:/NOVA/Assets/IFX_P2G-HW-SW_V1.0.4/Firmware_Software/DAVE project/P2G_FMCW/Libraries/XMCLib/inc\xmc4_flash.h **** typedef enum XMC_FLASH_MARGIN
 195:E:/NOVA/Assets/IFX_P2G-HW-SW_V1.0.4/Firmware_Software/DAVE project/P2G_FMCW/Libraries/XMCLib/inc\xmc4_flash.h **** {
 196:E:/NOVA/Assets/IFX_P2G-HW-SW_V1.0.4/Firmware_Software/DAVE project/P2G_FMCW/Libraries/XMCLib/inc\xmc4_flash.h ****   XMC_FLASH_MARGIN_DEFAULT = 0x0U << FLASH_MARP_MARGIN_Pos, /**< Default margin */ 
 197:E:/NOVA/Assets/IFX_P2G-HW-SW_V1.0.4/Firmware_Software/DAVE project/P2G_FMCW/Libraries/XMCLib/inc\xmc4_flash.h ****   XMC_FLASH_MARGIN_TIGHT0  = 0x1U << FLASH_MARP_MARGIN_Pos, /**< Sub-optimal 0-bits are read as 1s 
 198:E:/NOVA/Assets/IFX_P2G-HW-SW_V1.0.4/Firmware_Software/DAVE project/P2G_FMCW/Libraries/XMCLib/inc\xmc4_flash.h ****   XMC_FLASH_MARGIN_TIGHT1  = 0x4U << FLASH_MARP_MARGIN_Pos  /**< Sub-optimal 1-bits are read as 0s 
 199:E:/NOVA/Assets/IFX_P2G-HW-SW_V1.0.4/Firmware_Software/DAVE project/P2G_FMCW/Libraries/XMCLib/inc\xmc4_flash.h **** } XMC_FLASH_MARGIN_t;
 200:E:/NOVA/Assets/IFX_P2G-HW-SW_V1.0.4/Firmware_Software/DAVE project/P2G_FMCW/Libraries/XMCLib/inc\xmc4_flash.h **** 
 201:E:/NOVA/Assets/IFX_P2G-HW-SW_V1.0.4/Firmware_Software/DAVE project/P2G_FMCW/Libraries/XMCLib/inc\xmc4_flash.h **** /**
 202:E:/NOVA/Assets/IFX_P2G-HW-SW_V1.0.4/Firmware_Software/DAVE project/P2G_FMCW/Libraries/XMCLib/inc\xmc4_flash.h ****  *  Provides the options to select flash operational events
 203:E:/NOVA/Assets/IFX_P2G-HW-SW_V1.0.4/Firmware_Software/DAVE project/P2G_FMCW/Libraries/XMCLib/inc\xmc4_flash.h ****  */
 204:E:/NOVA/Assets/IFX_P2G-HW-SW_V1.0.4/Firmware_Software/DAVE project/P2G_FMCW/Libraries/XMCLib/inc\xmc4_flash.h **** typedef enum XMC_FLASH_EVENT
 205:E:/NOVA/Assets/IFX_P2G-HW-SW_V1.0.4/Firmware_Software/DAVE project/P2G_FMCW/Libraries/XMCLib/inc\xmc4_flash.h **** {
 206:E:/NOVA/Assets/IFX_P2G-HW-SW_V1.0.4/Firmware_Software/DAVE project/P2G_FMCW/Libraries/XMCLib/inc\xmc4_flash.h ****   XMC_FLASH_EVENT_VERIFY_AND_OPERATION_ERROR = 0x01U << FLASH_FCON_VOPERM_Pos, /**< Flash verify an
 207:E:/NOVA/Assets/IFX_P2G-HW-SW_V1.0.4/Firmware_Software/DAVE project/P2G_FMCW/Libraries/XMCLib/inc\xmc4_flash.h ****                                                                                     event */
 208:E:/NOVA/Assets/IFX_P2G-HW-SW_V1.0.4/Firmware_Software/DAVE project/P2G_FMCW/Libraries/XMCLib/inc\xmc4_flash.h ****   XMC_FLASH_EVENT_COMMAND_SEQUENCE_ERROR     = 0x02U << FLASH_FCON_VOPERM_Pos, /**< Flash command s
 209:E:/NOVA/Assets/IFX_P2G-HW-SW_V1.0.4/Firmware_Software/DAVE project/P2G_FMCW/Libraries/XMCLib/inc\xmc4_flash.h ****   XMC_FLASH_EVENT_PROTECTION_ERROR           = 0x04U << FLASH_FCON_VOPERM_Pos, /**< Flash protectio
 210:E:/NOVA/Assets/IFX_P2G-HW-SW_V1.0.4/Firmware_Software/DAVE project/P2G_FMCW/Libraries/XMCLib/inc\xmc4_flash.h ****   XMC_FLASH_EVENT_SINGLE_BIT_ERROR           = 0x08U << FLASH_FCON_VOPERM_Pos, /**< Flash single bi
 211:E:/NOVA/Assets/IFX_P2G-HW-SW_V1.0.4/Firmware_Software/DAVE project/P2G_FMCW/Libraries/XMCLib/inc\xmc4_flash.h ****   XMC_FLASH_EVENT_DOUBLE_BIT_ERROR           = 0x20U << FLASH_FCON_VOPERM_Pos, /**< Flash double bi
 212:E:/NOVA/Assets/IFX_P2G-HW-SW_V1.0.4/Firmware_Software/DAVE project/P2G_FMCW/Libraries/XMCLib/inc\xmc4_flash.h ****   XMC_FLASH_EVENT_END_OF_BUSY                = (int32_t)(0x80U << FLASH_FCON_VOPERM_Pos) /**< Flash
 213:E:/NOVA/Assets/IFX_P2G-HW-SW_V1.0.4/Firmware_Software/DAVE project/P2G_FMCW/Libraries/XMCLib/inc\xmc4_flash.h **** } XMC_FLASH_EVENT_t;
 214:E:/NOVA/Assets/IFX_P2G-HW-SW_V1.0.4/Firmware_Software/DAVE project/P2G_FMCW/Libraries/XMCLib/inc\xmc4_flash.h **** 
 215:E:/NOVA/Assets/IFX_P2G-HW-SW_V1.0.4/Firmware_Software/DAVE project/P2G_FMCW/Libraries/XMCLib/inc\xmc4_flash.h **** /**
 216:E:/NOVA/Assets/IFX_P2G-HW-SW_V1.0.4/Firmware_Software/DAVE project/P2G_FMCW/Libraries/XMCLib/inc\xmc4_flash.h ****  * Provides the options to select sectors for write protection and select global read protection.
 217:E:/NOVA/Assets/IFX_P2G-HW-SW_V1.0.4/Firmware_Software/DAVE project/P2G_FMCW/Libraries/XMCLib/inc\xmc4_flash.h ****  * The members can be combined using 'OR' operator for multiple selection.<br>
 218:E:/NOVA/Assets/IFX_P2G-HW-SW_V1.0.4/Firmware_Software/DAVE project/P2G_FMCW/Libraries/XMCLib/inc\xmc4_flash.h ****  *
 219:E:/NOVA/Assets/IFX_P2G-HW-SW_V1.0.4/Firmware_Software/DAVE project/P2G_FMCW/Libraries/XMCLib/inc\xmc4_flash.h ****  */
 220:E:/NOVA/Assets/IFX_P2G-HW-SW_V1.0.4/Firmware_Software/DAVE project/P2G_FMCW/Libraries/XMCLib/inc\xmc4_flash.h **** typedef enum XMC_FLASH_PROTECTION
 221:E:/NOVA/Assets/IFX_P2G-HW-SW_V1.0.4/Firmware_Software/DAVE project/P2G_FMCW/Libraries/XMCLib/inc\xmc4_flash.h **** {
 222:E:/NOVA/Assets/IFX_P2G-HW-SW_V1.0.4/Firmware_Software/DAVE project/P2G_FMCW/Libraries/XMCLib/inc\xmc4_flash.h ****   XMC_FLASH_PROTECTION_WRITE_SECTOR_0      = 0x0001UL,  /**< Sector 0 write protection */
 223:E:/NOVA/Assets/IFX_P2G-HW-SW_V1.0.4/Firmware_Software/DAVE project/P2G_FMCW/Libraries/XMCLib/inc\xmc4_flash.h ****   XMC_FLASH_PROTECTION_WRITE_SECTOR_1      = 0x0002UL,  /**< Sector 1 write protection */
 224:E:/NOVA/Assets/IFX_P2G-HW-SW_V1.0.4/Firmware_Software/DAVE project/P2G_FMCW/Libraries/XMCLib/inc\xmc4_flash.h ****   XMC_FLASH_PROTECTION_WRITE_SECTOR_2      = 0x0004UL,  /**< Sector 3 write protection */
 225:E:/NOVA/Assets/IFX_P2G-HW-SW_V1.0.4/Firmware_Software/DAVE project/P2G_FMCW/Libraries/XMCLib/inc\xmc4_flash.h ****   XMC_FLASH_PROTECTION_WRITE_SECTOR_3      = 0x0008UL,  /**< Sector 3 write protection */
 226:E:/NOVA/Assets/IFX_P2G-HW-SW_V1.0.4/Firmware_Software/DAVE project/P2G_FMCW/Libraries/XMCLib/inc\xmc4_flash.h ****   XMC_FLASH_PROTECTION_WRITE_SECTOR_4      = 0x0010UL,  /**< Sector 4 write protection */
 227:E:/NOVA/Assets/IFX_P2G-HW-SW_V1.0.4/Firmware_Software/DAVE project/P2G_FMCW/Libraries/XMCLib/inc\xmc4_flash.h ****   XMC_FLASH_PROTECTION_WRITE_SECTOR_5      = 0x0020UL,  /**< Sector 5 write protection */
 228:E:/NOVA/Assets/IFX_P2G-HW-SW_V1.0.4/Firmware_Software/DAVE project/P2G_FMCW/Libraries/XMCLib/inc\xmc4_flash.h ****   XMC_FLASH_PROTECTION_WRITE_SECTOR_6      = 0x0040UL,  /**< Sector 6 write protection */
 229:E:/NOVA/Assets/IFX_P2G-HW-SW_V1.0.4/Firmware_Software/DAVE project/P2G_FMCW/Libraries/XMCLib/inc\xmc4_flash.h ****   XMC_FLASH_PROTECTION_WRITE_SECTOR_7      = 0x0080UL,  /**< Sector 7 write protection */
 230:E:/NOVA/Assets/IFX_P2G-HW-SW_V1.0.4/Firmware_Software/DAVE project/P2G_FMCW/Libraries/XMCLib/inc\xmc4_flash.h ****   XMC_FLASH_PROTECTION_WRITE_SECTOR_8      = 0x0100UL,  /**< Sector 8 write protection */
 231:E:/NOVA/Assets/IFX_P2G-HW-SW_V1.0.4/Firmware_Software/DAVE project/P2G_FMCW/Libraries/XMCLib/inc\xmc4_flash.h ****   XMC_FLASH_PROTECTION_WRITE_SECTOR_9      = 0x0200UL,  /**< Sector 9 write protection */
 232:E:/NOVA/Assets/IFX_P2G-HW-SW_V1.0.4/Firmware_Software/DAVE project/P2G_FMCW/Libraries/XMCLib/inc\xmc4_flash.h ****   XMC_FLASH_PROTECTION_WRITE_SECTORS_10_11 = 0x0400UL,  /**< Sector 10 and 11 write protection */
 233:E:/NOVA/Assets/IFX_P2G-HW-SW_V1.0.4/Firmware_Software/DAVE project/P2G_FMCW/Libraries/XMCLib/inc\xmc4_flash.h ****   XMC_FLASH_PROTECTION_WRITE_SECTORS_12_13 = 0x0800UL,  /**< Sector 12 and 13 write protection */
 234:E:/NOVA/Assets/IFX_P2G-HW-SW_V1.0.4/Firmware_Software/DAVE project/P2G_FMCW/Libraries/XMCLib/inc\xmc4_flash.h ****   XMC_FLASH_PROTECTION_WRITE_SECTORS_14_15 = 0x1000UL,  /**< Sector 14 and 15 write protection */
 235:E:/NOVA/Assets/IFX_P2G-HW-SW_V1.0.4/Firmware_Software/DAVE project/P2G_FMCW/Libraries/XMCLib/inc\xmc4_flash.h ****   XMC_FLASH_PROTECTION_READ_GLOBAL         = 0x8000UL   /**< Global read protection (Applicable for
 236:E:/NOVA/Assets/IFX_P2G-HW-SW_V1.0.4/Firmware_Software/DAVE project/P2G_FMCW/Libraries/XMCLib/inc\xmc4_flash.h **** } XMC_FLASH_PROTECTION_t;
 237:E:/NOVA/Assets/IFX_P2G-HW-SW_V1.0.4/Firmware_Software/DAVE project/P2G_FMCW/Libraries/XMCLib/inc\xmc4_flash.h **** 
 238:E:/NOVA/Assets/IFX_P2G-HW-SW_V1.0.4/Firmware_Software/DAVE project/P2G_FMCW/Libraries/XMCLib/inc\xmc4_flash.h **** /**************************************************************************************************
 239:E:/NOVA/Assets/IFX_P2G-HW-SW_V1.0.4/Firmware_Software/DAVE project/P2G_FMCW/Libraries/XMCLib/inc\xmc4_flash.h ****  * API PROTOTYPES
 240:E:/NOVA/Assets/IFX_P2G-HW-SW_V1.0.4/Firmware_Software/DAVE project/P2G_FMCW/Libraries/XMCLib/inc\xmc4_flash.h ****  **************************************************************************************************
 241:E:/NOVA/Assets/IFX_P2G-HW-SW_V1.0.4/Firmware_Software/DAVE project/P2G_FMCW/Libraries/XMCLib/inc\xmc4_flash.h **** 
 242:E:/NOVA/Assets/IFX_P2G-HW-SW_V1.0.4/Firmware_Software/DAVE project/P2G_FMCW/Libraries/XMCLib/inc\xmc4_flash.h **** #ifdef __cplusplus
 243:E:/NOVA/Assets/IFX_P2G-HW-SW_V1.0.4/Firmware_Software/DAVE project/P2G_FMCW/Libraries/XMCLib/inc\xmc4_flash.h **** extern "C" {
 244:E:/NOVA/Assets/IFX_P2G-HW-SW_V1.0.4/Firmware_Software/DAVE project/P2G_FMCW/Libraries/XMCLib/inc\xmc4_flash.h **** #endif
 245:E:/NOVA/Assets/IFX_P2G-HW-SW_V1.0.4/Firmware_Software/DAVE project/P2G_FMCW/Libraries/XMCLib/inc\xmc4_flash.h **** 
 246:E:/NOVA/Assets/IFX_P2G-HW-SW_V1.0.4/Firmware_Software/DAVE project/P2G_FMCW/Libraries/XMCLib/inc\xmc4_flash.h **** /**
 247:E:/NOVA/Assets/IFX_P2G-HW-SW_V1.0.4/Firmware_Software/DAVE project/P2G_FMCW/Libraries/XMCLib/inc\xmc4_flash.h ****  *
 248:E:/NOVA/Assets/IFX_P2G-HW-SW_V1.0.4/Firmware_Software/DAVE project/P2G_FMCW/Libraries/XMCLib/inc\xmc4_flash.h ****  * @param None
 249:E:/NOVA/Assets/IFX_P2G-HW-SW_V1.0.4/Firmware_Software/DAVE project/P2G_FMCW/Libraries/XMCLib/inc\xmc4_flash.h ****  *
 250:E:/NOVA/Assets/IFX_P2G-HW-SW_V1.0.4/Firmware_Software/DAVE project/P2G_FMCW/Libraries/XMCLib/inc\xmc4_flash.h ****  * @return None
 251:E:/NOVA/Assets/IFX_P2G-HW-SW_V1.0.4/Firmware_Software/DAVE project/P2G_FMCW/Libraries/XMCLib/inc\xmc4_flash.h ****  *
 252:E:/NOVA/Assets/IFX_P2G-HW-SW_V1.0.4/Firmware_Software/DAVE project/P2G_FMCW/Libraries/XMCLib/inc\xmc4_flash.h ****  * \par<b>Description:</b><br>
 253:E:/NOVA/Assets/IFX_P2G-HW-SW_V1.0.4/Firmware_Software/DAVE project/P2G_FMCW/Libraries/XMCLib/inc\xmc4_flash.h ****  * Enables the wait state for error correction.process, It enables one additional wait state for EC
 254:E:/NOVA/Assets/IFX_P2G-HW-SW_V1.0.4/Firmware_Software/DAVE project/P2G_FMCW/Libraries/XMCLib/inc\xmc4_flash.h ****  * bit of FCON register.\n
 255:E:/NOVA/Assets/IFX_P2G-HW-SW_V1.0.4/Firmware_Software/DAVE project/P2G_FMCW/Libraries/XMCLib/inc\xmc4_flash.h ****  *
 256:E:/NOVA/Assets/IFX_P2G-HW-SW_V1.0.4/Firmware_Software/DAVE project/P2G_FMCW/Libraries/XMCLib/inc\xmc4_flash.h ****  * \par<b>Related APIs:</b><BR>
 257:E:/NOVA/Assets/IFX_P2G-HW-SW_V1.0.4/Firmware_Software/DAVE project/P2G_FMCW/Libraries/XMCLib/inc\xmc4_flash.h ****  * XMC_FLASH_DisableWaitStateForECC()\n\n\n
 258:E:/NOVA/Assets/IFX_P2G-HW-SW_V1.0.4/Firmware_Software/DAVE project/P2G_FMCW/Libraries/XMCLib/inc\xmc4_flash.h ****  *
 259:E:/NOVA/Assets/IFX_P2G-HW-SW_V1.0.4/Firmware_Software/DAVE project/P2G_FMCW/Libraries/XMCLib/inc\xmc4_flash.h ****  */
 260:E:/NOVA/Assets/IFX_P2G-HW-SW_V1.0.4/Firmware_Software/DAVE project/P2G_FMCW/Libraries/XMCLib/inc\xmc4_flash.h **** __STATIC_INLINE void XMC_FLASH_EnableWaitStateForECC(void)
 261:E:/NOVA/Assets/IFX_P2G-HW-SW_V1.0.4/Firmware_Software/DAVE project/P2G_FMCW/Libraries/XMCLib/inc\xmc4_flash.h **** {
 262:E:/NOVA/Assets/IFX_P2G-HW-SW_V1.0.4/Firmware_Software/DAVE project/P2G_FMCW/Libraries/XMCLib/inc\xmc4_flash.h ****   FLASH0->FCON |= FLASH_FCON_WSECPF_Msk;
 263:E:/NOVA/Assets/IFX_P2G-HW-SW_V1.0.4/Firmware_Software/DAVE project/P2G_FMCW/Libraries/XMCLib/inc\xmc4_flash.h **** }
 264:E:/NOVA/Assets/IFX_P2G-HW-SW_V1.0.4/Firmware_Software/DAVE project/P2G_FMCW/Libraries/XMCLib/inc\xmc4_flash.h **** 
 265:E:/NOVA/Assets/IFX_P2G-HW-SW_V1.0.4/Firmware_Software/DAVE project/P2G_FMCW/Libraries/XMCLib/inc\xmc4_flash.h **** /**
 266:E:/NOVA/Assets/IFX_P2G-HW-SW_V1.0.4/Firmware_Software/DAVE project/P2G_FMCW/Libraries/XMCLib/inc\xmc4_flash.h ****  *
 267:E:/NOVA/Assets/IFX_P2G-HW-SW_V1.0.4/Firmware_Software/DAVE project/P2G_FMCW/Libraries/XMCLib/inc\xmc4_flash.h ****  * @param None
 268:E:/NOVA/Assets/IFX_P2G-HW-SW_V1.0.4/Firmware_Software/DAVE project/P2G_FMCW/Libraries/XMCLib/inc\xmc4_flash.h ****  *
 269:E:/NOVA/Assets/IFX_P2G-HW-SW_V1.0.4/Firmware_Software/DAVE project/P2G_FMCW/Libraries/XMCLib/inc\xmc4_flash.h ****  * @return None
 270:E:/NOVA/Assets/IFX_P2G-HW-SW_V1.0.4/Firmware_Software/DAVE project/P2G_FMCW/Libraries/XMCLib/inc\xmc4_flash.h ****  *
 271:E:/NOVA/Assets/IFX_P2G-HW-SW_V1.0.4/Firmware_Software/DAVE project/P2G_FMCW/Libraries/XMCLib/inc\xmc4_flash.h ****  * \par<b>Description:</b><br>
 272:E:/NOVA/Assets/IFX_P2G-HW-SW_V1.0.4/Firmware_Software/DAVE project/P2G_FMCW/Libraries/XMCLib/inc\xmc4_flash.h ****  * Disables the wait state for error correction.\n\n Removes additional wait state for ECC by reset
 273:E:/NOVA/Assets/IFX_P2G-HW-SW_V1.0.4/Firmware_Software/DAVE project/P2G_FMCW/Libraries/XMCLib/inc\xmc4_flash.h ****  * FCON register.\n
 274:E:/NOVA/Assets/IFX_P2G-HW-SW_V1.0.4/Firmware_Software/DAVE project/P2G_FMCW/Libraries/XMCLib/inc\xmc4_flash.h ****  *
 275:E:/NOVA/Assets/IFX_P2G-HW-SW_V1.0.4/Firmware_Software/DAVE project/P2G_FMCW/Libraries/XMCLib/inc\xmc4_flash.h ****  * \par<b>Related APIs:</b><BR>
 276:E:/NOVA/Assets/IFX_P2G-HW-SW_V1.0.4/Firmware_Software/DAVE project/P2G_FMCW/Libraries/XMCLib/inc\xmc4_flash.h ****  * XMC_FLASH_EnableWaitStateForECC()\n\n\n
 277:E:/NOVA/Assets/IFX_P2G-HW-SW_V1.0.4/Firmware_Software/DAVE project/P2G_FMCW/Libraries/XMCLib/inc\xmc4_flash.h ****  *
 278:E:/NOVA/Assets/IFX_P2G-HW-SW_V1.0.4/Firmware_Software/DAVE project/P2G_FMCW/Libraries/XMCLib/inc\xmc4_flash.h ****  */
 279:E:/NOVA/Assets/IFX_P2G-HW-SW_V1.0.4/Firmware_Software/DAVE project/P2G_FMCW/Libraries/XMCLib/inc\xmc4_flash.h **** __STATIC_INLINE void XMC_FLASH_DisableWaitStateForECC(void)
 280:E:/NOVA/Assets/IFX_P2G-HW-SW_V1.0.4/Firmware_Software/DAVE project/P2G_FMCW/Libraries/XMCLib/inc\xmc4_flash.h **** {
 281:E:/NOVA/Assets/IFX_P2G-HW-SW_V1.0.4/Firmware_Software/DAVE project/P2G_FMCW/Libraries/XMCLib/inc\xmc4_flash.h ****   FLASH0->FCON &= (uint32_t)~FLASH_FCON_WSECPF_Msk;
 282:E:/NOVA/Assets/IFX_P2G-HW-SW_V1.0.4/Firmware_Software/DAVE project/P2G_FMCW/Libraries/XMCLib/inc\xmc4_flash.h **** }
 283:E:/NOVA/Assets/IFX_P2G-HW-SW_V1.0.4/Firmware_Software/DAVE project/P2G_FMCW/Libraries/XMCLib/inc\xmc4_flash.h **** 
 284:E:/NOVA/Assets/IFX_P2G-HW-SW_V1.0.4/Firmware_Software/DAVE project/P2G_FMCW/Libraries/XMCLib/inc\xmc4_flash.h **** /**
 285:E:/NOVA/Assets/IFX_P2G-HW-SW_V1.0.4/Firmware_Software/DAVE project/P2G_FMCW/Libraries/XMCLib/inc\xmc4_flash.h ****  *
 286:E:/NOVA/Assets/IFX_P2G-HW-SW_V1.0.4/Firmware_Software/DAVE project/P2G_FMCW/Libraries/XMCLib/inc\xmc4_flash.h ****  * @param None
 287:E:/NOVA/Assets/IFX_P2G-HW-SW_V1.0.4/Firmware_Software/DAVE project/P2G_FMCW/Libraries/XMCLib/inc\xmc4_flash.h ****  *
 288:E:/NOVA/Assets/IFX_P2G-HW-SW_V1.0.4/Firmware_Software/DAVE project/P2G_FMCW/Libraries/XMCLib/inc\xmc4_flash.h ****  * @return None
 289:E:/NOVA/Assets/IFX_P2G-HW-SW_V1.0.4/Firmware_Software/DAVE project/P2G_FMCW/Libraries/XMCLib/inc\xmc4_flash.h ****  *
 290:E:/NOVA/Assets/IFX_P2G-HW-SW_V1.0.4/Firmware_Software/DAVE project/P2G_FMCW/Libraries/XMCLib/inc\xmc4_flash.h ****  * \par<b>Description:</b><br>
 291:E:/NOVA/Assets/IFX_P2G-HW-SW_V1.0.4/Firmware_Software/DAVE project/P2G_FMCW/Libraries/XMCLib/inc\xmc4_flash.h ****  * Enables dynamic idle mode feature to save power.\n\n It switches off the PFLASH read path when n
 292:E:/NOVA/Assets/IFX_P2G-HW-SW_V1.0.4/Firmware_Software/DAVE project/P2G_FMCW/Libraries/XMCLib/inc\xmc4_flash.h ****  * pending. Hence power is saved marginally. This slightly reduces the flash read performance becau
 293:E:/NOVA/Assets/IFX_P2G-HW-SW_V1.0.4/Firmware_Software/DAVE project/P2G_FMCW/Libraries/XMCLib/inc\xmc4_flash.h ****  * pre-fetching is disabled.It sets the FCON register IDLE bit to enable this feature.
 294:E:/NOVA/Assets/IFX_P2G-HW-SW_V1.0.4/Firmware_Software/DAVE project/P2G_FMCW/Libraries/XMCLib/inc\xmc4_flash.h ****  *
 295:E:/NOVA/Assets/IFX_P2G-HW-SW_V1.0.4/Firmware_Software/DAVE project/P2G_FMCW/Libraries/XMCLib/inc\xmc4_flash.h ****  * \par<b>Related APIs:</b><BR>
 296:E:/NOVA/Assets/IFX_P2G-HW-SW_V1.0.4/Firmware_Software/DAVE project/P2G_FMCW/Libraries/XMCLib/inc\xmc4_flash.h ****  * XMC_FLASH_DisableDynamicIdle()\n\n\n
 297:E:/NOVA/Assets/IFX_P2G-HW-SW_V1.0.4/Firmware_Software/DAVE project/P2G_FMCW/Libraries/XMCLib/inc\xmc4_flash.h ****  *
 298:E:/NOVA/Assets/IFX_P2G-HW-SW_V1.0.4/Firmware_Software/DAVE project/P2G_FMCW/Libraries/XMCLib/inc\xmc4_flash.h ****  */
 299:E:/NOVA/Assets/IFX_P2G-HW-SW_V1.0.4/Firmware_Software/DAVE project/P2G_FMCW/Libraries/XMCLib/inc\xmc4_flash.h **** __STATIC_INLINE void XMC_FLASH_EnableDynamicIdle(void)
 300:E:/NOVA/Assets/IFX_P2G-HW-SW_V1.0.4/Firmware_Software/DAVE project/P2G_FMCW/Libraries/XMCLib/inc\xmc4_flash.h **** {
 301:E:/NOVA/Assets/IFX_P2G-HW-SW_V1.0.4/Firmware_Software/DAVE project/P2G_FMCW/Libraries/XMCLib/inc\xmc4_flash.h ****   FLASH0->FCON |= FLASH_FCON_IDLE_Msk;
 302:E:/NOVA/Assets/IFX_P2G-HW-SW_V1.0.4/Firmware_Software/DAVE project/P2G_FMCW/Libraries/XMCLib/inc\xmc4_flash.h **** }
 303:E:/NOVA/Assets/IFX_P2G-HW-SW_V1.0.4/Firmware_Software/DAVE project/P2G_FMCW/Libraries/XMCLib/inc\xmc4_flash.h **** 
 304:E:/NOVA/Assets/IFX_P2G-HW-SW_V1.0.4/Firmware_Software/DAVE project/P2G_FMCW/Libraries/XMCLib/inc\xmc4_flash.h **** /**
 305:E:/NOVA/Assets/IFX_P2G-HW-SW_V1.0.4/Firmware_Software/DAVE project/P2G_FMCW/Libraries/XMCLib/inc\xmc4_flash.h ****  *
 306:E:/NOVA/Assets/IFX_P2G-HW-SW_V1.0.4/Firmware_Software/DAVE project/P2G_FMCW/Libraries/XMCLib/inc\xmc4_flash.h ****  * @param None
 307:E:/NOVA/Assets/IFX_P2G-HW-SW_V1.0.4/Firmware_Software/DAVE project/P2G_FMCW/Libraries/XMCLib/inc\xmc4_flash.h ****  *
 308:E:/NOVA/Assets/IFX_P2G-HW-SW_V1.0.4/Firmware_Software/DAVE project/P2G_FMCW/Libraries/XMCLib/inc\xmc4_flash.h ****  * @return None
 309:E:/NOVA/Assets/IFX_P2G-HW-SW_V1.0.4/Firmware_Software/DAVE project/P2G_FMCW/Libraries/XMCLib/inc\xmc4_flash.h ****  *
 310:E:/NOVA/Assets/IFX_P2G-HW-SW_V1.0.4/Firmware_Software/DAVE project/P2G_FMCW/Libraries/XMCLib/inc\xmc4_flash.h ****  * \par<b>Description:</b><br>
 311:E:/NOVA/Assets/IFX_P2G-HW-SW_V1.0.4/Firmware_Software/DAVE project/P2G_FMCW/Libraries/XMCLib/inc\xmc4_flash.h ****  * Disables dynamic idle mode feature.\n\n It resets the FCON register IDLE bit to disable this fea
 312:E:/NOVA/Assets/IFX_P2G-HW-SW_V1.0.4/Firmware_Software/DAVE project/P2G_FMCW/Libraries/XMCLib/inc\xmc4_flash.h ****  * flash read operation is selected.
 313:E:/NOVA/Assets/IFX_P2G-HW-SW_V1.0.4/Firmware_Software/DAVE project/P2G_FMCW/Libraries/XMCLib/inc\xmc4_flash.h ****  *
 314:E:/NOVA/Assets/IFX_P2G-HW-SW_V1.0.4/Firmware_Software/DAVE project/P2G_FMCW/Libraries/XMCLib/inc\xmc4_flash.h ****  * \par<b>Related APIs:</b><BR>
 315:E:/NOVA/Assets/IFX_P2G-HW-SW_V1.0.4/Firmware_Software/DAVE project/P2G_FMCW/Libraries/XMCLib/inc\xmc4_flash.h ****  * XMC_FLASH_EnableDynamicIdle()\n\n\n
 316:E:/NOVA/Assets/IFX_P2G-HW-SW_V1.0.4/Firmware_Software/DAVE project/P2G_FMCW/Libraries/XMCLib/inc\xmc4_flash.h ****  *
 317:E:/NOVA/Assets/IFX_P2G-HW-SW_V1.0.4/Firmware_Software/DAVE project/P2G_FMCW/Libraries/XMCLib/inc\xmc4_flash.h ****  */
 318:E:/NOVA/Assets/IFX_P2G-HW-SW_V1.0.4/Firmware_Software/DAVE project/P2G_FMCW/Libraries/XMCLib/inc\xmc4_flash.h **** __STATIC_INLINE void XMC_FLASH_DisableDynamicIdle(void)
 319:E:/NOVA/Assets/IFX_P2G-HW-SW_V1.0.4/Firmware_Software/DAVE project/P2G_FMCW/Libraries/XMCLib/inc\xmc4_flash.h **** {
 320:E:/NOVA/Assets/IFX_P2G-HW-SW_V1.0.4/Firmware_Software/DAVE project/P2G_FMCW/Libraries/XMCLib/inc\xmc4_flash.h ****   FLASH0->FCON &= (uint32_t)~FLASH_FCON_IDLE_Msk;
 321:E:/NOVA/Assets/IFX_P2G-HW-SW_V1.0.4/Firmware_Software/DAVE project/P2G_FMCW/Libraries/XMCLib/inc\xmc4_flash.h **** }
 322:E:/NOVA/Assets/IFX_P2G-HW-SW_V1.0.4/Firmware_Software/DAVE project/P2G_FMCW/Libraries/XMCLib/inc\xmc4_flash.h **** 
 323:E:/NOVA/Assets/IFX_P2G-HW-SW_V1.0.4/Firmware_Software/DAVE project/P2G_FMCW/Libraries/XMCLib/inc\xmc4_flash.h **** /**
 324:E:/NOVA/Assets/IFX_P2G-HW-SW_V1.0.4/Firmware_Software/DAVE project/P2G_FMCW/Libraries/XMCLib/inc\xmc4_flash.h ****  *
 325:E:/NOVA/Assets/IFX_P2G-HW-SW_V1.0.4/Firmware_Software/DAVE project/P2G_FMCW/Libraries/XMCLib/inc\xmc4_flash.h ****  * @param None
 326:E:/NOVA/Assets/IFX_P2G-HW-SW_V1.0.4/Firmware_Software/DAVE project/P2G_FMCW/Libraries/XMCLib/inc\xmc4_flash.h ****  *
 327:E:/NOVA/Assets/IFX_P2G-HW-SW_V1.0.4/Firmware_Software/DAVE project/P2G_FMCW/Libraries/XMCLib/inc\xmc4_flash.h ****  * @return None
 328:E:/NOVA/Assets/IFX_P2G-HW-SW_V1.0.4/Firmware_Software/DAVE project/P2G_FMCW/Libraries/XMCLib/inc\xmc4_flash.h ****  *
 329:E:/NOVA/Assets/IFX_P2G-HW-SW_V1.0.4/Firmware_Software/DAVE project/P2G_FMCW/Libraries/XMCLib/inc\xmc4_flash.h ****  * \par<b>Description:</b><br>
 330:E:/NOVA/Assets/IFX_P2G-HW-SW_V1.0.4/Firmware_Software/DAVE project/P2G_FMCW/Libraries/XMCLib/inc\xmc4_flash.h ****  * Enables sleep mode of the PFLASH.\n\n Sleep mode is enabled by setting the bit FCON.SLEEP.
 331:E:/NOVA/Assets/IFX_P2G-HW-SW_V1.0.4/Firmware_Software/DAVE project/P2G_FMCW/Libraries/XMCLib/inc\xmc4_flash.h ****  *
 332:E:/NOVA/Assets/IFX_P2G-HW-SW_V1.0.4/Firmware_Software/DAVE project/P2G_FMCW/Libraries/XMCLib/inc\xmc4_flash.h ****  * \par<b>Note:</b><br>
 333:E:/NOVA/Assets/IFX_P2G-HW-SW_V1.0.4/Firmware_Software/DAVE project/P2G_FMCW/Libraries/XMCLib/inc\xmc4_flash.h ****  * fCPU must be equal or above 1 MHz when wake-up request is triggered.
 334:E:/NOVA/Assets/IFX_P2G-HW-SW_V1.0.4/Firmware_Software/DAVE project/P2G_FMCW/Libraries/XMCLib/inc\xmc4_flash.h ****  *
 335:E:/NOVA/Assets/IFX_P2G-HW-SW_V1.0.4/Firmware_Software/DAVE project/P2G_FMCW/Libraries/XMCLib/inc\xmc4_flash.h ****  * \par<b>Related APIs:</b><BR>
 336:E:/NOVA/Assets/IFX_P2G-HW-SW_V1.0.4/Firmware_Software/DAVE project/P2G_FMCW/Libraries/XMCLib/inc\xmc4_flash.h ****  * XMC_FLASH_DisableSleepRequest()\n\n\n
 337:E:/NOVA/Assets/IFX_P2G-HW-SW_V1.0.4/Firmware_Software/DAVE project/P2G_FMCW/Libraries/XMCLib/inc\xmc4_flash.h ****  *
 338:E:/NOVA/Assets/IFX_P2G-HW-SW_V1.0.4/Firmware_Software/DAVE project/P2G_FMCW/Libraries/XMCLib/inc\xmc4_flash.h ****  */
 339:E:/NOVA/Assets/IFX_P2G-HW-SW_V1.0.4/Firmware_Software/DAVE project/P2G_FMCW/Libraries/XMCLib/inc\xmc4_flash.h **** __STATIC_INLINE void XMC_FLASH_EnableSleepRequest(void)
 340:E:/NOVA/Assets/IFX_P2G-HW-SW_V1.0.4/Firmware_Software/DAVE project/P2G_FMCW/Libraries/XMCLib/inc\xmc4_flash.h **** {
 341:E:/NOVA/Assets/IFX_P2G-HW-SW_V1.0.4/Firmware_Software/DAVE project/P2G_FMCW/Libraries/XMCLib/inc\xmc4_flash.h ****   FLASH0->FCON |= (uint32_t)FLASH_FCON_SLEEP_Msk;
 342:E:/NOVA/Assets/IFX_P2G-HW-SW_V1.0.4/Firmware_Software/DAVE project/P2G_FMCW/Libraries/XMCLib/inc\xmc4_flash.h **** }
 343:E:/NOVA/Assets/IFX_P2G-HW-SW_V1.0.4/Firmware_Software/DAVE project/P2G_FMCW/Libraries/XMCLib/inc\xmc4_flash.h **** 
 344:E:/NOVA/Assets/IFX_P2G-HW-SW_V1.0.4/Firmware_Software/DAVE project/P2G_FMCW/Libraries/XMCLib/inc\xmc4_flash.h **** /**
 345:E:/NOVA/Assets/IFX_P2G-HW-SW_V1.0.4/Firmware_Software/DAVE project/P2G_FMCW/Libraries/XMCLib/inc\xmc4_flash.h ****  *
 346:E:/NOVA/Assets/IFX_P2G-HW-SW_V1.0.4/Firmware_Software/DAVE project/P2G_FMCW/Libraries/XMCLib/inc\xmc4_flash.h ****  * @param None
 347:E:/NOVA/Assets/IFX_P2G-HW-SW_V1.0.4/Firmware_Software/DAVE project/P2G_FMCW/Libraries/XMCLib/inc\xmc4_flash.h ****  *
 348:E:/NOVA/Assets/IFX_P2G-HW-SW_V1.0.4/Firmware_Software/DAVE project/P2G_FMCW/Libraries/XMCLib/inc\xmc4_flash.h ****  * @return None
 349:E:/NOVA/Assets/IFX_P2G-HW-SW_V1.0.4/Firmware_Software/DAVE project/P2G_FMCW/Libraries/XMCLib/inc\xmc4_flash.h ****  *
 350:E:/NOVA/Assets/IFX_P2G-HW-SW_V1.0.4/Firmware_Software/DAVE project/P2G_FMCW/Libraries/XMCLib/inc\xmc4_flash.h ****  * \par<b>Description:</b><br>
 351:E:/NOVA/Assets/IFX_P2G-HW-SW_V1.0.4/Firmware_Software/DAVE project/P2G_FMCW/Libraries/XMCLib/inc\xmc4_flash.h ****  * Wake-up the PFLASH from sleep.\n\n Wakes-up from sleep is done by clearing the bit FCON.SLEEP, i
 352:E:/NOVA/Assets/IFX_P2G-HW-SW_V1.0.4/Firmware_Software/DAVE project/P2G_FMCW/Libraries/XMCLib/inc\xmc4_flash.h ****  * bit, or wake-up is initiated by releasing the external sleep signal from SCU.
 353:E:/NOVA/Assets/IFX_P2G-HW-SW_V1.0.4/Firmware_Software/DAVE project/P2G_FMCW/Libraries/XMCLib/inc\xmc4_flash.h ****  *
 354:E:/NOVA/Assets/IFX_P2G-HW-SW_V1.0.4/Firmware_Software/DAVE project/P2G_FMCW/Libraries/XMCLib/inc\xmc4_flash.h ****  * \par<b>Note:</b><br>
 355:E:/NOVA/Assets/IFX_P2G-HW-SW_V1.0.4/Firmware_Software/DAVE project/P2G_FMCW/Libraries/XMCLib/inc\xmc4_flash.h ****  * fCPU must be equal or above 1 MHz when wake-up request is triggered.
 356:E:/NOVA/Assets/IFX_P2G-HW-SW_V1.0.4/Firmware_Software/DAVE project/P2G_FMCW/Libraries/XMCLib/inc\xmc4_flash.h ****  *
 357:E:/NOVA/Assets/IFX_P2G-HW-SW_V1.0.4/Firmware_Software/DAVE project/P2G_FMCW/Libraries/XMCLib/inc\xmc4_flash.h ****  * \par<b>Related APIs:</b><BR>
 358:E:/NOVA/Assets/IFX_P2G-HW-SW_V1.0.4/Firmware_Software/DAVE project/P2G_FMCW/Libraries/XMCLib/inc\xmc4_flash.h ****  * XMC_FLASH_EnableSleepRequest()\n\n\n
 359:E:/NOVA/Assets/IFX_P2G-HW-SW_V1.0.4/Firmware_Software/DAVE project/P2G_FMCW/Libraries/XMCLib/inc\xmc4_flash.h ****  *
 360:E:/NOVA/Assets/IFX_P2G-HW-SW_V1.0.4/Firmware_Software/DAVE project/P2G_FMCW/Libraries/XMCLib/inc\xmc4_flash.h ****  */
 361:E:/NOVA/Assets/IFX_P2G-HW-SW_V1.0.4/Firmware_Software/DAVE project/P2G_FMCW/Libraries/XMCLib/inc\xmc4_flash.h **** __STATIC_INLINE void XMC_FLASH_DisableSleepRequest(void)
 362:E:/NOVA/Assets/IFX_P2G-HW-SW_V1.0.4/Firmware_Software/DAVE project/P2G_FMCW/Libraries/XMCLib/inc\xmc4_flash.h **** {
 363:E:/NOVA/Assets/IFX_P2G-HW-SW_V1.0.4/Firmware_Software/DAVE project/P2G_FMCW/Libraries/XMCLib/inc\xmc4_flash.h ****   FLASH0->FCON &= (uint32_t)~FLASH_FCON_SLEEP_Msk;
 364:E:/NOVA/Assets/IFX_P2G-HW-SW_V1.0.4/Firmware_Software/DAVE project/P2G_FMCW/Libraries/XMCLib/inc\xmc4_flash.h **** }
 365:E:/NOVA/Assets/IFX_P2G-HW-SW_V1.0.4/Firmware_Software/DAVE project/P2G_FMCW/Libraries/XMCLib/inc\xmc4_flash.h **** 
 366:E:/NOVA/Assets/IFX_P2G-HW-SW_V1.0.4/Firmware_Software/DAVE project/P2G_FMCW/Libraries/XMCLib/inc\xmc4_flash.h **** /**
 367:E:/NOVA/Assets/IFX_P2G-HW-SW_V1.0.4/Firmware_Software/DAVE project/P2G_FMCW/Libraries/XMCLib/inc\xmc4_flash.h ****  *
 368:E:/NOVA/Assets/IFX_P2G-HW-SW_V1.0.4/Firmware_Software/DAVE project/P2G_FMCW/Libraries/XMCLib/inc\xmc4_flash.h ****  * @param margin PFLASH margin selection. Use type @ref XMC_FLASH_MARGIN_t.
 369:E:/NOVA/Assets/IFX_P2G-HW-SW_V1.0.4/Firmware_Software/DAVE project/P2G_FMCW/Libraries/XMCLib/inc\xmc4_flash.h ****  *
 370:E:/NOVA/Assets/IFX_P2G-HW-SW_V1.0.4/Firmware_Software/DAVE project/P2G_FMCW/Libraries/XMCLib/inc\xmc4_flash.h ****  * @return None
 371:E:/NOVA/Assets/IFX_P2G-HW-SW_V1.0.4/Firmware_Software/DAVE project/P2G_FMCW/Libraries/XMCLib/inc\xmc4_flash.h ****  *
 372:E:/NOVA/Assets/IFX_P2G-HW-SW_V1.0.4/Firmware_Software/DAVE project/P2G_FMCW/Libraries/XMCLib/inc\xmc4_flash.h ****  * \par<b>Description:</b><br>
 373:E:/NOVA/Assets/IFX_P2G-HW-SW_V1.0.4/Firmware_Software/DAVE project/P2G_FMCW/Libraries/XMCLib/inc\xmc4_flash.h ****  * Sets the read margin levels for checking the healthiness of flash data.\n\n Configures the margi
 374:E:/NOVA/Assets/IFX_P2G-HW-SW_V1.0.4/Firmware_Software/DAVE project/P2G_FMCW/Libraries/XMCLib/inc\xmc4_flash.h ****  * MARP register with the specified \a margin level. It changes the margin levels for read operatio
 375:E:/NOVA/Assets/IFX_P2G-HW-SW_V1.0.4/Firmware_Software/DAVE project/P2G_FMCW/Libraries/XMCLib/inc\xmc4_flash.h ****  * problematic array bits.
 376:E:/NOVA/Assets/IFX_P2G-HW-SW_V1.0.4/Firmware_Software/DAVE project/P2G_FMCW/Libraries/XMCLib/inc\xmc4_flash.h ****  *
 377:E:/NOVA/Assets/IFX_P2G-HW-SW_V1.0.4/Firmware_Software/DAVE project/P2G_FMCW/Libraries/XMCLib/inc\xmc4_flash.h ****  * \par<b>Related APIs:</b><BR>
 378:E:/NOVA/Assets/IFX_P2G-HW-SW_V1.0.4/Firmware_Software/DAVE project/P2G_FMCW/Libraries/XMCLib/inc\xmc4_flash.h ****  * None
 379:E:/NOVA/Assets/IFX_P2G-HW-SW_V1.0.4/Firmware_Software/DAVE project/P2G_FMCW/Libraries/XMCLib/inc\xmc4_flash.h ****  */
 380:E:/NOVA/Assets/IFX_P2G-HW-SW_V1.0.4/Firmware_Software/DAVE project/P2G_FMCW/Libraries/XMCLib/inc\xmc4_flash.h **** __STATIC_INLINE void XMC_FLASH_SetMargin(const XMC_FLASH_MARGIN_t margin)
 381:E:/NOVA/Assets/IFX_P2G-HW-SW_V1.0.4/Firmware_Software/DAVE project/P2G_FMCW/Libraries/XMCLib/inc\xmc4_flash.h **** {
 382:E:/NOVA/Assets/IFX_P2G-HW-SW_V1.0.4/Firmware_Software/DAVE project/P2G_FMCW/Libraries/XMCLib/inc\xmc4_flash.h ****   FLASH0->MARP = (FLASH0->MARP & (uint32_t)~FLASH_MARP_MARGIN_Msk) | margin;
 109              	 .loc 2 382 0
 110 0018 7949     	 ldr r1,.L63+4
 111              	.LBE41:
 112              	.LBE40:
 185:E:/NOVA/Assets/IFX_P2G-HW-SW_V1.0.4/Firmware_Software/DAVE project/P2G_FW/Dave/Generated/E_EEPROM_XMC4\e_eeprom_xmc4.c ****     e_eeprom_xmc4_sector_info.flash_data_addr = E_EEPROM_XMC4_EMPTY;
 113              	 .loc 1 185 0
 114 001a 5C60     	 str r4,[r3,#4]
 115              	.LBB44:
 116              	.LBB42:
 117              	 .loc 2 382 0
 118 001c 41F21802 	 movw r2,#4120
 119              	.LBE42:
 120              	.LBE44:
 186:E:/NOVA/Assets/IFX_P2G-HW-SW_V1.0.4/Firmware_Software/DAVE project/P2G_FW/Dave/Generated/E_EEPROM_XMC4\e_eeprom_xmc4.c ****   
 121              	 .loc 1 186 0
 122 0020 C8F80440 	 str r4,[r8,#4]
 123              	.LVL4:
 124              	.LBB45:
 125              	.LBB43:
 126              	 .loc 2 382 0
 127 0024 8B58     	 ldr r3,[r1,r2]
 128 0026 0190     	 str r0,[sp,#4]
 129 0028 23F00F03 	 bic r3,r3,#15
 130 002c 43F00103 	 orr r3,r3,#1
 131 0030 8B50     	 str r3,[r1,r2]
 132              	.LBE43:
 133              	.LBE45:
 134              	.LBB46:
 135              	.LBB47:
 383:E:/NOVA/Assets/IFX_P2G-HW-SW_V1.0.4/Firmware_Software/DAVE project/P2G_FMCW/Libraries/XMCLib/inc\xmc4_flash.h **** }
 384:E:/NOVA/Assets/IFX_P2G-HW-SW_V1.0.4/Firmware_Software/DAVE project/P2G_FMCW/Libraries/XMCLib/inc\xmc4_flash.h **** 
 385:E:/NOVA/Assets/IFX_P2G-HW-SW_V1.0.4/Firmware_Software/DAVE project/P2G_FMCW/Libraries/XMCLib/inc\xmc4_flash.h **** /**
 386:E:/NOVA/Assets/IFX_P2G-HW-SW_V1.0.4/Firmware_Software/DAVE project/P2G_FMCW/Libraries/XMCLib/inc\xmc4_flash.h ****  *
 387:E:/NOVA/Assets/IFX_P2G-HW-SW_V1.0.4/Firmware_Software/DAVE project/P2G_FMCW/Libraries/XMCLib/inc\xmc4_flash.h ****  * @param None
 388:E:/NOVA/Assets/IFX_P2G-HW-SW_V1.0.4/Firmware_Software/DAVE project/P2G_FMCW/Libraries/XMCLib/inc\xmc4_flash.h ****  *
 389:E:/NOVA/Assets/IFX_P2G-HW-SW_V1.0.4/Firmware_Software/DAVE project/P2G_FMCW/Libraries/XMCLib/inc\xmc4_flash.h ****  * @return None
 390:E:/NOVA/Assets/IFX_P2G-HW-SW_V1.0.4/Firmware_Software/DAVE project/P2G_FMCW/Libraries/XMCLib/inc\xmc4_flash.h ****  *
 391:E:/NOVA/Assets/IFX_P2G-HW-SW_V1.0.4/Firmware_Software/DAVE project/P2G_FMCW/Libraries/XMCLib/inc\xmc4_flash.h ****  * \par<b>Description:</b><br>
 392:E:/NOVA/Assets/IFX_P2G-HW-SW_V1.0.4/Firmware_Software/DAVE project/P2G_FMCW/Libraries/XMCLib/inc\xmc4_flash.h ****  * Enables double bit error trap.\n\n. It enables by setting MARP register bit TRAPDIS.
 393:E:/NOVA/Assets/IFX_P2G-HW-SW_V1.0.4/Firmware_Software/DAVE project/P2G_FMCW/Libraries/XMCLib/inc\xmc4_flash.h ****  *
 394:E:/NOVA/Assets/IFX_P2G-HW-SW_V1.0.4/Firmware_Software/DAVE project/P2G_FMCW/Libraries/XMCLib/inc\xmc4_flash.h ****  * \par<b>Related APIs:</b><BR>
 395:E:/NOVA/Assets/IFX_P2G-HW-SW_V1.0.4/Firmware_Software/DAVE project/P2G_FMCW/Libraries/XMCLib/inc\xmc4_flash.h ****  * None
 396:E:/NOVA/Assets/IFX_P2G-HW-SW_V1.0.4/Firmware_Software/DAVE project/P2G_FMCW/Libraries/XMCLib/inc\xmc4_flash.h ****  */
 397:E:/NOVA/Assets/IFX_P2G-HW-SW_V1.0.4/Firmware_Software/DAVE project/P2G_FMCW/Libraries/XMCLib/inc\xmc4_flash.h **** __STATIC_INLINE void XMC_FLASH_EnableDoubleBitErrorTrap(void)
 398:E:/NOVA/Assets/IFX_P2G-HW-SW_V1.0.4/Firmware_Software/DAVE project/P2G_FMCW/Libraries/XMCLib/inc\xmc4_flash.h **** {
 399:E:/NOVA/Assets/IFX_P2G-HW-SW_V1.0.4/Firmware_Software/DAVE project/P2G_FMCW/Libraries/XMCLib/inc\xmc4_flash.h ****   FLASH0->MARP &= (uint32_t)~FLASH_MARP_TRAPDIS_Msk;
 400:E:/NOVA/Assets/IFX_P2G-HW-SW_V1.0.4/Firmware_Software/DAVE project/P2G_FMCW/Libraries/XMCLib/inc\xmc4_flash.h **** }
 401:E:/NOVA/Assets/IFX_P2G-HW-SW_V1.0.4/Firmware_Software/DAVE project/P2G_FMCW/Libraries/XMCLib/inc\xmc4_flash.h **** 
 402:E:/NOVA/Assets/IFX_P2G-HW-SW_V1.0.4/Firmware_Software/DAVE project/P2G_FMCW/Libraries/XMCLib/inc\xmc4_flash.h **** /**
 403:E:/NOVA/Assets/IFX_P2G-HW-SW_V1.0.4/Firmware_Software/DAVE project/P2G_FMCW/Libraries/XMCLib/inc\xmc4_flash.h ****  *
 404:E:/NOVA/Assets/IFX_P2G-HW-SW_V1.0.4/Firmware_Software/DAVE project/P2G_FMCW/Libraries/XMCLib/inc\xmc4_flash.h ****  * @param None
 405:E:/NOVA/Assets/IFX_P2G-HW-SW_V1.0.4/Firmware_Software/DAVE project/P2G_FMCW/Libraries/XMCLib/inc\xmc4_flash.h ****  *
 406:E:/NOVA/Assets/IFX_P2G-HW-SW_V1.0.4/Firmware_Software/DAVE project/P2G_FMCW/Libraries/XMCLib/inc\xmc4_flash.h ****  * @return None
 407:E:/NOVA/Assets/IFX_P2G-HW-SW_V1.0.4/Firmware_Software/DAVE project/P2G_FMCW/Libraries/XMCLib/inc\xmc4_flash.h ****  *
 408:E:/NOVA/Assets/IFX_P2G-HW-SW_V1.0.4/Firmware_Software/DAVE project/P2G_FMCW/Libraries/XMCLib/inc\xmc4_flash.h ****  * \par<b>Description:</b><br>
 409:E:/NOVA/Assets/IFX_P2G-HW-SW_V1.0.4/Firmware_Software/DAVE project/P2G_FMCW/Libraries/XMCLib/inc\xmc4_flash.h ****  * Disables the trap generation for double bit error by clearing MARP register bit TRAPDIS.\n\n The
 410:E:/NOVA/Assets/IFX_P2G-HW-SW_V1.0.4/Firmware_Software/DAVE project/P2G_FMCW/Libraries/XMCLib/inc\xmc4_flash.h ****  * trap can be disabled for margin checks and also redirected to an error interrupt. Any time durin
 411:E:/NOVA/Assets/IFX_P2G-HW-SW_V1.0.4/Firmware_Software/DAVE project/P2G_FMCW/Libraries/XMCLib/inc\xmc4_flash.h ****  * double bit error trap can be enabled back by calling XMC_FLASH_EnableDoubleBitErrorTrap() API.
 412:E:/NOVA/Assets/IFX_P2G-HW-SW_V1.0.4/Firmware_Software/DAVE project/P2G_FMCW/Libraries/XMCLib/inc\xmc4_flash.h ****  *
 413:E:/NOVA/Assets/IFX_P2G-HW-SW_V1.0.4/Firmware_Software/DAVE project/P2G_FMCW/Libraries/XMCLib/inc\xmc4_flash.h ****  * \par<b>Related APIs:</b><BR>
 414:E:/NOVA/Assets/IFX_P2G-HW-SW_V1.0.4/Firmware_Software/DAVE project/P2G_FMCW/Libraries/XMCLib/inc\xmc4_flash.h ****  * None
 415:E:/NOVA/Assets/IFX_P2G-HW-SW_V1.0.4/Firmware_Software/DAVE project/P2G_FMCW/Libraries/XMCLib/inc\xmc4_flash.h ****  */
 416:E:/NOVA/Assets/IFX_P2G-HW-SW_V1.0.4/Firmware_Software/DAVE project/P2G_FMCW/Libraries/XMCLib/inc\xmc4_flash.h **** __STATIC_INLINE void XMC_FLASH_DisableDoubleBitErrorTrap(void)
 417:E:/NOVA/Assets/IFX_P2G-HW-SW_V1.0.4/Firmware_Software/DAVE project/P2G_FMCW/Libraries/XMCLib/inc\xmc4_flash.h **** {
 418:E:/NOVA/Assets/IFX_P2G-HW-SW_V1.0.4/Firmware_Software/DAVE project/P2G_FMCW/Libraries/XMCLib/inc\xmc4_flash.h ****   FLASH0->MARP |= FLASH_MARP_TRAPDIS_Msk;
 136              	 .loc 2 418 0
 137 0032 8B58     	 ldr r3,[r1,r2]
 138              	.LBE47:
 139              	.LBE46:
 194:E:/NOVA/Assets/IFX_P2G-HW-SW_V1.0.4/Firmware_Software/DAVE project/P2G_FW/Dave/Generated/E_EEPROM_XMC4\e_eeprom_xmc4.c ****   
 140              	 .loc 1 194 0
 141 0034 734F     	 ldr r7,.L63+8
 142              	.LBB49:
 143              	.LBB50:
 144              	.LBB51:
 145              	.LBB52:
 146              	.LBB53:
 147              	.LBB54:
 148              	 .file 3 "E:/NOVA/Assets/IFX_P2G-HW-SW_V1.0.4/Firmware_Software/DAVE project/P2G_FMCW/Libraries/XMCLib/inc/xmc_fce.h"
   1:E:/NOVA/Assets/IFX_P2G-HW-SW_V1.0.4/Firmware_Software/DAVE project/P2G_FMCW/Libraries/XMCLib/inc\xmc_fce.h **** /**
   2:E:/NOVA/Assets/IFX_P2G-HW-SW_V1.0.4/Firmware_Software/DAVE project/P2G_FMCW/Libraries/XMCLib/inc\xmc_fce.h ****  * @file xmc_fce.h
   3:E:/NOVA/Assets/IFX_P2G-HW-SW_V1.0.4/Firmware_Software/DAVE project/P2G_FMCW/Libraries/XMCLib/inc\xmc_fce.h ****  * @date 2015-06-20
   4:E:/NOVA/Assets/IFX_P2G-HW-SW_V1.0.4/Firmware_Software/DAVE project/P2G_FMCW/Libraries/XMCLib/inc\xmc_fce.h ****  *
   5:E:/NOVA/Assets/IFX_P2G-HW-SW_V1.0.4/Firmware_Software/DAVE project/P2G_FMCW/Libraries/XMCLib/inc\xmc_fce.h ****  * @cond
   6:E:/NOVA/Assets/IFX_P2G-HW-SW_V1.0.4/Firmware_Software/DAVE project/P2G_FMCW/Libraries/XMCLib/inc\xmc_fce.h ****  **************************************************************************************************
   7:E:/NOVA/Assets/IFX_P2G-HW-SW_V1.0.4/Firmware_Software/DAVE project/P2G_FMCW/Libraries/XMCLib/inc\xmc_fce.h ****  * XMClib v2.1.16 - XMC Peripheral Driver Library 
   8:E:/NOVA/Assets/IFX_P2G-HW-SW_V1.0.4/Firmware_Software/DAVE project/P2G_FMCW/Libraries/XMCLib/inc\xmc_fce.h ****  *
   9:E:/NOVA/Assets/IFX_P2G-HW-SW_V1.0.4/Firmware_Software/DAVE project/P2G_FMCW/Libraries/XMCLib/inc\xmc_fce.h ****  * Copyright (c) 2015-2017, Infineon Technologies AG
  10:E:/NOVA/Assets/IFX_P2G-HW-SW_V1.0.4/Firmware_Software/DAVE project/P2G_FMCW/Libraries/XMCLib/inc\xmc_fce.h ****  * All rights reserved.                        
  11:E:/NOVA/Assets/IFX_P2G-HW-SW_V1.0.4/Firmware_Software/DAVE project/P2G_FMCW/Libraries/XMCLib/inc\xmc_fce.h ****  *                                             
  12:E:/NOVA/Assets/IFX_P2G-HW-SW_V1.0.4/Firmware_Software/DAVE project/P2G_FMCW/Libraries/XMCLib/inc\xmc_fce.h ****  * Redistribution and use in source and binary forms, with or without modification,are permitted pr
  13:E:/NOVA/Assets/IFX_P2G-HW-SW_V1.0.4/Firmware_Software/DAVE project/P2G_FMCW/Libraries/XMCLib/inc\xmc_fce.h ****  * following conditions are met:   
  14:E:/NOVA/Assets/IFX_P2G-HW-SW_V1.0.4/Firmware_Software/DAVE project/P2G_FMCW/Libraries/XMCLib/inc\xmc_fce.h ****  *                                                                              
  15:E:/NOVA/Assets/IFX_P2G-HW-SW_V1.0.4/Firmware_Software/DAVE project/P2G_FMCW/Libraries/XMCLib/inc\xmc_fce.h ****  * Redistributions of source code must retain the above copyright notice, this list of conditions a
  16:E:/NOVA/Assets/IFX_P2G-HW-SW_V1.0.4/Firmware_Software/DAVE project/P2G_FMCW/Libraries/XMCLib/inc\xmc_fce.h ****  * disclaimer.                        
  17:E:/NOVA/Assets/IFX_P2G-HW-SW_V1.0.4/Firmware_Software/DAVE project/P2G_FMCW/Libraries/XMCLib/inc\xmc_fce.h ****  * 
  18:E:/NOVA/Assets/IFX_P2G-HW-SW_V1.0.4/Firmware_Software/DAVE project/P2G_FMCW/Libraries/XMCLib/inc\xmc_fce.h ****  * Redistributions in binary form must reproduce the above copyright notice, this list of condition
  19:E:/NOVA/Assets/IFX_P2G-HW-SW_V1.0.4/Firmware_Software/DAVE project/P2G_FMCW/Libraries/XMCLib/inc\xmc_fce.h ****  * disclaimer in the documentation and/or other materials provided with the distribution.          
  20:E:/NOVA/Assets/IFX_P2G-HW-SW_V1.0.4/Firmware_Software/DAVE project/P2G_FMCW/Libraries/XMCLib/inc\xmc_fce.h ****  * 
  21:E:/NOVA/Assets/IFX_P2G-HW-SW_V1.0.4/Firmware_Software/DAVE project/P2G_FMCW/Libraries/XMCLib/inc\xmc_fce.h ****  * Neither the name of the copyright holders nor the names of its contributors may be used to endor
  22:E:/NOVA/Assets/IFX_P2G-HW-SW_V1.0.4/Firmware_Software/DAVE project/P2G_FMCW/Libraries/XMCLib/inc\xmc_fce.h ****  * products derived from this software without specific prior written permission.                  
  23:E:/NOVA/Assets/IFX_P2G-HW-SW_V1.0.4/Firmware_Software/DAVE project/P2G_FMCW/Libraries/XMCLib/inc\xmc_fce.h ****  *                                                                              
  24:E:/NOVA/Assets/IFX_P2G-HW-SW_V1.0.4/Firmware_Software/DAVE project/P2G_FMCW/Libraries/XMCLib/inc\xmc_fce.h ****  * THIS SOFTWARE IS PROVIDED BY THE COPYRIGHT HOLDERS AND CONTRIBUTORS "AS IS" AND ANY EXPRESS OR I
  25:E:/NOVA/Assets/IFX_P2G-HW-SW_V1.0.4/Firmware_Software/DAVE project/P2G_FMCW/Libraries/XMCLib/inc\xmc_fce.h ****  * INCLUDING, BUT NOT LIMITED TO, THE IMPLIED WARRANTIES OF MERCHANTABILITY AND FITNESS FOR A PARTI
  26:E:/NOVA/Assets/IFX_P2G-HW-SW_V1.0.4/Firmware_Software/DAVE project/P2G_FMCW/Libraries/XMCLib/inc\xmc_fce.h ****  * DISCLAIMED. IN NO EVENT SHALL THE COPYRIGHT HOLDER OR CONTRIBUTORS BE LIABLE  FOR ANY DIRECT, IN
  27:E:/NOVA/Assets/IFX_P2G-HW-SW_V1.0.4/Firmware_Software/DAVE project/P2G_FMCW/Libraries/XMCLib/inc\xmc_fce.h ****  * SPECIAL, EXEMPLARY, OR CONSEQUENTIAL DAMAGES (INCLUDING, BUT NOT LIMITED TO, PROCUREMENT OF SUBS
  28:E:/NOVA/Assets/IFX_P2G-HW-SW_V1.0.4/Firmware_Software/DAVE project/P2G_FMCW/Libraries/XMCLib/inc\xmc_fce.h ****  * SERVICES; LOSS OF USE, DATA, OR PROFITS; OR BUSINESS INTERRUPTION) HOWEVER CAUSED AND ON ANY THE
  29:E:/NOVA/Assets/IFX_P2G-HW-SW_V1.0.4/Firmware_Software/DAVE project/P2G_FMCW/Libraries/XMCLib/inc\xmc_fce.h ****  * WHETHER IN CONTRACT, STRICT LIABILITY,OR TORT (INCLUDING NEGLIGENCE OR OTHERWISE) ARISING IN ANY
  30:E:/NOVA/Assets/IFX_P2G-HW-SW_V1.0.4/Firmware_Software/DAVE project/P2G_FMCW/Libraries/XMCLib/inc\xmc_fce.h ****  * OF THIS SOFTWARE, EVEN IF ADVISED OF THE POSSIBILITY OF SUCH DAMAGE.                            
  31:E:/NOVA/Assets/IFX_P2G-HW-SW_V1.0.4/Firmware_Software/DAVE project/P2G_FMCW/Libraries/XMCLib/inc\xmc_fce.h ****  *                                                                              
  32:E:/NOVA/Assets/IFX_P2G-HW-SW_V1.0.4/Firmware_Software/DAVE project/P2G_FMCW/Libraries/XMCLib/inc\xmc_fce.h ****  * To improve the quality of the software, users are encouraged to share modifications, enhancement
  33:E:/NOVA/Assets/IFX_P2G-HW-SW_V1.0.4/Firmware_Software/DAVE project/P2G_FMCW/Libraries/XMCLib/inc\xmc_fce.h ****  * Infineon Technologies AG dave@infineon.com).                                                    
  34:E:/NOVA/Assets/IFX_P2G-HW-SW_V1.0.4/Firmware_Software/DAVE project/P2G_FMCW/Libraries/XMCLib/inc\xmc_fce.h ****  **************************************************************************************************
  35:E:/NOVA/Assets/IFX_P2G-HW-SW_V1.0.4/Firmware_Software/DAVE project/P2G_FMCW/Libraries/XMCLib/inc\xmc_fce.h ****  *
  36:E:/NOVA/Assets/IFX_P2G-HW-SW_V1.0.4/Firmware_Software/DAVE project/P2G_FMCW/Libraries/XMCLib/inc\xmc_fce.h ****  * Change History
  37:E:/NOVA/Assets/IFX_P2G-HW-SW_V1.0.4/Firmware_Software/DAVE project/P2G_FMCW/Libraries/XMCLib/inc\xmc_fce.h ****  * --------------
  38:E:/NOVA/Assets/IFX_P2G-HW-SW_V1.0.4/Firmware_Software/DAVE project/P2G_FMCW/Libraries/XMCLib/inc\xmc_fce.h ****  *
  39:E:/NOVA/Assets/IFX_P2G-HW-SW_V1.0.4/Firmware_Software/DAVE project/P2G_FMCW/Libraries/XMCLib/inc\xmc_fce.h ****  * 2015-02-20:
  40:E:/NOVA/Assets/IFX_P2G-HW-SW_V1.0.4/Firmware_Software/DAVE project/P2G_FMCW/Libraries/XMCLib/inc\xmc_fce.h ****  *     - Initial
  41:E:/NOVA/Assets/IFX_P2G-HW-SW_V1.0.4/Firmware_Software/DAVE project/P2G_FMCW/Libraries/XMCLib/inc\xmc_fce.h ****  *      
  42:E:/NOVA/Assets/IFX_P2G-HW-SW_V1.0.4/Firmware_Software/DAVE project/P2G_FMCW/Libraries/XMCLib/inc\xmc_fce.h ****  * 2015-05-20:
  43:E:/NOVA/Assets/IFX_P2G-HW-SW_V1.0.4/Firmware_Software/DAVE project/P2G_FMCW/Libraries/XMCLib/inc\xmc_fce.h ****  *     - Description updated <br>
  44:E:/NOVA/Assets/IFX_P2G-HW-SW_V1.0.4/Firmware_Software/DAVE project/P2G_FMCW/Libraries/XMCLib/inc\xmc_fce.h ****  *   
  45:E:/NOVA/Assets/IFX_P2G-HW-SW_V1.0.4/Firmware_Software/DAVE project/P2G_FMCW/Libraries/XMCLib/inc\xmc_fce.h ****  * 2015-06-20:
  46:E:/NOVA/Assets/IFX_P2G-HW-SW_V1.0.4/Firmware_Software/DAVE project/P2G_FMCW/Libraries/XMCLib/inc\xmc_fce.h ****  *     - Removed version macros and declaration of GetDriverVersion API
  47:E:/NOVA/Assets/IFX_P2G-HW-SW_V1.0.4/Firmware_Software/DAVE project/P2G_FMCW/Libraries/XMCLib/inc\xmc_fce.h ****  * @endcond 
  48:E:/NOVA/Assets/IFX_P2G-HW-SW_V1.0.4/Firmware_Software/DAVE project/P2G_FMCW/Libraries/XMCLib/inc\xmc_fce.h ****  *
  49:E:/NOVA/Assets/IFX_P2G-HW-SW_V1.0.4/Firmware_Software/DAVE project/P2G_FMCW/Libraries/XMCLib/inc\xmc_fce.h ****  */
  50:E:/NOVA/Assets/IFX_P2G-HW-SW_V1.0.4/Firmware_Software/DAVE project/P2G_FMCW/Libraries/XMCLib/inc\xmc_fce.h **** 
  51:E:/NOVA/Assets/IFX_P2G-HW-SW_V1.0.4/Firmware_Software/DAVE project/P2G_FMCW/Libraries/XMCLib/inc\xmc_fce.h **** #ifndef XMC_FCE_H
  52:E:/NOVA/Assets/IFX_P2G-HW-SW_V1.0.4/Firmware_Software/DAVE project/P2G_FMCW/Libraries/XMCLib/inc\xmc_fce.h **** #define XMC_FCE_H
  53:E:/NOVA/Assets/IFX_P2G-HW-SW_V1.0.4/Firmware_Software/DAVE project/P2G_FMCW/Libraries/XMCLib/inc\xmc_fce.h **** 
  54:E:/NOVA/Assets/IFX_P2G-HW-SW_V1.0.4/Firmware_Software/DAVE project/P2G_FMCW/Libraries/XMCLib/inc\xmc_fce.h **** /**************************************************************************************************
  55:E:/NOVA/Assets/IFX_P2G-HW-SW_V1.0.4/Firmware_Software/DAVE project/P2G_FMCW/Libraries/XMCLib/inc\xmc_fce.h ****  * HEADER FILES
  56:E:/NOVA/Assets/IFX_P2G-HW-SW_V1.0.4/Firmware_Software/DAVE project/P2G_FMCW/Libraries/XMCLib/inc\xmc_fce.h ****  **************************************************************************************************
  57:E:/NOVA/Assets/IFX_P2G-HW-SW_V1.0.4/Firmware_Software/DAVE project/P2G_FMCW/Libraries/XMCLib/inc\xmc_fce.h ****  
  58:E:/NOVA/Assets/IFX_P2G-HW-SW_V1.0.4/Firmware_Software/DAVE project/P2G_FMCW/Libraries/XMCLib/inc\xmc_fce.h **** #include <xmc_common.h>
  59:E:/NOVA/Assets/IFX_P2G-HW-SW_V1.0.4/Firmware_Software/DAVE project/P2G_FMCW/Libraries/XMCLib/inc\xmc_fce.h **** 
  60:E:/NOVA/Assets/IFX_P2G-HW-SW_V1.0.4/Firmware_Software/DAVE project/P2G_FMCW/Libraries/XMCLib/inc\xmc_fce.h **** #if defined (FCE)
  61:E:/NOVA/Assets/IFX_P2G-HW-SW_V1.0.4/Firmware_Software/DAVE project/P2G_FMCW/Libraries/XMCLib/inc\xmc_fce.h **** 
  62:E:/NOVA/Assets/IFX_P2G-HW-SW_V1.0.4/Firmware_Software/DAVE project/P2G_FMCW/Libraries/XMCLib/inc\xmc_fce.h **** /**
  63:E:/NOVA/Assets/IFX_P2G-HW-SW_V1.0.4/Firmware_Software/DAVE project/P2G_FMCW/Libraries/XMCLib/inc\xmc_fce.h ****  * @addtogroup XMClib
  64:E:/NOVA/Assets/IFX_P2G-HW-SW_V1.0.4/Firmware_Software/DAVE project/P2G_FMCW/Libraries/XMCLib/inc\xmc_fce.h ****  * @{
  65:E:/NOVA/Assets/IFX_P2G-HW-SW_V1.0.4/Firmware_Software/DAVE project/P2G_FMCW/Libraries/XMCLib/inc\xmc_fce.h ****  */
  66:E:/NOVA/Assets/IFX_P2G-HW-SW_V1.0.4/Firmware_Software/DAVE project/P2G_FMCW/Libraries/XMCLib/inc\xmc_fce.h **** 
  67:E:/NOVA/Assets/IFX_P2G-HW-SW_V1.0.4/Firmware_Software/DAVE project/P2G_FMCW/Libraries/XMCLib/inc\xmc_fce.h **** /**
  68:E:/NOVA/Assets/IFX_P2G-HW-SW_V1.0.4/Firmware_Software/DAVE project/P2G_FMCW/Libraries/XMCLib/inc\xmc_fce.h ****  * @addtogroup FCE
  69:E:/NOVA/Assets/IFX_P2G-HW-SW_V1.0.4/Firmware_Software/DAVE project/P2G_FMCW/Libraries/XMCLib/inc\xmc_fce.h ****  * @brief Flexible CRC Engine(FCE) driver for the XMC microcontroller family.
  70:E:/NOVA/Assets/IFX_P2G-HW-SW_V1.0.4/Firmware_Software/DAVE project/P2G_FMCW/Libraries/XMCLib/inc\xmc_fce.h ****  *
  71:E:/NOVA/Assets/IFX_P2G-HW-SW_V1.0.4/Firmware_Software/DAVE project/P2G_FMCW/Libraries/XMCLib/inc\xmc_fce.h ****  * The FCE provides a parallel implementation of Cyclic Redundancy Code (CRC)
  72:E:/NOVA/Assets/IFX_P2G-HW-SW_V1.0.4/Firmware_Software/DAVE project/P2G_FMCW/Libraries/XMCLib/inc\xmc_fce.h ****  * algorithms. The current FCE version for the XMC4000 microcontroller family implements the
  73:E:/NOVA/Assets/IFX_P2G-HW-SW_V1.0.4/Firmware_Software/DAVE project/P2G_FMCW/Libraries/XMCLib/inc\xmc_fce.h ****  * IEEE 802.3 ethernet CRC32, the CCITT CRC16 and the SAE J1850 CRC8 polynomials.
  74:E:/NOVA/Assets/IFX_P2G-HW-SW_V1.0.4/Firmware_Software/DAVE project/P2G_FMCW/Libraries/XMCLib/inc\xmc_fce.h ****  * The primary target of FCE is to be used as an hardware acceleration engine for software
  75:E:/NOVA/Assets/IFX_P2G-HW-SW_V1.0.4/Firmware_Software/DAVE project/P2G_FMCW/Libraries/XMCLib/inc\xmc_fce.h ****  * applications or operating systems services using CRC signatures.
  76:E:/NOVA/Assets/IFX_P2G-HW-SW_V1.0.4/Firmware_Software/DAVE project/P2G_FMCW/Libraries/XMCLib/inc\xmc_fce.h ****  *
  77:E:/NOVA/Assets/IFX_P2G-HW-SW_V1.0.4/Firmware_Software/DAVE project/P2G_FMCW/Libraries/XMCLib/inc\xmc_fce.h ****  * @image html fce_overview.png	 
  78:E:/NOVA/Assets/IFX_P2G-HW-SW_V1.0.4/Firmware_Software/DAVE project/P2G_FMCW/Libraries/XMCLib/inc\xmc_fce.h ****  * @image latex ../images/fce_overview.png	 
  79:E:/NOVA/Assets/IFX_P2G-HW-SW_V1.0.4/Firmware_Software/DAVE project/P2G_FMCW/Libraries/XMCLib/inc\xmc_fce.h ****  * FCE Features: <br>
  80:E:/NOVA/Assets/IFX_P2G-HW-SW_V1.0.4/Firmware_Software/DAVE project/P2G_FMCW/Libraries/XMCLib/inc\xmc_fce.h ****  * @image html fce_polynomials.png
  81:E:/NOVA/Assets/IFX_P2G-HW-SW_V1.0.4/Firmware_Software/DAVE project/P2G_FMCW/Libraries/XMCLib/inc\xmc_fce.h ****  * @image latex ../images/fce_polynomials.png
  82:E:/NOVA/Assets/IFX_P2G-HW-SW_V1.0.4/Firmware_Software/DAVE project/P2G_FMCW/Libraries/XMCLib/inc\xmc_fce.h ****  *    * CRC kernel 0 and 1: IEEE 802.3 CRC32 ethernet polynomial: 0x04C11DB71 <br>
  83:E:/NOVA/Assets/IFX_P2G-HW-SW_V1.0.4/Firmware_Software/DAVE project/P2G_FMCW/Libraries/XMCLib/inc\xmc_fce.h ****  *    * CRC kernel 2: CCITT CRC16 polynomial: 0x1021 <br>
  84:E:/NOVA/Assets/IFX_P2G-HW-SW_V1.0.4/Firmware_Software/DAVE project/P2G_FMCW/Libraries/XMCLib/inc\xmc_fce.h ****  *    * CRC kernel 3: SAE J1850 CRC8 polynomial: 0x1D <br>
  85:E:/NOVA/Assets/IFX_P2G-HW-SW_V1.0.4/Firmware_Software/DAVE project/P2G_FMCW/Libraries/XMCLib/inc\xmc_fce.h ****  *    * Configuration Registers enable to control the CRC operation and perform automatic checksum 
  86:E:/NOVA/Assets/IFX_P2G-HW-SW_V1.0.4/Firmware_Software/DAVE project/P2G_FMCW/Libraries/XMCLib/inc\xmc_fce.h ****  *      the end of a message. <br>
  87:E:/NOVA/Assets/IFX_P2G-HW-SW_V1.0.4/Firmware_Software/DAVE project/P2G_FMCW/Libraries/XMCLib/inc\xmc_fce.h ****  *    * Extended register interface to control reliability of FCE execution in safety applications.
  88:E:/NOVA/Assets/IFX_P2G-HW-SW_V1.0.4/Firmware_Software/DAVE project/P2G_FMCW/Libraries/XMCLib/inc\xmc_fce.h ****  *    * Error notification scheme via dedicated interrupt node for: <br>
  89:E:/NOVA/Assets/IFX_P2G-HW-SW_V1.0.4/Firmware_Software/DAVE project/P2G_FMCW/Libraries/XMCLib/inc\xmc_fce.h ****         a)Transient error detection: Error interrupt generation (maskable) with local status regist
  90:E:/NOVA/Assets/IFX_P2G-HW-SW_V1.0.4/Firmware_Software/DAVE project/P2G_FMCW/Libraries/XMCLib/inc\xmc_fce.h **** 		  (cleared by software) <br>
  91:E:/NOVA/Assets/IFX_P2G-HW-SW_V1.0.4/Firmware_Software/DAVE project/P2G_FMCW/Libraries/XMCLib/inc\xmc_fce.h ****         b)Checksum failure: Error interrupt generation (maskable) with local status register (clear
  92:E:/NOVA/Assets/IFX_P2G-HW-SW_V1.0.4/Firmware_Software/DAVE project/P2G_FMCW/Libraries/XMCLib/inc\xmc_fce.h **** 		
  93:E:/NOVA/Assets/IFX_P2G-HW-SW_V1.0.4/Firmware_Software/DAVE project/P2G_FMCW/Libraries/XMCLib/inc\xmc_fce.h ****      FCE provides one interrupt line to the interrupt system. Each CRC engine has its own set of fl
  94:E:/NOVA/Assets/IFX_P2G-HW-SW_V1.0.4/Firmware_Software/DAVE project/P2G_FMCW/Libraries/XMCLib/inc\xmc_fce.h **** 
  95:E:/NOVA/Assets/IFX_P2G-HW-SW_V1.0.4/Firmware_Software/DAVE project/P2G_FMCW/Libraries/XMCLib/inc\xmc_fce.h ****  * @{
  96:E:/NOVA/Assets/IFX_P2G-HW-SW_V1.0.4/Firmware_Software/DAVE project/P2G_FMCW/Libraries/XMCLib/inc\xmc_fce.h ****  */
  97:E:/NOVA/Assets/IFX_P2G-HW-SW_V1.0.4/Firmware_Software/DAVE project/P2G_FMCW/Libraries/XMCLib/inc\xmc_fce.h ****  
  98:E:/NOVA/Assets/IFX_P2G-HW-SW_V1.0.4/Firmware_Software/DAVE project/P2G_FMCW/Libraries/XMCLib/inc\xmc_fce.h **** /**************************************************************************************************
  99:E:/NOVA/Assets/IFX_P2G-HW-SW_V1.0.4/Firmware_Software/DAVE project/P2G_FMCW/Libraries/XMCLib/inc\xmc_fce.h ****  * MACROS
 100:E:/NOVA/Assets/IFX_P2G-HW-SW_V1.0.4/Firmware_Software/DAVE project/P2G_FMCW/Libraries/XMCLib/inc\xmc_fce.h ****  **************************************************************************************************
 101:E:/NOVA/Assets/IFX_P2G-HW-SW_V1.0.4/Firmware_Software/DAVE project/P2G_FMCW/Libraries/XMCLib/inc\xmc_fce.h ****  
 102:E:/NOVA/Assets/IFX_P2G-HW-SW_V1.0.4/Firmware_Software/DAVE project/P2G_FMCW/Libraries/XMCLib/inc\xmc_fce.h **** #define XMC_FCE_CRC32_0        FCE_KE0 /**< Kernel 0 <br> */
 103:E:/NOVA/Assets/IFX_P2G-HW-SW_V1.0.4/Firmware_Software/DAVE project/P2G_FMCW/Libraries/XMCLib/inc\xmc_fce.h **** #define XMC_FCE_CRC32_1        FCE_KE1 /**< Kernel 1 <br> */
 104:E:/NOVA/Assets/IFX_P2G-HW-SW_V1.0.4/Firmware_Software/DAVE project/P2G_FMCW/Libraries/XMCLib/inc\xmc_fce.h **** #define XMC_FCE_CRC16          FCE_KE2 /**< Kernel 2 <br> */
 105:E:/NOVA/Assets/IFX_P2G-HW-SW_V1.0.4/Firmware_Software/DAVE project/P2G_FMCW/Libraries/XMCLib/inc\xmc_fce.h **** #define XMC_FCE_CRC8           FCE_KE3 /**< Kernel 3 <br> */
 106:E:/NOVA/Assets/IFX_P2G-HW-SW_V1.0.4/Firmware_Software/DAVE project/P2G_FMCW/Libraries/XMCLib/inc\xmc_fce.h **** 
 107:E:/NOVA/Assets/IFX_P2G-HW-SW_V1.0.4/Firmware_Software/DAVE project/P2G_FMCW/Libraries/XMCLib/inc\xmc_fce.h **** #define XMC_FCE_REFIN_SET      (1U) /**< Enables input reflection */
 108:E:/NOVA/Assets/IFX_P2G-HW-SW_V1.0.4/Firmware_Software/DAVE project/P2G_FMCW/Libraries/XMCLib/inc\xmc_fce.h **** #define XMC_FCE_REFIN_RESET    (0U) /**< Disables input reflection */
 109:E:/NOVA/Assets/IFX_P2G-HW-SW_V1.0.4/Firmware_Software/DAVE project/P2G_FMCW/Libraries/XMCLib/inc\xmc_fce.h **** #define XMC_FCE_REFOUT_SET     (1U) /**< Enables output reflection */
 110:E:/NOVA/Assets/IFX_P2G-HW-SW_V1.0.4/Firmware_Software/DAVE project/P2G_FMCW/Libraries/XMCLib/inc\xmc_fce.h **** #define XMC_FCE_REFOUT_RESET   (0U) /**< Disables output reflection */
 111:E:/NOVA/Assets/IFX_P2G-HW-SW_V1.0.4/Firmware_Software/DAVE project/P2G_FMCW/Libraries/XMCLib/inc\xmc_fce.h **** #define XMC_FCE_INVSEL_SET     (1U) /**< Enables output inversion */
 112:E:/NOVA/Assets/IFX_P2G-HW-SW_V1.0.4/Firmware_Software/DAVE project/P2G_FMCW/Libraries/XMCLib/inc\xmc_fce.h **** #define XMC_FCE_INVSEL_RESET   (0U) /**< Disables output inversion */
 113:E:/NOVA/Assets/IFX_P2G-HW-SW_V1.0.4/Firmware_Software/DAVE project/P2G_FMCW/Libraries/XMCLib/inc\xmc_fce.h **** 
 114:E:/NOVA/Assets/IFX_P2G-HW-SW_V1.0.4/Firmware_Software/DAVE project/P2G_FMCW/Libraries/XMCLib/inc\xmc_fce.h **** /**************************************************************************************************
 115:E:/NOVA/Assets/IFX_P2G-HW-SW_V1.0.4/Firmware_Software/DAVE project/P2G_FMCW/Libraries/XMCLib/inc\xmc_fce.h ****  * ENUMS
 116:E:/NOVA/Assets/IFX_P2G-HW-SW_V1.0.4/Firmware_Software/DAVE project/P2G_FMCW/Libraries/XMCLib/inc\xmc_fce.h ****  **************************************************************************************************
 117:E:/NOVA/Assets/IFX_P2G-HW-SW_V1.0.4/Firmware_Software/DAVE project/P2G_FMCW/Libraries/XMCLib/inc\xmc_fce.h ****  
 118:E:/NOVA/Assets/IFX_P2G-HW-SW_V1.0.4/Firmware_Software/DAVE project/P2G_FMCW/Libraries/XMCLib/inc\xmc_fce.h **** /**
 119:E:/NOVA/Assets/IFX_P2G-HW-SW_V1.0.4/Firmware_Software/DAVE project/P2G_FMCW/Libraries/XMCLib/inc\xmc_fce.h ****  * FCE interrupt configuration
 120:E:/NOVA/Assets/IFX_P2G-HW-SW_V1.0.4/Firmware_Software/DAVE project/P2G_FMCW/Libraries/XMCLib/inc\xmc_fce.h ****  */
 121:E:/NOVA/Assets/IFX_P2G-HW-SW_V1.0.4/Firmware_Software/DAVE project/P2G_FMCW/Libraries/XMCLib/inc\xmc_fce.h **** typedef enum XMC_FCE_CONFIG_INTERRUPT
 122:E:/NOVA/Assets/IFX_P2G-HW-SW_V1.0.4/Firmware_Software/DAVE project/P2G_FMCW/Libraries/XMCLib/inc\xmc_fce.h **** {
 123:E:/NOVA/Assets/IFX_P2G-HW-SW_V1.0.4/Firmware_Software/DAVE project/P2G_FMCW/Libraries/XMCLib/inc\xmc_fce.h ****   XMC_FCE_CFG_CONFIG_CMI = FCE_KE_CFG_CMI_Msk, /**< Enables CRC Mismatch interrupt \n*/
 124:E:/NOVA/Assets/IFX_P2G-HW-SW_V1.0.4/Firmware_Software/DAVE project/P2G_FMCW/Libraries/XMCLib/inc\xmc_fce.h ****   XMC_FCE_CFG_CONFIG_CEI = FCE_KE_CFG_CEI_Msk, /**< Enables Configuration error interrupt \n*/
 125:E:/NOVA/Assets/IFX_P2G-HW-SW_V1.0.4/Firmware_Software/DAVE project/P2G_FMCW/Libraries/XMCLib/inc\xmc_fce.h ****   XMC_FCE_CFG_CONFIG_LEI = FCE_KE_CFG_LEI_Msk, /**< Enables Length error interrupt \n*/
 126:E:/NOVA/Assets/IFX_P2G-HW-SW_V1.0.4/Firmware_Software/DAVE project/P2G_FMCW/Libraries/XMCLib/inc\xmc_fce.h ****   XMC_FCE_CFG_CONFIG_BEI = FCE_KE_CFG_BEI_Msk  /**< Enables Bus error interrupt \n*/
 127:E:/NOVA/Assets/IFX_P2G-HW-SW_V1.0.4/Firmware_Software/DAVE project/P2G_FMCW/Libraries/XMCLib/inc\xmc_fce.h **** } XMC_FCE_CONFIG_INTERRUPT_t;
 128:E:/NOVA/Assets/IFX_P2G-HW-SW_V1.0.4/Firmware_Software/DAVE project/P2G_FMCW/Libraries/XMCLib/inc\xmc_fce.h **** 
 129:E:/NOVA/Assets/IFX_P2G-HW-SW_V1.0.4/Firmware_Software/DAVE project/P2G_FMCW/Libraries/XMCLib/inc\xmc_fce.h **** /**
 130:E:/NOVA/Assets/IFX_P2G-HW-SW_V1.0.4/Firmware_Software/DAVE project/P2G_FMCW/Libraries/XMCLib/inc\xmc_fce.h ****  * FCE operation configuration
 131:E:/NOVA/Assets/IFX_P2G-HW-SW_V1.0.4/Firmware_Software/DAVE project/P2G_FMCW/Libraries/XMCLib/inc\xmc_fce.h ****  */
 132:E:/NOVA/Assets/IFX_P2G-HW-SW_V1.0.4/Firmware_Software/DAVE project/P2G_FMCW/Libraries/XMCLib/inc\xmc_fce.h **** typedef enum XMC_FCE_CONFIG_OPERATION
 133:E:/NOVA/Assets/IFX_P2G-HW-SW_V1.0.4/Firmware_Software/DAVE project/P2G_FMCW/Libraries/XMCLib/inc\xmc_fce.h **** {
 134:E:/NOVA/Assets/IFX_P2G-HW-SW_V1.0.4/Firmware_Software/DAVE project/P2G_FMCW/Libraries/XMCLib/inc\xmc_fce.h ****   XMC_FCE_CFG_CONFIG_CCE = FCE_KE_CFG_CCE_Msk, /**< Enables CRC check */
 135:E:/NOVA/Assets/IFX_P2G-HW-SW_V1.0.4/Firmware_Software/DAVE project/P2G_FMCW/Libraries/XMCLib/inc\xmc_fce.h ****   XMC_FCE_CFG_CONFIG_ALR = FCE_KE_CFG_ALR_Msk  /**< Enables Automatic length reload */
 136:E:/NOVA/Assets/IFX_P2G-HW-SW_V1.0.4/Firmware_Software/DAVE project/P2G_FMCW/Libraries/XMCLib/inc\xmc_fce.h **** } XMC_FCE_CONFIG_OPERATION_t;
 137:E:/NOVA/Assets/IFX_P2G-HW-SW_V1.0.4/Firmware_Software/DAVE project/P2G_FMCW/Libraries/XMCLib/inc\xmc_fce.h **** 
 138:E:/NOVA/Assets/IFX_P2G-HW-SW_V1.0.4/Firmware_Software/DAVE project/P2G_FMCW/Libraries/XMCLib/inc\xmc_fce.h **** /**
 139:E:/NOVA/Assets/IFX_P2G-HW-SW_V1.0.4/Firmware_Software/DAVE project/P2G_FMCW/Libraries/XMCLib/inc\xmc_fce.h ****  * FCE algorithm configuration
 140:E:/NOVA/Assets/IFX_P2G-HW-SW_V1.0.4/Firmware_Software/DAVE project/P2G_FMCW/Libraries/XMCLib/inc\xmc_fce.h ****  */
 141:E:/NOVA/Assets/IFX_P2G-HW-SW_V1.0.4/Firmware_Software/DAVE project/P2G_FMCW/Libraries/XMCLib/inc\xmc_fce.h **** typedef enum XMC_FCE_CONFIG_ALGO
 142:E:/NOVA/Assets/IFX_P2G-HW-SW_V1.0.4/Firmware_Software/DAVE project/P2G_FMCW/Libraries/XMCLib/inc\xmc_fce.h **** {
 143:E:/NOVA/Assets/IFX_P2G-HW-SW_V1.0.4/Firmware_Software/DAVE project/P2G_FMCW/Libraries/XMCLib/inc\xmc_fce.h ****   XMC_FCE_CFG_CONFIG_REFIN  = FCE_KE_CFG_REFIN_Msk,  /**< Enables input byte reflection */
 144:E:/NOVA/Assets/IFX_P2G-HW-SW_V1.0.4/Firmware_Software/DAVE project/P2G_FMCW/Libraries/XMCLib/inc\xmc_fce.h ****   XMC_FCE_CFG_CONFIG_REFOUT = FCE_KE_CFG_REFOUT_Msk, /**< Enables Final CRC reflection */
 145:E:/NOVA/Assets/IFX_P2G-HW-SW_V1.0.4/Firmware_Software/DAVE project/P2G_FMCW/Libraries/XMCLib/inc\xmc_fce.h ****   XMC_FCE_CFG_CONFIG_XSEL   = FCE_KE_CFG_XSEL_Msk    /**< Enables output inversion */
 146:E:/NOVA/Assets/IFX_P2G-HW-SW_V1.0.4/Firmware_Software/DAVE project/P2G_FMCW/Libraries/XMCLib/inc\xmc_fce.h **** } XMC_FCE_CONFIG_ALGO_t;
 147:E:/NOVA/Assets/IFX_P2G-HW-SW_V1.0.4/Firmware_Software/DAVE project/P2G_FMCW/Libraries/XMCLib/inc\xmc_fce.h **** 
 148:E:/NOVA/Assets/IFX_P2G-HW-SW_V1.0.4/Firmware_Software/DAVE project/P2G_FMCW/Libraries/XMCLib/inc\xmc_fce.h **** /**
 149:E:/NOVA/Assets/IFX_P2G-HW-SW_V1.0.4/Firmware_Software/DAVE project/P2G_FMCW/Libraries/XMCLib/inc\xmc_fce.h ****  * FCE status flag configuration
 150:E:/NOVA/Assets/IFX_P2G-HW-SW_V1.0.4/Firmware_Software/DAVE project/P2G_FMCW/Libraries/XMCLib/inc\xmc_fce.h ****  */
 151:E:/NOVA/Assets/IFX_P2G-HW-SW_V1.0.4/Firmware_Software/DAVE project/P2G_FMCW/Libraries/XMCLib/inc\xmc_fce.h **** typedef enum XMC_FCE_STS_FLAG
 152:E:/NOVA/Assets/IFX_P2G-HW-SW_V1.0.4/Firmware_Software/DAVE project/P2G_FMCW/Libraries/XMCLib/inc\xmc_fce.h **** {
 153:E:/NOVA/Assets/IFX_P2G-HW-SW_V1.0.4/Firmware_Software/DAVE project/P2G_FMCW/Libraries/XMCLib/inc\xmc_fce.h ****   XMC_FCE_STS_MISMATCH_CRC = FCE_KE_STS_CMF_Msk, /**< CRC Mismatch flag */
 154:E:/NOVA/Assets/IFX_P2G-HW-SW_V1.0.4/Firmware_Software/DAVE project/P2G_FMCW/Libraries/XMCLib/inc\xmc_fce.h ****   XMC_FCE_STS_CONFIG_ERROR = FCE_KE_STS_CEF_Msk, /**< Configuration Error flag */
 155:E:/NOVA/Assets/IFX_P2G-HW-SW_V1.0.4/Firmware_Software/DAVE project/P2G_FMCW/Libraries/XMCLib/inc\xmc_fce.h ****   XMC_FCE_STS_LENGTH_ERROR = FCE_KE_STS_LEF_Msk, /**< Length Error flag */
 156:E:/NOVA/Assets/IFX_P2G-HW-SW_V1.0.4/Firmware_Software/DAVE project/P2G_FMCW/Libraries/XMCLib/inc\xmc_fce.h ****   XMC_FCE_STS_BUS_ERROR    = FCE_KE_STS_BEF_Msk	 /**< Bus Error flag */
 157:E:/NOVA/Assets/IFX_P2G-HW-SW_V1.0.4/Firmware_Software/DAVE project/P2G_FMCW/Libraries/XMCLib/inc\xmc_fce.h **** } XMC_FCE_STS_FLAG_t;
 158:E:/NOVA/Assets/IFX_P2G-HW-SW_V1.0.4/Firmware_Software/DAVE project/P2G_FMCW/Libraries/XMCLib/inc\xmc_fce.h **** 
 159:E:/NOVA/Assets/IFX_P2G-HW-SW_V1.0.4/Firmware_Software/DAVE project/P2G_FMCW/Libraries/XMCLib/inc\xmc_fce.h **** /**
 160:E:/NOVA/Assets/IFX_P2G-HW-SW_V1.0.4/Firmware_Software/DAVE project/P2G_FMCW/Libraries/XMCLib/inc\xmc_fce.h ****  * FCE control configuration
 161:E:/NOVA/Assets/IFX_P2G-HW-SW_V1.0.4/Firmware_Software/DAVE project/P2G_FMCW/Libraries/XMCLib/inc\xmc_fce.h ****  */
 162:E:/NOVA/Assets/IFX_P2G-HW-SW_V1.0.4/Firmware_Software/DAVE project/P2G_FMCW/Libraries/XMCLib/inc\xmc_fce.h **** typedef enum XMC_FCE_CTR_TEST
 163:E:/NOVA/Assets/IFX_P2G-HW-SW_V1.0.4/Firmware_Software/DAVE project/P2G_FMCW/Libraries/XMCLib/inc\xmc_fce.h **** {
 164:E:/NOVA/Assets/IFX_P2G-HW-SW_V1.0.4/Firmware_Software/DAVE project/P2G_FMCW/Libraries/XMCLib/inc\xmc_fce.h ****   XMC_FCE_CTR_MISMATCH_CRC   = FCE_KE_CTR_FCM_Msk,      /**< Forces CRC mismatch */
 165:E:/NOVA/Assets/IFX_P2G-HW-SW_V1.0.4/Firmware_Software/DAVE project/P2G_FMCW/Libraries/XMCLib/inc\xmc_fce.h ****   XMC_FCE_CTR_MISMATCH_CFG   = FCE_KE_CTR_FRM_CFG_Msk,	/**< Forces CFG Register mismatch */
 166:E:/NOVA/Assets/IFX_P2G-HW-SW_V1.0.4/Firmware_Software/DAVE project/P2G_FMCW/Libraries/XMCLib/inc\xmc_fce.h ****   XMC_FCE_CTR_MISMATCH_CHECK = FCE_KE_CTR_FRM_CHECK_Msk /**< Forces CRC Check Register mismatch */
 167:E:/NOVA/Assets/IFX_P2G-HW-SW_V1.0.4/Firmware_Software/DAVE project/P2G_FMCW/Libraries/XMCLib/inc\xmc_fce.h **** } XMC_FCE_CTR_TEST_t;
 168:E:/NOVA/Assets/IFX_P2G-HW-SW_V1.0.4/Firmware_Software/DAVE project/P2G_FMCW/Libraries/XMCLib/inc\xmc_fce.h **** 
 169:E:/NOVA/Assets/IFX_P2G-HW-SW_V1.0.4/Firmware_Software/DAVE project/P2G_FMCW/Libraries/XMCLib/inc\xmc_fce.h **** /**
 170:E:/NOVA/Assets/IFX_P2G-HW-SW_V1.0.4/Firmware_Software/DAVE project/P2G_FMCW/Libraries/XMCLib/inc\xmc_fce.h ****  * FCE status enumeration
 171:E:/NOVA/Assets/IFX_P2G-HW-SW_V1.0.4/Firmware_Software/DAVE project/P2G_FMCW/Libraries/XMCLib/inc\xmc_fce.h ****  */
 172:E:/NOVA/Assets/IFX_P2G-HW-SW_V1.0.4/Firmware_Software/DAVE project/P2G_FMCW/Libraries/XMCLib/inc\xmc_fce.h **** typedef enum XMC_FCE_STATUS
 173:E:/NOVA/Assets/IFX_P2G-HW-SW_V1.0.4/Firmware_Software/DAVE project/P2G_FMCW/Libraries/XMCLib/inc\xmc_fce.h **** {
 174:E:/NOVA/Assets/IFX_P2G-HW-SW_V1.0.4/Firmware_Software/DAVE project/P2G_FMCW/Libraries/XMCLib/inc\xmc_fce.h ****   XMC_FCE_STATUS_OK = 0, /**< Returns OK on success */
 175:E:/NOVA/Assets/IFX_P2G-HW-SW_V1.0.4/Firmware_Software/DAVE project/P2G_FMCW/Libraries/XMCLib/inc\xmc_fce.h ****   XMC_FCE_STATUS_BUSY,   /**< Returns BUSY when API is busy with a previous request */
 176:E:/NOVA/Assets/IFX_P2G-HW-SW_V1.0.4/Firmware_Software/DAVE project/P2G_FMCW/Libraries/XMCLib/inc\xmc_fce.h ****   XMC_FCE_STATUS_ERROR   /**< Returns ERROR when API cannot fulfil request */
 177:E:/NOVA/Assets/IFX_P2G-HW-SW_V1.0.4/Firmware_Software/DAVE project/P2G_FMCW/Libraries/XMCLib/inc\xmc_fce.h **** } XMC_FCE_STATUS_t;
 178:E:/NOVA/Assets/IFX_P2G-HW-SW_V1.0.4/Firmware_Software/DAVE project/P2G_FMCW/Libraries/XMCLib/inc\xmc_fce.h **** 
 179:E:/NOVA/Assets/IFX_P2G-HW-SW_V1.0.4/Firmware_Software/DAVE project/P2G_FMCW/Libraries/XMCLib/inc\xmc_fce.h **** /**************************************************************************************************
 180:E:/NOVA/Assets/IFX_P2G-HW-SW_V1.0.4/Firmware_Software/DAVE project/P2G_FMCW/Libraries/XMCLib/inc\xmc_fce.h ****  * DATA STRUCTURES
 181:E:/NOVA/Assets/IFX_P2G-HW-SW_V1.0.4/Firmware_Software/DAVE project/P2G_FMCW/Libraries/XMCLib/inc\xmc_fce.h ****  **************************************************************************************************
 182:E:/NOVA/Assets/IFX_P2G-HW-SW_V1.0.4/Firmware_Software/DAVE project/P2G_FMCW/Libraries/XMCLib/inc\xmc_fce.h **** 
 183:E:/NOVA/Assets/IFX_P2G-HW-SW_V1.0.4/Firmware_Software/DAVE project/P2G_FMCW/Libraries/XMCLib/inc\xmc_fce.h **** /**
 184:E:/NOVA/Assets/IFX_P2G-HW-SW_V1.0.4/Firmware_Software/DAVE project/P2G_FMCW/Libraries/XMCLib/inc\xmc_fce.h ****  * FCE kernel
 185:E:/NOVA/Assets/IFX_P2G-HW-SW_V1.0.4/Firmware_Software/DAVE project/P2G_FMCW/Libraries/XMCLib/inc\xmc_fce.h ****  */ 
 186:E:/NOVA/Assets/IFX_P2G-HW-SW_V1.0.4/Firmware_Software/DAVE project/P2G_FMCW/Libraries/XMCLib/inc\xmc_fce.h **** typedef FCE_KE_TypeDef XMC_FCE_Kernel_t;
 187:E:/NOVA/Assets/IFX_P2G-HW-SW_V1.0.4/Firmware_Software/DAVE project/P2G_FMCW/Libraries/XMCLib/inc\xmc_fce.h **** 
 188:E:/NOVA/Assets/IFX_P2G-HW-SW_V1.0.4/Firmware_Software/DAVE project/P2G_FMCW/Libraries/XMCLib/inc\xmc_fce.h **** /* Anonymous structure/union guard start */
 189:E:/NOVA/Assets/IFX_P2G-HW-SW_V1.0.4/Firmware_Software/DAVE project/P2G_FMCW/Libraries/XMCLib/inc\xmc_fce.h **** #if defined (__CC_ARM)
 190:E:/NOVA/Assets/IFX_P2G-HW-SW_V1.0.4/Firmware_Software/DAVE project/P2G_FMCW/Libraries/XMCLib/inc\xmc_fce.h ****   #pragma push
 191:E:/NOVA/Assets/IFX_P2G-HW-SW_V1.0.4/Firmware_Software/DAVE project/P2G_FMCW/Libraries/XMCLib/inc\xmc_fce.h ****   #pragma anon_unions
 192:E:/NOVA/Assets/IFX_P2G-HW-SW_V1.0.4/Firmware_Software/DAVE project/P2G_FMCW/Libraries/XMCLib/inc\xmc_fce.h **** #elif defined (__TASKING__)
 193:E:/NOVA/Assets/IFX_P2G-HW-SW_V1.0.4/Firmware_Software/DAVE project/P2G_FMCW/Libraries/XMCLib/inc\xmc_fce.h ****   #pragma warning 586
 194:E:/NOVA/Assets/IFX_P2G-HW-SW_V1.0.4/Firmware_Software/DAVE project/P2G_FMCW/Libraries/XMCLib/inc\xmc_fce.h **** #endif
 195:E:/NOVA/Assets/IFX_P2G-HW-SW_V1.0.4/Firmware_Software/DAVE project/P2G_FMCW/Libraries/XMCLib/inc\xmc_fce.h **** 
 196:E:/NOVA/Assets/IFX_P2G-HW-SW_V1.0.4/Firmware_Software/DAVE project/P2G_FMCW/Libraries/XMCLib/inc\xmc_fce.h **** /**
 197:E:/NOVA/Assets/IFX_P2G-HW-SW_V1.0.4/Firmware_Software/DAVE project/P2G_FMCW/Libraries/XMCLib/inc\xmc_fce.h ****  * @brief XMC_FCE configuration structure
 198:E:/NOVA/Assets/IFX_P2G-HW-SW_V1.0.4/Firmware_Software/DAVE project/P2G_FMCW/Libraries/XMCLib/inc\xmc_fce.h ****  */
 199:E:/NOVA/Assets/IFX_P2G-HW-SW_V1.0.4/Firmware_Software/DAVE project/P2G_FMCW/Libraries/XMCLib/inc\xmc_fce.h **** typedef struct XMC_FCE_CONFIG
 200:E:/NOVA/Assets/IFX_P2G-HW-SW_V1.0.4/Firmware_Software/DAVE project/P2G_FMCW/Libraries/XMCLib/inc\xmc_fce.h **** {
 201:E:/NOVA/Assets/IFX_P2G-HW-SW_V1.0.4/Firmware_Software/DAVE project/P2G_FMCW/Libraries/XMCLib/inc\xmc_fce.h ****   union
 202:E:/NOVA/Assets/IFX_P2G-HW-SW_V1.0.4/Firmware_Software/DAVE project/P2G_FMCW/Libraries/XMCLib/inc\xmc_fce.h ****   {
 203:E:/NOVA/Assets/IFX_P2G-HW-SW_V1.0.4/Firmware_Software/DAVE project/P2G_FMCW/Libraries/XMCLib/inc\xmc_fce.h ****     uint32_t regval;
 204:E:/NOVA/Assets/IFX_P2G-HW-SW_V1.0.4/Firmware_Software/DAVE project/P2G_FMCW/Libraries/XMCLib/inc\xmc_fce.h ****     struct
 205:E:/NOVA/Assets/IFX_P2G-HW-SW_V1.0.4/Firmware_Software/DAVE project/P2G_FMCW/Libraries/XMCLib/inc\xmc_fce.h ****     {
 206:E:/NOVA/Assets/IFX_P2G-HW-SW_V1.0.4/Firmware_Software/DAVE project/P2G_FMCW/Libraries/XMCLib/inc\xmc_fce.h **** 	  uint32_t               : 8;
 207:E:/NOVA/Assets/IFX_P2G-HW-SW_V1.0.4/Firmware_Software/DAVE project/P2G_FMCW/Libraries/XMCLib/inc\xmc_fce.h ****       uint32_t config_refin  : 1;  /**< Enables byte-wise reflection */
 208:E:/NOVA/Assets/IFX_P2G-HW-SW_V1.0.4/Firmware_Software/DAVE project/P2G_FMCW/Libraries/XMCLib/inc\xmc_fce.h ****       uint32_t config_refout : 1;  /**< Enables bit-wise reflection */
 209:E:/NOVA/Assets/IFX_P2G-HW-SW_V1.0.4/Firmware_Software/DAVE project/P2G_FMCW/Libraries/XMCLib/inc\xmc_fce.h ****       uint32_t config_xsel   : 1;  /**< Enables output inversion */
 210:E:/NOVA/Assets/IFX_P2G-HW-SW_V1.0.4/Firmware_Software/DAVE project/P2G_FMCW/Libraries/XMCLib/inc\xmc_fce.h ****       uint32_t               : 21; /**< Reserved bits */	  
 211:E:/NOVA/Assets/IFX_P2G-HW-SW_V1.0.4/Firmware_Software/DAVE project/P2G_FMCW/Libraries/XMCLib/inc\xmc_fce.h ****     };
 212:E:/NOVA/Assets/IFX_P2G-HW-SW_V1.0.4/Firmware_Software/DAVE project/P2G_FMCW/Libraries/XMCLib/inc\xmc_fce.h ****   };
 213:E:/NOVA/Assets/IFX_P2G-HW-SW_V1.0.4/Firmware_Software/DAVE project/P2G_FMCW/Libraries/XMCLib/inc\xmc_fce.h **** } XMC_FCE_CONFIG_t;
 214:E:/NOVA/Assets/IFX_P2G-HW-SW_V1.0.4/Firmware_Software/DAVE project/P2G_FMCW/Libraries/XMCLib/inc\xmc_fce.h **** 
 215:E:/NOVA/Assets/IFX_P2G-HW-SW_V1.0.4/Firmware_Software/DAVE project/P2G_FMCW/Libraries/XMCLib/inc\xmc_fce.h **** /* Anonymous structure/union guard end */
 216:E:/NOVA/Assets/IFX_P2G-HW-SW_V1.0.4/Firmware_Software/DAVE project/P2G_FMCW/Libraries/XMCLib/inc\xmc_fce.h **** #if defined (__CC_ARM)
 217:E:/NOVA/Assets/IFX_P2G-HW-SW_V1.0.4/Firmware_Software/DAVE project/P2G_FMCW/Libraries/XMCLib/inc\xmc_fce.h ****   #pragma pop
 218:E:/NOVA/Assets/IFX_P2G-HW-SW_V1.0.4/Firmware_Software/DAVE project/P2G_FMCW/Libraries/XMCLib/inc\xmc_fce.h **** #elif defined (__TASKING__)
 219:E:/NOVA/Assets/IFX_P2G-HW-SW_V1.0.4/Firmware_Software/DAVE project/P2G_FMCW/Libraries/XMCLib/inc\xmc_fce.h ****   #pragma warning restore
 220:E:/NOVA/Assets/IFX_P2G-HW-SW_V1.0.4/Firmware_Software/DAVE project/P2G_FMCW/Libraries/XMCLib/inc\xmc_fce.h **** #endif
 221:E:/NOVA/Assets/IFX_P2G-HW-SW_V1.0.4/Firmware_Software/DAVE project/P2G_FMCW/Libraries/XMCLib/inc\xmc_fce.h **** 
 222:E:/NOVA/Assets/IFX_P2G-HW-SW_V1.0.4/Firmware_Software/DAVE project/P2G_FMCW/Libraries/XMCLib/inc\xmc_fce.h **** /**
 223:E:/NOVA/Assets/IFX_P2G-HW-SW_V1.0.4/Firmware_Software/DAVE project/P2G_FMCW/Libraries/XMCLib/inc\xmc_fce.h ****  * FCE handler
 224:E:/NOVA/Assets/IFX_P2G-HW-SW_V1.0.4/Firmware_Software/DAVE project/P2G_FMCW/Libraries/XMCLib/inc\xmc_fce.h ****  */
 225:E:/NOVA/Assets/IFX_P2G-HW-SW_V1.0.4/Firmware_Software/DAVE project/P2G_FMCW/Libraries/XMCLib/inc\xmc_fce.h **** typedef struct XMC_FCE
 226:E:/NOVA/Assets/IFX_P2G-HW-SW_V1.0.4/Firmware_Software/DAVE project/P2G_FMCW/Libraries/XMCLib/inc\xmc_fce.h **** {
 227:E:/NOVA/Assets/IFX_P2G-HW-SW_V1.0.4/Firmware_Software/DAVE project/P2G_FMCW/Libraries/XMCLib/inc\xmc_fce.h ****   XMC_FCE_Kernel_t *kernel_ptr;    /**< FCE Kernel Pointer */
 228:E:/NOVA/Assets/IFX_P2G-HW-SW_V1.0.4/Firmware_Software/DAVE project/P2G_FMCW/Libraries/XMCLib/inc\xmc_fce.h ****   XMC_FCE_CONFIG_t fce_cfg_update; /**< FCE CFG register update */
 229:E:/NOVA/Assets/IFX_P2G-HW-SW_V1.0.4/Firmware_Software/DAVE project/P2G_FMCW/Libraries/XMCLib/inc\xmc_fce.h ****   uint32_t seedvalue;              /**< CRC seed value to be used */
 230:E:/NOVA/Assets/IFX_P2G-HW-SW_V1.0.4/Firmware_Software/DAVE project/P2G_FMCW/Libraries/XMCLib/inc\xmc_fce.h **** } XMC_FCE_t;
 231:E:/NOVA/Assets/IFX_P2G-HW-SW_V1.0.4/Firmware_Software/DAVE project/P2G_FMCW/Libraries/XMCLib/inc\xmc_fce.h **** 
 232:E:/NOVA/Assets/IFX_P2G-HW-SW_V1.0.4/Firmware_Software/DAVE project/P2G_FMCW/Libraries/XMCLib/inc\xmc_fce.h **** /**************************************************************************************************
 233:E:/NOVA/Assets/IFX_P2G-HW-SW_V1.0.4/Firmware_Software/DAVE project/P2G_FMCW/Libraries/XMCLib/inc\xmc_fce.h ****  * API PROTOTYPES
 234:E:/NOVA/Assets/IFX_P2G-HW-SW_V1.0.4/Firmware_Software/DAVE project/P2G_FMCW/Libraries/XMCLib/inc\xmc_fce.h ****  **************************************************************************************************
 235:E:/NOVA/Assets/IFX_P2G-HW-SW_V1.0.4/Firmware_Software/DAVE project/P2G_FMCW/Libraries/XMCLib/inc\xmc_fce.h ****  
 236:E:/NOVA/Assets/IFX_P2G-HW-SW_V1.0.4/Firmware_Software/DAVE project/P2G_FMCW/Libraries/XMCLib/inc\xmc_fce.h **** #ifdef __cplusplus
 237:E:/NOVA/Assets/IFX_P2G-HW-SW_V1.0.4/Firmware_Software/DAVE project/P2G_FMCW/Libraries/XMCLib/inc\xmc_fce.h **** extern "C" {
 238:E:/NOVA/Assets/IFX_P2G-HW-SW_V1.0.4/Firmware_Software/DAVE project/P2G_FMCW/Libraries/XMCLib/inc\xmc_fce.h **** #endif
 239:E:/NOVA/Assets/IFX_P2G-HW-SW_V1.0.4/Firmware_Software/DAVE project/P2G_FMCW/Libraries/XMCLib/inc\xmc_fce.h ****  
 240:E:/NOVA/Assets/IFX_P2G-HW-SW_V1.0.4/Firmware_Software/DAVE project/P2G_FMCW/Libraries/XMCLib/inc\xmc_fce.h **** /**
 241:E:/NOVA/Assets/IFX_P2G-HW-SW_V1.0.4/Firmware_Software/DAVE project/P2G_FMCW/Libraries/XMCLib/inc\xmc_fce.h ****  * @param None
 242:E:/NOVA/Assets/IFX_P2G-HW-SW_V1.0.4/Firmware_Software/DAVE project/P2G_FMCW/Libraries/XMCLib/inc\xmc_fce.h ****  * @return uint32_t Module revision number
 243:E:/NOVA/Assets/IFX_P2G-HW-SW_V1.0.4/Firmware_Software/DAVE project/P2G_FMCW/Libraries/XMCLib/inc\xmc_fce.h ****  *
 244:E:/NOVA/Assets/IFX_P2G-HW-SW_V1.0.4/Firmware_Software/DAVE project/P2G_FMCW/Libraries/XMCLib/inc\xmc_fce.h ****  * \par<b>Description: </b><br>
 245:E:/NOVA/Assets/IFX_P2G-HW-SW_V1.0.4/Firmware_Software/DAVE project/P2G_FMCW/Libraries/XMCLib/inc\xmc_fce.h ****  * Read FCE module revision number <br>
 246:E:/NOVA/Assets/IFX_P2G-HW-SW_V1.0.4/Firmware_Software/DAVE project/P2G_FMCW/Libraries/XMCLib/inc\xmc_fce.h ****  * 
 247:E:/NOVA/Assets/IFX_P2G-HW-SW_V1.0.4/Firmware_Software/DAVE project/P2G_FMCW/Libraries/XMCLib/inc\xmc_fce.h ****  * \par
 248:E:/NOVA/Assets/IFX_P2G-HW-SW_V1.0.4/Firmware_Software/DAVE project/P2G_FMCW/Libraries/XMCLib/inc\xmc_fce.h ****  * The value of a module revision starts with 0x01 (first revision). The current revision
 249:E:/NOVA/Assets/IFX_P2G-HW-SW_V1.0.4/Firmware_Software/DAVE project/P2G_FMCW/Libraries/XMCLib/inc\xmc_fce.h ****  * number is 0x01.
 250:E:/NOVA/Assets/IFX_P2G-HW-SW_V1.0.4/Firmware_Software/DAVE project/P2G_FMCW/Libraries/XMCLib/inc\xmc_fce.h ****  */
 251:E:/NOVA/Assets/IFX_P2G-HW-SW_V1.0.4/Firmware_Software/DAVE project/P2G_FMCW/Libraries/XMCLib/inc\xmc_fce.h **** __STATIC_INLINE uint32_t XMC_FCE_ReadModuleRev(void)
 252:E:/NOVA/Assets/IFX_P2G-HW-SW_V1.0.4/Firmware_Software/DAVE project/P2G_FMCW/Libraries/XMCLib/inc\xmc_fce.h **** {
 253:E:/NOVA/Assets/IFX_P2G-HW-SW_V1.0.4/Firmware_Software/DAVE project/P2G_FMCW/Libraries/XMCLib/inc\xmc_fce.h ****   return (uint32_t)(FCE->ID & FCE_ID_MOD_REV_Msk);
 254:E:/NOVA/Assets/IFX_P2G-HW-SW_V1.0.4/Firmware_Software/DAVE project/P2G_FMCW/Libraries/XMCLib/inc\xmc_fce.h **** }
 255:E:/NOVA/Assets/IFX_P2G-HW-SW_V1.0.4/Firmware_Software/DAVE project/P2G_FMCW/Libraries/XMCLib/inc\xmc_fce.h **** 
 256:E:/NOVA/Assets/IFX_P2G-HW-SW_V1.0.4/Firmware_Software/DAVE project/P2G_FMCW/Libraries/XMCLib/inc\xmc_fce.h **** /**
 257:E:/NOVA/Assets/IFX_P2G-HW-SW_V1.0.4/Firmware_Software/DAVE project/P2G_FMCW/Libraries/XMCLib/inc\xmc_fce.h ****  * @param None
 258:E:/NOVA/Assets/IFX_P2G-HW-SW_V1.0.4/Firmware_Software/DAVE project/P2G_FMCW/Libraries/XMCLib/inc\xmc_fce.h ****  * @return uint32_t Module type
 259:E:/NOVA/Assets/IFX_P2G-HW-SW_V1.0.4/Firmware_Software/DAVE project/P2G_FMCW/Libraries/XMCLib/inc\xmc_fce.h ****  *
 260:E:/NOVA/Assets/IFX_P2G-HW-SW_V1.0.4/Firmware_Software/DAVE project/P2G_FMCW/Libraries/XMCLib/inc\xmc_fce.h ****  * \par<b>Description: </b><br>
 261:E:/NOVA/Assets/IFX_P2G-HW-SW_V1.0.4/Firmware_Software/DAVE project/P2G_FMCW/Libraries/XMCLib/inc\xmc_fce.h ****  * Read the FCE module type <br>
 262:E:/NOVA/Assets/IFX_P2G-HW-SW_V1.0.4/Firmware_Software/DAVE project/P2G_FMCW/Libraries/XMCLib/inc\xmc_fce.h ****  * 
 263:E:/NOVA/Assets/IFX_P2G-HW-SW_V1.0.4/Firmware_Software/DAVE project/P2G_FMCW/Libraries/XMCLib/inc\xmc_fce.h ****  * \par
 264:E:/NOVA/Assets/IFX_P2G-HW-SW_V1.0.4/Firmware_Software/DAVE project/P2G_FMCW/Libraries/XMCLib/inc\xmc_fce.h ****  * The return value is currently 0xC0. It defines the module as a 32-bit module.
 265:E:/NOVA/Assets/IFX_P2G-HW-SW_V1.0.4/Firmware_Software/DAVE project/P2G_FMCW/Libraries/XMCLib/inc\xmc_fce.h ****  */
 266:E:/NOVA/Assets/IFX_P2G-HW-SW_V1.0.4/Firmware_Software/DAVE project/P2G_FMCW/Libraries/XMCLib/inc\xmc_fce.h **** __STATIC_INLINE uint32_t XMC_FCE_ReadModuleType(void)
 267:E:/NOVA/Assets/IFX_P2G-HW-SW_V1.0.4/Firmware_Software/DAVE project/P2G_FMCW/Libraries/XMCLib/inc\xmc_fce.h **** {
 268:E:/NOVA/Assets/IFX_P2G-HW-SW_V1.0.4/Firmware_Software/DAVE project/P2G_FMCW/Libraries/XMCLib/inc\xmc_fce.h ****   return (uint32_t)((FCE->ID & FCE_ID_MOD_TYPE_Msk) >> FCE_ID_MOD_TYPE_Pos);
 269:E:/NOVA/Assets/IFX_P2G-HW-SW_V1.0.4/Firmware_Software/DAVE project/P2G_FMCW/Libraries/XMCLib/inc\xmc_fce.h **** }
 270:E:/NOVA/Assets/IFX_P2G-HW-SW_V1.0.4/Firmware_Software/DAVE project/P2G_FMCW/Libraries/XMCLib/inc\xmc_fce.h **** 
 271:E:/NOVA/Assets/IFX_P2G-HW-SW_V1.0.4/Firmware_Software/DAVE project/P2G_FMCW/Libraries/XMCLib/inc\xmc_fce.h **** /**
 272:E:/NOVA/Assets/IFX_P2G-HW-SW_V1.0.4/Firmware_Software/DAVE project/P2G_FMCW/Libraries/XMCLib/inc\xmc_fce.h ****  * @param None
 273:E:/NOVA/Assets/IFX_P2G-HW-SW_V1.0.4/Firmware_Software/DAVE project/P2G_FMCW/Libraries/XMCLib/inc\xmc_fce.h ****  * @return uint32_t Module number
 274:E:/NOVA/Assets/IFX_P2G-HW-SW_V1.0.4/Firmware_Software/DAVE project/P2G_FMCW/Libraries/XMCLib/inc\xmc_fce.h ****  *
 275:E:/NOVA/Assets/IFX_P2G-HW-SW_V1.0.4/Firmware_Software/DAVE project/P2G_FMCW/Libraries/XMCLib/inc\xmc_fce.h ****  * \par<b>Description: </b><br>
 276:E:/NOVA/Assets/IFX_P2G-HW-SW_V1.0.4/Firmware_Software/DAVE project/P2G_FMCW/Libraries/XMCLib/inc\xmc_fce.h ****  * Read FCE module number <br>
 277:E:/NOVA/Assets/IFX_P2G-HW-SW_V1.0.4/Firmware_Software/DAVE project/P2G_FMCW/Libraries/XMCLib/inc\xmc_fce.h ****  * 
 278:E:/NOVA/Assets/IFX_P2G-HW-SW_V1.0.4/Firmware_Software/DAVE project/P2G_FMCW/Libraries/XMCLib/inc\xmc_fce.h ****  * \par
 279:E:/NOVA/Assets/IFX_P2G-HW-SW_V1.0.4/Firmware_Software/DAVE project/P2G_FMCW/Libraries/XMCLib/inc\xmc_fce.h ****  * The return value for FCE module is currently 0x00CA.
 280:E:/NOVA/Assets/IFX_P2G-HW-SW_V1.0.4/Firmware_Software/DAVE project/P2G_FMCW/Libraries/XMCLib/inc\xmc_fce.h ****  */
 281:E:/NOVA/Assets/IFX_P2G-HW-SW_V1.0.4/Firmware_Software/DAVE project/P2G_FMCW/Libraries/XMCLib/inc\xmc_fce.h **** __STATIC_INLINE uint32_t XMC_FCE_ReadModuleNumber(void)
 282:E:/NOVA/Assets/IFX_P2G-HW-SW_V1.0.4/Firmware_Software/DAVE project/P2G_FMCW/Libraries/XMCLib/inc\xmc_fce.h **** {
 283:E:/NOVA/Assets/IFX_P2G-HW-SW_V1.0.4/Firmware_Software/DAVE project/P2G_FMCW/Libraries/XMCLib/inc\xmc_fce.h ****   return ((uint32_t)((FCE->ID & FCE_ID_MOD_NUMBER_Msk) >> FCE_ID_MOD_NUMBER_Pos));
 284:E:/NOVA/Assets/IFX_P2G-HW-SW_V1.0.4/Firmware_Software/DAVE project/P2G_FMCW/Libraries/XMCLib/inc\xmc_fce.h **** }
 285:E:/NOVA/Assets/IFX_P2G-HW-SW_V1.0.4/Firmware_Software/DAVE project/P2G_FMCW/Libraries/XMCLib/inc\xmc_fce.h **** 
 286:E:/NOVA/Assets/IFX_P2G-HW-SW_V1.0.4/Firmware_Software/DAVE project/P2G_FMCW/Libraries/XMCLib/inc\xmc_fce.h **** /**
 287:E:/NOVA/Assets/IFX_P2G-HW-SW_V1.0.4/Firmware_Software/DAVE project/P2G_FMCW/Libraries/XMCLib/inc\xmc_fce.h ****  * @param None
 288:E:/NOVA/Assets/IFX_P2G-HW-SW_V1.0.4/Firmware_Software/DAVE project/P2G_FMCW/Libraries/XMCLib/inc\xmc_fce.h ****  * @return bool Disable status
 289:E:/NOVA/Assets/IFX_P2G-HW-SW_V1.0.4/Firmware_Software/DAVE project/P2G_FMCW/Libraries/XMCLib/inc\xmc_fce.h ****  *
 290:E:/NOVA/Assets/IFX_P2G-HW-SW_V1.0.4/Firmware_Software/DAVE project/P2G_FMCW/Libraries/XMCLib/inc\xmc_fce.h ****  *
 291:E:/NOVA/Assets/IFX_P2G-HW-SW_V1.0.4/Firmware_Software/DAVE project/P2G_FMCW/Libraries/XMCLib/inc\xmc_fce.h ****  * \par<b>Description: </b><br>
 292:E:/NOVA/Assets/IFX_P2G-HW-SW_V1.0.4/Firmware_Software/DAVE project/P2G_FMCW/Libraries/XMCLib/inc\xmc_fce.h ****  * Return the disable status <br>
 293:E:/NOVA/Assets/IFX_P2G-HW-SW_V1.0.4/Firmware_Software/DAVE project/P2G_FMCW/Libraries/XMCLib/inc\xmc_fce.h ****  *
 294:E:/NOVA/Assets/IFX_P2G-HW-SW_V1.0.4/Firmware_Software/DAVE project/P2G_FMCW/Libraries/XMCLib/inc\xmc_fce.h ****  * \par
 295:E:/NOVA/Assets/IFX_P2G-HW-SW_V1.0.4/Firmware_Software/DAVE project/P2G_FMCW/Libraries/XMCLib/inc\xmc_fce.h ****  * The function reads the FCE module disable status (DISS) bit. It returns "true" if
 296:E:/NOVA/Assets/IFX_P2G-HW-SW_V1.0.4/Firmware_Software/DAVE project/P2G_FMCW/Libraries/XMCLib/inc\xmc_fce.h ****  * set, "false" otherwise.
 297:E:/NOVA/Assets/IFX_P2G-HW-SW_V1.0.4/Firmware_Software/DAVE project/P2G_FMCW/Libraries/XMCLib/inc\xmc_fce.h ****  */
 298:E:/NOVA/Assets/IFX_P2G-HW-SW_V1.0.4/Firmware_Software/DAVE project/P2G_FMCW/Libraries/XMCLib/inc\xmc_fce.h **** __STATIC_INLINE bool XMC_FCE_Get_DisableStatus(void)
 299:E:/NOVA/Assets/IFX_P2G-HW-SW_V1.0.4/Firmware_Software/DAVE project/P2G_FMCW/Libraries/XMCLib/inc\xmc_fce.h **** {
 300:E:/NOVA/Assets/IFX_P2G-HW-SW_V1.0.4/Firmware_Software/DAVE project/P2G_FMCW/Libraries/XMCLib/inc\xmc_fce.h ****   return (bool)(FCE->CLC &= (uint32_t)~FCE_CLC_DISS_Msk);
 301:E:/NOVA/Assets/IFX_P2G-HW-SW_V1.0.4/Firmware_Software/DAVE project/P2G_FMCW/Libraries/XMCLib/inc\xmc_fce.h **** }
 302:E:/NOVA/Assets/IFX_P2G-HW-SW_V1.0.4/Firmware_Software/DAVE project/P2G_FMCW/Libraries/XMCLib/inc\xmc_fce.h **** 
 303:E:/NOVA/Assets/IFX_P2G-HW-SW_V1.0.4/Firmware_Software/DAVE project/P2G_FMCW/Libraries/XMCLib/inc\xmc_fce.h **** /**
 304:E:/NOVA/Assets/IFX_P2G-HW-SW_V1.0.4/Firmware_Software/DAVE project/P2G_FMCW/Libraries/XMCLib/inc\xmc_fce.h ****  * @param None
 305:E:/NOVA/Assets/IFX_P2G-HW-SW_V1.0.4/Firmware_Software/DAVE project/P2G_FMCW/Libraries/XMCLib/inc\xmc_fce.h ****  * @return None
 306:E:/NOVA/Assets/IFX_P2G-HW-SW_V1.0.4/Firmware_Software/DAVE project/P2G_FMCW/Libraries/XMCLib/inc\xmc_fce.h ****  *
 307:E:/NOVA/Assets/IFX_P2G-HW-SW_V1.0.4/Firmware_Software/DAVE project/P2G_FMCW/Libraries/XMCLib/inc\xmc_fce.h ****  * \par<b>Description: </b><br>
 308:E:/NOVA/Assets/IFX_P2G-HW-SW_V1.0.4/Firmware_Software/DAVE project/P2G_FMCW/Libraries/XMCLib/inc\xmc_fce.h ****  * Disable the FCE module <br>
 309:E:/NOVA/Assets/IFX_P2G-HW-SW_V1.0.4/Firmware_Software/DAVE project/P2G_FMCW/Libraries/XMCLib/inc\xmc_fce.h ****  * 
 310:E:/NOVA/Assets/IFX_P2G-HW-SW_V1.0.4/Firmware_Software/DAVE project/P2G_FMCW/Libraries/XMCLib/inc\xmc_fce.h ****  * \par
 311:E:/NOVA/Assets/IFX_P2G-HW-SW_V1.0.4/Firmware_Software/DAVE project/P2G_FMCW/Libraries/XMCLib/inc\xmc_fce.h ****  * The function asserts the FCE peripheral reset and sets the DISR bit in the CLC
 312:E:/NOVA/Assets/IFX_P2G-HW-SW_V1.0.4/Firmware_Software/DAVE project/P2G_FMCW/Libraries/XMCLib/inc\xmc_fce.h ****  * register.
 313:E:/NOVA/Assets/IFX_P2G-HW-SW_V1.0.4/Firmware_Software/DAVE project/P2G_FMCW/Libraries/XMCLib/inc\xmc_fce.h ****  *
 314:E:/NOVA/Assets/IFX_P2G-HW-SW_V1.0.4/Firmware_Software/DAVE project/P2G_FMCW/Libraries/XMCLib/inc\xmc_fce.h ****  * \par<b>Note: </b><br>
 315:E:/NOVA/Assets/IFX_P2G-HW-SW_V1.0.4/Firmware_Software/DAVE project/P2G_FMCW/Libraries/XMCLib/inc\xmc_fce.h ****  * All pending transactions running on the bus slave interface must be completed before
 316:E:/NOVA/Assets/IFX_P2G-HW-SW_V1.0.4/Firmware_Software/DAVE project/P2G_FMCW/Libraries/XMCLib/inc\xmc_fce.h ****  * entering the disabled state.
 317:E:/NOVA/Assets/IFX_P2G-HW-SW_V1.0.4/Firmware_Software/DAVE project/P2G_FMCW/Libraries/XMCLib/inc\xmc_fce.h ****  */
 318:E:/NOVA/Assets/IFX_P2G-HW-SW_V1.0.4/Firmware_Software/DAVE project/P2G_FMCW/Libraries/XMCLib/inc\xmc_fce.h **** void XMC_FCE_Disable(void);
 319:E:/NOVA/Assets/IFX_P2G-HW-SW_V1.0.4/Firmware_Software/DAVE project/P2G_FMCW/Libraries/XMCLib/inc\xmc_fce.h **** 
 320:E:/NOVA/Assets/IFX_P2G-HW-SW_V1.0.4/Firmware_Software/DAVE project/P2G_FMCW/Libraries/XMCLib/inc\xmc_fce.h **** /**
 321:E:/NOVA/Assets/IFX_P2G-HW-SW_V1.0.4/Firmware_Software/DAVE project/P2G_FMCW/Libraries/XMCLib/inc\xmc_fce.h ****  * @param None
 322:E:/NOVA/Assets/IFX_P2G-HW-SW_V1.0.4/Firmware_Software/DAVE project/P2G_FMCW/Libraries/XMCLib/inc\xmc_fce.h ****  * @return None
 323:E:/NOVA/Assets/IFX_P2G-HW-SW_V1.0.4/Firmware_Software/DAVE project/P2G_FMCW/Libraries/XMCLib/inc\xmc_fce.h ****  *
 324:E:/NOVA/Assets/IFX_P2G-HW-SW_V1.0.4/Firmware_Software/DAVE project/P2G_FMCW/Libraries/XMCLib/inc\xmc_fce.h ****  * \par<b>Description: </b><br>
 325:E:/NOVA/Assets/IFX_P2G-HW-SW_V1.0.4/Firmware_Software/DAVE project/P2G_FMCW/Libraries/XMCLib/inc\xmc_fce.h ****  * Enable the FCE module <br>
 326:E:/NOVA/Assets/IFX_P2G-HW-SW_V1.0.4/Firmware_Software/DAVE project/P2G_FMCW/Libraries/XMCLib/inc\xmc_fce.h ****  *
 327:E:/NOVA/Assets/IFX_P2G-HW-SW_V1.0.4/Firmware_Software/DAVE project/P2G_FMCW/Libraries/XMCLib/inc\xmc_fce.h ****  * \par
 328:E:/NOVA/Assets/IFX_P2G-HW-SW_V1.0.4/Firmware_Software/DAVE project/P2G_FMCW/Libraries/XMCLib/inc\xmc_fce.h ****  * The function de-asserts the peripheral reset and clears the DISR bit CLC register.
 329:E:/NOVA/Assets/IFX_P2G-HW-SW_V1.0.4/Firmware_Software/DAVE project/P2G_FMCW/Libraries/XMCLib/inc\xmc_fce.h ****  */
 330:E:/NOVA/Assets/IFX_P2G-HW-SW_V1.0.4/Firmware_Software/DAVE project/P2G_FMCW/Libraries/XMCLib/inc\xmc_fce.h **** void XMC_FCE_Enable(void);
 331:E:/NOVA/Assets/IFX_P2G-HW-SW_V1.0.4/Firmware_Software/DAVE project/P2G_FMCW/Libraries/XMCLib/inc\xmc_fce.h **** 
 332:E:/NOVA/Assets/IFX_P2G-HW-SW_V1.0.4/Firmware_Software/DAVE project/P2G_FMCW/Libraries/XMCLib/inc\xmc_fce.h **** /**
 333:E:/NOVA/Assets/IFX_P2G-HW-SW_V1.0.4/Firmware_Software/DAVE project/P2G_FMCW/Libraries/XMCLib/inc\xmc_fce.h ****  * @param engine Constant pointer to ::XMC_FCE_t, pointing to the FCE base address
 334:E:/NOVA/Assets/IFX_P2G-HW-SW_V1.0.4/Firmware_Software/DAVE project/P2G_FMCW/Libraries/XMCLib/inc\xmc_fce.h ****  * @return ::XMC_FCE_STATUS_t
 335:E:/NOVA/Assets/IFX_P2G-HW-SW_V1.0.4/Firmware_Software/DAVE project/P2G_FMCW/Libraries/XMCLib/inc\xmc_fce.h ****  *
 336:E:/NOVA/Assets/IFX_P2G-HW-SW_V1.0.4/Firmware_Software/DAVE project/P2G_FMCW/Libraries/XMCLib/inc\xmc_fce.h ****  * \par<b>Description: </b><br>
 337:E:/NOVA/Assets/IFX_P2G-HW-SW_V1.0.4/Firmware_Software/DAVE project/P2G_FMCW/Libraries/XMCLib/inc\xmc_fce.h ****  * Initialize the FCE engine <br>
 338:E:/NOVA/Assets/IFX_P2G-HW-SW_V1.0.4/Firmware_Software/DAVE project/P2G_FMCW/Libraries/XMCLib/inc\xmc_fce.h ****  * 
 339:E:/NOVA/Assets/IFX_P2G-HW-SW_V1.0.4/Firmware_Software/DAVE project/P2G_FMCW/Libraries/XMCLib/inc\xmc_fce.h ****  * \par
 340:E:/NOVA/Assets/IFX_P2G-HW-SW_V1.0.4/Firmware_Software/DAVE project/P2G_FMCW/Libraries/XMCLib/inc\xmc_fce.h ****  * The function sets to the CFG and CRC registers with the FCE configuration and
 341:E:/NOVA/Assets/IFX_P2G-HW-SW_V1.0.4/Firmware_Software/DAVE project/P2G_FMCW/Libraries/XMCLib/inc\xmc_fce.h ****  * seeds values. The function always returns XMC_FCE_STATUS_SUCCESS.
 342:E:/NOVA/Assets/IFX_P2G-HW-SW_V1.0.4/Firmware_Software/DAVE project/P2G_FMCW/Libraries/XMCLib/inc\xmc_fce.h ****  *
 343:E:/NOVA/Assets/IFX_P2G-HW-SW_V1.0.4/Firmware_Software/DAVE project/P2G_FMCW/Libraries/XMCLib/inc\xmc_fce.h ****  * \par<b>Note: </b><br>
 344:E:/NOVA/Assets/IFX_P2G-HW-SW_V1.0.4/Firmware_Software/DAVE project/P2G_FMCW/Libraries/XMCLib/inc\xmc_fce.h ****  * The software must first ensure that the CRC kernel is properly configured with the
 345:E:/NOVA/Assets/IFX_P2G-HW-SW_V1.0.4/Firmware_Software/DAVE project/P2G_FMCW/Libraries/XMCLib/inc\xmc_fce.h ****  * initial CRC value (seed value).
 346:E:/NOVA/Assets/IFX_P2G-HW-SW_V1.0.4/Firmware_Software/DAVE project/P2G_FMCW/Libraries/XMCLib/inc\xmc_fce.h ****  */
 347:E:/NOVA/Assets/IFX_P2G-HW-SW_V1.0.4/Firmware_Software/DAVE project/P2G_FMCW/Libraries/XMCLib/inc\xmc_fce.h **** XMC_FCE_STATUS_t XMC_FCE_Init(const XMC_FCE_t *const engine);
 348:E:/NOVA/Assets/IFX_P2G-HW-SW_V1.0.4/Firmware_Software/DAVE project/P2G_FMCW/Libraries/XMCLib/inc\xmc_fce.h **** 
 349:E:/NOVA/Assets/IFX_P2G-HW-SW_V1.0.4/Firmware_Software/DAVE project/P2G_FMCW/Libraries/XMCLib/inc\xmc_fce.h **** /**
 350:E:/NOVA/Assets/IFX_P2G-HW-SW_V1.0.4/Firmware_Software/DAVE project/P2G_FMCW/Libraries/XMCLib/inc\xmc_fce.h ****  * @param engine Constant pointer to ::XMC_FCE_t, pointing to the FCE base address
 351:E:/NOVA/Assets/IFX_P2G-HW-SW_V1.0.4/Firmware_Software/DAVE project/P2G_FMCW/Libraries/XMCLib/inc\xmc_fce.h ****  * @param seedvalue Initial CRC value
 352:E:/NOVA/Assets/IFX_P2G-HW-SW_V1.0.4/Firmware_Software/DAVE project/P2G_FMCW/Libraries/XMCLib/inc\xmc_fce.h ****  * @return None
 353:E:/NOVA/Assets/IFX_P2G-HW-SW_V1.0.4/Firmware_Software/DAVE project/P2G_FMCW/Libraries/XMCLib/inc\xmc_fce.h ****  *
 354:E:/NOVA/Assets/IFX_P2G-HW-SW_V1.0.4/Firmware_Software/DAVE project/P2G_FMCW/Libraries/XMCLib/inc\xmc_fce.h ****  * \par<b>Description: </b><br>
 355:E:/NOVA/Assets/IFX_P2G-HW-SW_V1.0.4/Firmware_Software/DAVE project/P2G_FMCW/Libraries/XMCLib/inc\xmc_fce.h ****  * Initialize FCE seed value
 356:E:/NOVA/Assets/IFX_P2G-HW-SW_V1.0.4/Firmware_Software/DAVE project/P2G_FMCW/Libraries/XMCLib/inc\xmc_fce.h ****  *
 357:E:/NOVA/Assets/IFX_P2G-HW-SW_V1.0.4/Firmware_Software/DAVE project/P2G_FMCW/Libraries/XMCLib/inc\xmc_fce.h ****  * \par
 358:E:/NOVA/Assets/IFX_P2G-HW-SW_V1.0.4/Firmware_Software/DAVE project/P2G_FMCW/Libraries/XMCLib/inc\xmc_fce.h ****  * The function sets the initial CRC (seed) value in the CRC register.
 359:E:/NOVA/Assets/IFX_P2G-HW-SW_V1.0.4/Firmware_Software/DAVE project/P2G_FMCW/Libraries/XMCLib/inc\xmc_fce.h ****  */
 360:E:/NOVA/Assets/IFX_P2G-HW-SW_V1.0.4/Firmware_Software/DAVE project/P2G_FMCW/Libraries/XMCLib/inc\xmc_fce.h **** __STATIC_INLINE void XMC_FCE_InitializeSeedValue(const XMC_FCE_t *const engine, uint32_t seedvalue)
 361:E:/NOVA/Assets/IFX_P2G-HW-SW_V1.0.4/Firmware_Software/DAVE project/P2G_FMCW/Libraries/XMCLib/inc\xmc_fce.h **** {
 362:E:/NOVA/Assets/IFX_P2G-HW-SW_V1.0.4/Firmware_Software/DAVE project/P2G_FMCW/Libraries/XMCLib/inc\xmc_fce.h ****   engine->kernel_ptr->CRC = seedvalue;
 149              	 .loc 3 362 0
 150 0036 DFF8ECB1 	 ldr fp,.L63+40
 151              	.LBE54:
 152              	.LBE53:
 153              	.LBE52:
 154              	.LBE51:
 155              	.LBE50:
 156              	.LBE49:
 157              	.LBB66:
 158              	.LBB48:
 159              	 .loc 2 418 0
 160 003a 43F40043 	 orr r3,r3,#32768
 161 003e 8B50     	 str r3,[r1,r2]
 162              	.LBE48:
 163              	.LBE66:
 191:E:/NOVA/Assets/IFX_P2G-HW-SW_V1.0.4/Firmware_Software/DAVE project/P2G_FW/Dave/Generated/E_EEPROM_XMC4\e_eeprom_xmc4.c **** 
 164              	 .loc 1 191 0
 165 0040 FFF7FEFF 	 bl XMC_FCE_Enable
 166              	.LVL5:
 194:E:/NOVA/Assets/IFX_P2G-HW-SW_V1.0.4/Firmware_Software/DAVE project/P2G_FW/Dave/Generated/E_EEPROM_XMC4\e_eeprom_xmc4.c ****   
 167              	 .loc 1 194 0
 168 0044 7048     	 ldr r0,.L63+12
 169 0046 FFF7FEFF 	 bl XMC_FCE_Init
 170              	.LVL6:
 197:E:/NOVA/Assets/IFX_P2G-HW-SW_V1.0.4/Firmware_Software/DAVE project/P2G_FW/Dave/Generated/E_EEPROM_XMC4\e_eeprom_xmc4.c ****     {
 171              	 .loc 1 197 0
 172 004a 0094     	 str r4,[sp]
 173 004c 2346     	 mov r3,r4
 174              	.LVL7:
 175              	.L9:
 176              	.LBB67:
 177              	.LBB65:
 253:E:/NOVA/Assets/IFX_P2G-HW-SW_V1.0.4/Firmware_Software/DAVE project/P2G_FW/Dave/Generated/E_EEPROM_XMC4\e_eeprom_xmc4.c **** 
 254:E:/NOVA/Assets/IFX_P2G-HW-SW_V1.0.4/Firmware_Software/DAVE project/P2G_FW/Dave/Generated/E_EEPROM_XMC4\e_eeprom_xmc4.c **** 
 255:E:/NOVA/Assets/IFX_P2G-HW-SW_V1.0.4/Firmware_Software/DAVE project/P2G_FW/Dave/Generated/E_EEPROM_XMC4\e_eeprom_xmc4.c **** 
 256:E:/NOVA/Assets/IFX_P2G-HW-SW_V1.0.4/Firmware_Software/DAVE project/P2G_FW/Dave/Generated/E_EEPROM_XMC4\e_eeprom_xmc4.c **** /* Update a single byte to RAM buffer*/
 257:E:/NOVA/Assets/IFX_P2G-HW-SW_V1.0.4/Firmware_Software/DAVE project/P2G_FW/Dave/Generated/E_EEPROM_XMC4\e_eeprom_xmc4.c **** bool E_EEPROM_XMC4_WriteByte(const uint16_t offset_address, const uint8_t value)
 258:E:/NOVA/Assets/IFX_P2G-HW-SW_V1.0.4/Firmware_Software/DAVE project/P2G_FW/Dave/Generated/E_EEPROM_XMC4\e_eeprom_xmc4.c **** {
 259:E:/NOVA/Assets/IFX_P2G-HW-SW_V1.0.4/Firmware_Software/DAVE project/P2G_FW/Dave/Generated/E_EEPROM_XMC4\e_eeprom_xmc4.c ****   uint8_t *address_ptr;
 260:E:/NOVA/Assets/IFX_P2G-HW-SW_V1.0.4/Firmware_Software/DAVE project/P2G_FW/Dave/Generated/E_EEPROM_XMC4\e_eeprom_xmc4.c ****   bool status;
 261:E:/NOVA/Assets/IFX_P2G-HW-SW_V1.0.4/Firmware_Software/DAVE project/P2G_FW/Dave/Generated/E_EEPROM_XMC4\e_eeprom_xmc4.c **** 
 262:E:/NOVA/Assets/IFX_P2G-HW-SW_V1.0.4/Firmware_Software/DAVE project/P2G_FW/Dave/Generated/E_EEPROM_XMC4\e_eeprom_xmc4.c ****   XMC_ASSERT("E_EEPROM_XMC4_WriteByte: Wrong offset address", (offset_address  < E_EEPROM_XMC4_DATA
 263:E:/NOVA/Assets/IFX_P2G-HW-SW_V1.0.4/Firmware_Software/DAVE project/P2G_FW/Dave/Generated/E_EEPROM_XMC4\e_eeprom_xmc4.c ****   address_ptr = (uint8_t*)(void*)(&e_eeprom_xmc4_data_buffer.eeprom_data) + (uint32_t)offset_addres
 264:E:/NOVA/Assets/IFX_P2G-HW-SW_V1.0.4/Firmware_Software/DAVE project/P2G_FW/Dave/Generated/E_EEPROM_XMC4\e_eeprom_xmc4.c ****   status = (*address_ptr != value);
 265:E:/NOVA/Assets/IFX_P2G-HW-SW_V1.0.4/Firmware_Software/DAVE project/P2G_FW/Dave/Generated/E_EEPROM_XMC4\e_eeprom_xmc4.c **** 
 266:E:/NOVA/Assets/IFX_P2G-HW-SW_V1.0.4/Firmware_Software/DAVE project/P2G_FW/Dave/Generated/E_EEPROM_XMC4\e_eeprom_xmc4.c ****   *address_ptr = value;
 267:E:/NOVA/Assets/IFX_P2G-HW-SW_V1.0.4/Firmware_Software/DAVE project/P2G_FW/Dave/Generated/E_EEPROM_XMC4\e_eeprom_xmc4.c **** 
 268:E:/NOVA/Assets/IFX_P2G-HW-SW_V1.0.4/Firmware_Software/DAVE project/P2G_FW/Dave/Generated/E_EEPROM_XMC4\e_eeprom_xmc4.c ****   return status;
 269:E:/NOVA/Assets/IFX_P2G-HW-SW_V1.0.4/Firmware_Software/DAVE project/P2G_FW/Dave/Generated/E_EEPROM_XMC4\e_eeprom_xmc4.c **** }
 270:E:/NOVA/Assets/IFX_P2G-HW-SW_V1.0.4/Firmware_Software/DAVE project/P2G_FW/Dave/Generated/E_EEPROM_XMC4\e_eeprom_xmc4.c **** 
 271:E:/NOVA/Assets/IFX_P2G-HW-SW_V1.0.4/Firmware_Software/DAVE project/P2G_FW/Dave/Generated/E_EEPROM_XMC4\e_eeprom_xmc4.c **** 
 272:E:/NOVA/Assets/IFX_P2G-HW-SW_V1.0.4/Firmware_Software/DAVE project/P2G_FW/Dave/Generated/E_EEPROM_XMC4\e_eeprom_xmc4.c **** 
 273:E:/NOVA/Assets/IFX_P2G-HW-SW_V1.0.4/Firmware_Software/DAVE project/P2G_FW/Dave/Generated/E_EEPROM_XMC4\e_eeprom_xmc4.c **** /* Update a set of bytes to RAM buffer*/
 274:E:/NOVA/Assets/IFX_P2G-HW-SW_V1.0.4/Firmware_Software/DAVE project/P2G_FW/Dave/Generated/E_EEPROM_XMC4\e_eeprom_xmc4.c **** bool E_EEPROM_XMC4_WriteArray(const uint16_t offset_address, const uint8_t *const data, const uint1
 275:E:/NOVA/Assets/IFX_P2G-HW-SW_V1.0.4/Firmware_Software/DAVE project/P2G_FW/Dave/Generated/E_EEPROM_XMC4\e_eeprom_xmc4.c **** {
 276:E:/NOVA/Assets/IFX_P2G-HW-SW_V1.0.4/Firmware_Software/DAVE project/P2G_FW/Dave/Generated/E_EEPROM_XMC4\e_eeprom_xmc4.c ****   uint16_t i;
 277:E:/NOVA/Assets/IFX_P2G-HW-SW_V1.0.4/Firmware_Software/DAVE project/P2G_FW/Dave/Generated/E_EEPROM_XMC4\e_eeprom_xmc4.c ****   uint8_t  *address_ptr;
 278:E:/NOVA/Assets/IFX_P2G-HW-SW_V1.0.4/Firmware_Software/DAVE project/P2G_FW/Dave/Generated/E_EEPROM_XMC4\e_eeprom_xmc4.c ****   bool status;
 279:E:/NOVA/Assets/IFX_P2G-HW-SW_V1.0.4/Firmware_Software/DAVE project/P2G_FW/Dave/Generated/E_EEPROM_XMC4\e_eeprom_xmc4.c **** 
 280:E:/NOVA/Assets/IFX_P2G-HW-SW_V1.0.4/Firmware_Software/DAVE project/P2G_FW/Dave/Generated/E_EEPROM_XMC4\e_eeprom_xmc4.c ****   XMC_ASSERT("E_EEPROM_XMC4_WriteArray: Wrong offset address", (offset_address  < E_EEPROM_XMC4_DAT
 281:E:/NOVA/Assets/IFX_P2G-HW-SW_V1.0.4/Firmware_Software/DAVE project/P2G_FW/Dave/Generated/E_EEPROM_XMC4\e_eeprom_xmc4.c ****   XMC_ASSERT("E_EEPROM_XMC4_WriteArray: Wrong length",
 282:E:/NOVA/Assets/IFX_P2G-HW-SW_V1.0.4/Firmware_Software/DAVE project/P2G_FW/Dave/Generated/E_EEPROM_XMC4\e_eeprom_xmc4.c ****                                                     ((offset_address + length)  < E_EEPROM_XMC4_DAT
 283:E:/NOVA/Assets/IFX_P2G-HW-SW_V1.0.4/Firmware_Software/DAVE project/P2G_FW/Dave/Generated/E_EEPROM_XMC4\e_eeprom_xmc4.c **** 
 284:E:/NOVA/Assets/IFX_P2G-HW-SW_V1.0.4/Firmware_Software/DAVE project/P2G_FW/Dave/Generated/E_EEPROM_XMC4\e_eeprom_xmc4.c ****   address_ptr = (uint8_t*)(void*)(&e_eeprom_xmc4_data_buffer.eeprom_data) + (uint32_t)offset_addres
 285:E:/NOVA/Assets/IFX_P2G-HW-SW_V1.0.4/Firmware_Software/DAVE project/P2G_FW/Dave/Generated/E_EEPROM_XMC4\e_eeprom_xmc4.c ****   status = (memcmp(address_ptr, data, length) != 0);
 286:E:/NOVA/Assets/IFX_P2G-HW-SW_V1.0.4/Firmware_Software/DAVE project/P2G_FW/Dave/Generated/E_EEPROM_XMC4\e_eeprom_xmc4.c **** 
 287:E:/NOVA/Assets/IFX_P2G-HW-SW_V1.0.4/Firmware_Software/DAVE project/P2G_FW/Dave/Generated/E_EEPROM_XMC4\e_eeprom_xmc4.c ****   for (i = 0U; i < length; i++)
 288:E:/NOVA/Assets/IFX_P2G-HW-SW_V1.0.4/Firmware_Software/DAVE project/P2G_FW/Dave/Generated/E_EEPROM_XMC4\e_eeprom_xmc4.c ****   {
 289:E:/NOVA/Assets/IFX_P2G-HW-SW_V1.0.4/Firmware_Software/DAVE project/P2G_FW/Dave/Generated/E_EEPROM_XMC4\e_eeprom_xmc4.c ****       *(address_ptr + i) = *(data + i);
 290:E:/NOVA/Assets/IFX_P2G-HW-SW_V1.0.4/Firmware_Software/DAVE project/P2G_FW/Dave/Generated/E_EEPROM_XMC4\e_eeprom_xmc4.c ****   }
 291:E:/NOVA/Assets/IFX_P2G-HW-SW_V1.0.4/Firmware_Software/DAVE project/P2G_FW/Dave/Generated/E_EEPROM_XMC4\e_eeprom_xmc4.c **** 
 292:E:/NOVA/Assets/IFX_P2G-HW-SW_V1.0.4/Firmware_Software/DAVE project/P2G_FW/Dave/Generated/E_EEPROM_XMC4\e_eeprom_xmc4.c ****   return status;
 293:E:/NOVA/Assets/IFX_P2G-HW-SW_V1.0.4/Firmware_Software/DAVE project/P2G_FW/Dave/Generated/E_EEPROM_XMC4\e_eeprom_xmc4.c **** }
 294:E:/NOVA/Assets/IFX_P2G-HW-SW_V1.0.4/Firmware_Software/DAVE project/P2G_FW/Dave/Generated/E_EEPROM_XMC4\e_eeprom_xmc4.c **** 
 295:E:/NOVA/Assets/IFX_P2G-HW-SW_V1.0.4/Firmware_Software/DAVE project/P2G_FW/Dave/Generated/E_EEPROM_XMC4\e_eeprom_xmc4.c **** 
 296:E:/NOVA/Assets/IFX_P2G-HW-SW_V1.0.4/Firmware_Software/DAVE project/P2G_FW/Dave/Generated/E_EEPROM_XMC4\e_eeprom_xmc4.c **** 
 297:E:/NOVA/Assets/IFX_P2G-HW-SW_V1.0.4/Firmware_Software/DAVE project/P2G_FW/Dave/Generated/E_EEPROM_XMC4\e_eeprom_xmc4.c **** /* Read one byte from RAM Buffer */
 298:E:/NOVA/Assets/IFX_P2G-HW-SW_V1.0.4/Firmware_Software/DAVE project/P2G_FW/Dave/Generated/E_EEPROM_XMC4\e_eeprom_xmc4.c **** void E_EEPROM_XMC4_ReadByte(const uint16_t offset_address, uint8_t *const value)
 299:E:/NOVA/Assets/IFX_P2G-HW-SW_V1.0.4/Firmware_Software/DAVE project/P2G_FW/Dave/Generated/E_EEPROM_XMC4\e_eeprom_xmc4.c **** {
 300:E:/NOVA/Assets/IFX_P2G-HW-SW_V1.0.4/Firmware_Software/DAVE project/P2G_FW/Dave/Generated/E_EEPROM_XMC4\e_eeprom_xmc4.c ****   uint8_t *address_ptr;
 301:E:/NOVA/Assets/IFX_P2G-HW-SW_V1.0.4/Firmware_Software/DAVE project/P2G_FW/Dave/Generated/E_EEPROM_XMC4\e_eeprom_xmc4.c ****   XMC_ASSERT("E_EEPROM_XMC4_ReadByte: Wrong offset address", (offset_address  < E_EEPROM_XMC4_DATA_
 302:E:/NOVA/Assets/IFX_P2G-HW-SW_V1.0.4/Firmware_Software/DAVE project/P2G_FW/Dave/Generated/E_EEPROM_XMC4\e_eeprom_xmc4.c ****   address_ptr = (uint8_t*)(void*)(&e_eeprom_xmc4_data_buffer.eeprom_data) + (uint32_t)offset_addres
 303:E:/NOVA/Assets/IFX_P2G-HW-SW_V1.0.4/Firmware_Software/DAVE project/P2G_FW/Dave/Generated/E_EEPROM_XMC4\e_eeprom_xmc4.c **** 
 304:E:/NOVA/Assets/IFX_P2G-HW-SW_V1.0.4/Firmware_Software/DAVE project/P2G_FW/Dave/Generated/E_EEPROM_XMC4\e_eeprom_xmc4.c ****   *value = *address_ptr;
 305:E:/NOVA/Assets/IFX_P2G-HW-SW_V1.0.4/Firmware_Software/DAVE project/P2G_FW/Dave/Generated/E_EEPROM_XMC4\e_eeprom_xmc4.c **** }
 306:E:/NOVA/Assets/IFX_P2G-HW-SW_V1.0.4/Firmware_Software/DAVE project/P2G_FW/Dave/Generated/E_EEPROM_XMC4\e_eeprom_xmc4.c **** 
 307:E:/NOVA/Assets/IFX_P2G-HW-SW_V1.0.4/Firmware_Software/DAVE project/P2G_FW/Dave/Generated/E_EEPROM_XMC4\e_eeprom_xmc4.c **** 
 308:E:/NOVA/Assets/IFX_P2G-HW-SW_V1.0.4/Firmware_Software/DAVE project/P2G_FW/Dave/Generated/E_EEPROM_XMC4\e_eeprom_xmc4.c **** 
 309:E:/NOVA/Assets/IFX_P2G-HW-SW_V1.0.4/Firmware_Software/DAVE project/P2G_FW/Dave/Generated/E_EEPROM_XMC4\e_eeprom_xmc4.c **** /* Read a set of bytes from RAM Buffer */
 310:E:/NOVA/Assets/IFX_P2G-HW-SW_V1.0.4/Firmware_Software/DAVE project/P2G_FW/Dave/Generated/E_EEPROM_XMC4\e_eeprom_xmc4.c **** void E_EEPROM_XMC4_ReadArray(const uint16_t offset_address, uint8_t *const data, const uint16_t len
 311:E:/NOVA/Assets/IFX_P2G-HW-SW_V1.0.4/Firmware_Software/DAVE project/P2G_FW/Dave/Generated/E_EEPROM_XMC4\e_eeprom_xmc4.c **** {
 312:E:/NOVA/Assets/IFX_P2G-HW-SW_V1.0.4/Firmware_Software/DAVE project/P2G_FW/Dave/Generated/E_EEPROM_XMC4\e_eeprom_xmc4.c ****   uint16_t i;
 313:E:/NOVA/Assets/IFX_P2G-HW-SW_V1.0.4/Firmware_Software/DAVE project/P2G_FW/Dave/Generated/E_EEPROM_XMC4\e_eeprom_xmc4.c ****   uint8_t  *address_ptr;
 314:E:/NOVA/Assets/IFX_P2G-HW-SW_V1.0.4/Firmware_Software/DAVE project/P2G_FW/Dave/Generated/E_EEPROM_XMC4\e_eeprom_xmc4.c ****   XMC_ASSERT("E_EEPROM_XMC4_ReadArray: Wrong offset address", (offset_address  < E_EEPROM_XMC4_DATA
 315:E:/NOVA/Assets/IFX_P2G-HW-SW_V1.0.4/Firmware_Software/DAVE project/P2G_FW/Dave/Generated/E_EEPROM_XMC4\e_eeprom_xmc4.c ****   XMC_ASSERT("E_EEPROM_XMC4_ReadArray: Wrong length",
 316:E:/NOVA/Assets/IFX_P2G-HW-SW_V1.0.4/Firmware_Software/DAVE project/P2G_FW/Dave/Generated/E_EEPROM_XMC4\e_eeprom_xmc4.c ****                                                     ((offset_address + length)  < E_EEPROM_XMC4_DAT
 317:E:/NOVA/Assets/IFX_P2G-HW-SW_V1.0.4/Firmware_Software/DAVE project/P2G_FW/Dave/Generated/E_EEPROM_XMC4\e_eeprom_xmc4.c ****   address_ptr = (uint8_t*)(void*)(&e_eeprom_xmc4_data_buffer.eeprom_data) + (uint32_t)offset_addres
 318:E:/NOVA/Assets/IFX_P2G-HW-SW_V1.0.4/Firmware_Software/DAVE project/P2G_FW/Dave/Generated/E_EEPROM_XMC4\e_eeprom_xmc4.c **** 
 319:E:/NOVA/Assets/IFX_P2G-HW-SW_V1.0.4/Firmware_Software/DAVE project/P2G_FW/Dave/Generated/E_EEPROM_XMC4\e_eeprom_xmc4.c ****   for (i=0U; i<length; i++)
 320:E:/NOVA/Assets/IFX_P2G-HW-SW_V1.0.4/Firmware_Software/DAVE project/P2G_FW/Dave/Generated/E_EEPROM_XMC4\e_eeprom_xmc4.c ****   {
 321:E:/NOVA/Assets/IFX_P2G-HW-SW_V1.0.4/Firmware_Software/DAVE project/P2G_FW/Dave/Generated/E_EEPROM_XMC4\e_eeprom_xmc4.c ****     *(data + i) = *(address_ptr + i);
 322:E:/NOVA/Assets/IFX_P2G-HW-SW_V1.0.4/Firmware_Software/DAVE project/P2G_FW/Dave/Generated/E_EEPROM_XMC4\e_eeprom_xmc4.c ****   }
 323:E:/NOVA/Assets/IFX_P2G-HW-SW_V1.0.4/Firmware_Software/DAVE project/P2G_FW/Dave/Generated/E_EEPROM_XMC4\e_eeprom_xmc4.c **** }
 324:E:/NOVA/Assets/IFX_P2G-HW-SW_V1.0.4/Firmware_Software/DAVE project/P2G_FW/Dave/Generated/E_EEPROM_XMC4\e_eeprom_xmc4.c **** 
 325:E:/NOVA/Assets/IFX_P2G-HW-SW_V1.0.4/Firmware_Software/DAVE project/P2G_FW/Dave/Generated/E_EEPROM_XMC4\e_eeprom_xmc4.c **** 
 326:E:/NOVA/Assets/IFX_P2G-HW-SW_V1.0.4/Firmware_Software/DAVE project/P2G_FW/Dave/Generated/E_EEPROM_XMC4\e_eeprom_xmc4.c **** 
 327:E:/NOVA/Assets/IFX_P2G-HW-SW_V1.0.4/Firmware_Software/DAVE project/P2G_FW/Dave/Generated/E_EEPROM_XMC4\e_eeprom_xmc4.c **** /* Copy data blocks from RAM to FLASH */
 328:E:/NOVA/Assets/IFX_P2G-HW-SW_V1.0.4/Firmware_Software/DAVE project/P2G_FW/Dave/Generated/E_EEPROM_XMC4\e_eeprom_xmc4.c **** E_EEPROM_XMC4_STATUS_t E_EEPROM_XMC4_UpdateFlashContents(void)
 329:E:/NOVA/Assets/IFX_P2G-HW-SW_V1.0.4/Firmware_Software/DAVE project/P2G_FW/Dave/Generated/E_EEPROM_XMC4\e_eeprom_xmc4.c **** {
 330:E:/NOVA/Assets/IFX_P2G-HW-SW_V1.0.4/Firmware_Software/DAVE project/P2G_FW/Dave/Generated/E_EEPROM_XMC4\e_eeprom_xmc4.c ****   E_EEPROM_XMC4_STATUS_t status;
 331:E:/NOVA/Assets/IFX_P2G-HW-SW_V1.0.4/Firmware_Software/DAVE project/P2G_FW/Dave/Generated/E_EEPROM_XMC4\e_eeprom_xmc4.c ****   uint32_t sector_start_addr;
 332:E:/NOVA/Assets/IFX_P2G-HW-SW_V1.0.4/Firmware_Software/DAVE project/P2G_FW/Dave/Generated/E_EEPROM_XMC4\e_eeprom_xmc4.c **** 
 333:E:/NOVA/Assets/IFX_P2G-HW-SW_V1.0.4/Firmware_Software/DAVE project/P2G_FW/Dave/Generated/E_EEPROM_XMC4\e_eeprom_xmc4.c ****   status = E_EEPROM_XMC4_STATUS_OK;
 334:E:/NOVA/Assets/IFX_P2G-HW-SW_V1.0.4/Firmware_Software/DAVE project/P2G_FW/Dave/Generated/E_EEPROM_XMC4\e_eeprom_xmc4.c **** 
 335:E:/NOVA/Assets/IFX_P2G-HW-SW_V1.0.4/Firmware_Software/DAVE project/P2G_FW/Dave/Generated/E_EEPROM_XMC4\e_eeprom_xmc4.c ****   /* Calculate the starting address of the active sector from where the first write started for the
 336:E:/NOVA/Assets/IFX_P2G-HW-SW_V1.0.4/Firmware_Software/DAVE project/P2G_FW/Dave/Generated/E_EEPROM_XMC4\e_eeprom_xmc4.c ****   sector_start_addr = E_EEPROM_XMC4_SECTOR0_START_ADDR +
 337:E:/NOVA/Assets/IFX_P2G-HW-SW_V1.0.4/Firmware_Software/DAVE project/P2G_FW/Dave/Generated/E_EEPROM_XMC4\e_eeprom_xmc4.c ****                      (E_EEPROM_XMC4_SECTOR_SIZE * e_eeprom_xmc4_sector_info.current_sector);
 338:E:/NOVA/Assets/IFX_P2G-HW-SW_V1.0.4/Firmware_Software/DAVE project/P2G_FW/Dave/Generated/E_EEPROM_XMC4\e_eeprom_xmc4.c **** 
 339:E:/NOVA/Assets/IFX_P2G-HW-SW_V1.0.4/Firmware_Software/DAVE project/P2G_FW/Dave/Generated/E_EEPROM_XMC4\e_eeprom_xmc4.c ****   /* If the next free address crosses current active sector starting address, then all the sectors 
 340:E:/NOVA/Assets/IFX_P2G-HW-SW_V1.0.4/Firmware_Software/DAVE project/P2G_FW/Dave/Generated/E_EEPROM_XMC4\e_eeprom_xmc4.c ****   if ((e_eeprom_xmc4_sector_info.next_free_start_addr == sector_start_addr) &&
 341:E:/NOVA/Assets/IFX_P2G-HW-SW_V1.0.4/Firmware_Software/DAVE project/P2G_FW/Dave/Generated/E_EEPROM_XMC4\e_eeprom_xmc4.c ****      (e_eeprom_xmc4_data_buffer.block_cycle_count != 0U))
 342:E:/NOVA/Assets/IFX_P2G-HW-SW_V1.0.4/Firmware_Software/DAVE project/P2G_FW/Dave/Generated/E_EEPROM_XMC4\e_eeprom_xmc4.c ****   {
 343:E:/NOVA/Assets/IFX_P2G-HW-SW_V1.0.4/Firmware_Software/DAVE project/P2G_FW/Dave/Generated/E_EEPROM_XMC4\e_eeprom_xmc4.c ****     /* Update the current sector to the latest sector on which the last write was executed. */
 344:E:/NOVA/Assets/IFX_P2G-HW-SW_V1.0.4/Firmware_Software/DAVE project/P2G_FW/Dave/Generated/E_EEPROM_XMC4\e_eeprom_xmc4.c ****     e_eeprom_xmc4_sector_info.current_sector =  ((e_eeprom_xmc4_sector_info.flash_data_addr &
 345:E:/NOVA/Assets/IFX_P2G-HW-SW_V1.0.4/Firmware_Software/DAVE project/P2G_FW/Dave/Generated/E_EEPROM_XMC4\e_eeprom_xmc4.c ****                                                 E_EEPROM_XMC4_SECTOR_POSITION_MASK) >>
 346:E:/NOVA/Assets/IFX_P2G-HW-SW_V1.0.4/Firmware_Software/DAVE project/P2G_FW/Dave/Generated/E_EEPROM_XMC4\e_eeprom_xmc4.c ****                                                 E_EEPROM_XMC4_SECTOR_POSITION);
 347:E:/NOVA/Assets/IFX_P2G-HW-SW_V1.0.4/Firmware_Software/DAVE project/P2G_FW/Dave/Generated/E_EEPROM_XMC4\e_eeprom_xmc4.c **** 
 348:E:/NOVA/Assets/IFX_P2G-HW-SW_V1.0.4/Firmware_Software/DAVE project/P2G_FW/Dave/Generated/E_EEPROM_XMC4\e_eeprom_xmc4.c ****     /* Mark all the sectors as filled with data */
 349:E:/NOVA/Assets/IFX_P2G-HW-SW_V1.0.4/Firmware_Software/DAVE project/P2G_FW/Dave/Generated/E_EEPROM_XMC4\e_eeprom_xmc4.c ****     e_eeprom_xmc4_sector_info.erase_state = E_EEPROM_XMC4_ALL_SECTORS_FILLED ;
 350:E:/NOVA/Assets/IFX_P2G-HW-SW_V1.0.4/Firmware_Software/DAVE project/P2G_FW/Dave/Generated/E_EEPROM_XMC4\e_eeprom_xmc4.c **** 
 351:E:/NOVA/Assets/IFX_P2G-HW-SW_V1.0.4/Firmware_Software/DAVE project/P2G_FW/Dave/Generated/E_EEPROM_XMC4\e_eeprom_xmc4.c ****     /* Execute erase state machine to free up the unwanted sectors and keep only the sector which h
 352:E:/NOVA/Assets/IFX_P2G-HW-SW_V1.0.4/Firmware_Software/DAVE project/P2G_FW/Dave/Generated/E_EEPROM_XMC4\e_eeprom_xmc4.c ****     status = E_EEPROM_XMC4_lInitEraseStateMachine();
 353:E:/NOVA/Assets/IFX_P2G-HW-SW_V1.0.4/Firmware_Software/DAVE project/P2G_FW/Dave/Generated/E_EEPROM_XMC4\e_eeprom_xmc4.c ****   }
 354:E:/NOVA/Assets/IFX_P2G-HW-SW_V1.0.4/Firmware_Software/DAVE project/P2G_FW/Dave/Generated/E_EEPROM_XMC4\e_eeprom_xmc4.c **** 
 355:E:/NOVA/Assets/IFX_P2G-HW-SW_V1.0.4/Firmware_Software/DAVE project/P2G_FW/Dave/Generated/E_EEPROM_XMC4\e_eeprom_xmc4.c ****   if (status ==  E_EEPROM_XMC4_STATUS_OK)
 356:E:/NOVA/Assets/IFX_P2G-HW-SW_V1.0.4/Firmware_Software/DAVE project/P2G_FW/Dave/Generated/E_EEPROM_XMC4\e_eeprom_xmc4.c ****   {
 357:E:/NOVA/Assets/IFX_P2G-HW-SW_V1.0.4/Firmware_Software/DAVE project/P2G_FW/Dave/Generated/E_EEPROM_XMC4\e_eeprom_xmc4.c ****     e_eeprom_xmc4_data_buffer.block_cycle_count++;
 358:E:/NOVA/Assets/IFX_P2G-HW-SW_V1.0.4/Firmware_Software/DAVE project/P2G_FW/Dave/Generated/E_EEPROM_XMC4\e_eeprom_xmc4.c **** 
 359:E:/NOVA/Assets/IFX_P2G-HW-SW_V1.0.4/Firmware_Software/DAVE project/P2G_FW/Dave/Generated/E_EEPROM_XMC4\e_eeprom_xmc4.c ****     status = E_EEPROM_XMC4_lWriteToFlash();
 360:E:/NOVA/Assets/IFX_P2G-HW-SW_V1.0.4/Firmware_Software/DAVE project/P2G_FW/Dave/Generated/E_EEPROM_XMC4\e_eeprom_xmc4.c **** 
 361:E:/NOVA/Assets/IFX_P2G-HW-SW_V1.0.4/Firmware_Software/DAVE project/P2G_FW/Dave/Generated/E_EEPROM_XMC4\e_eeprom_xmc4.c ****     /* If the flash write succeeds, update the latest flash data location in RAM for reference */
 362:E:/NOVA/Assets/IFX_P2G-HW-SW_V1.0.4/Firmware_Software/DAVE project/P2G_FW/Dave/Generated/E_EEPROM_XMC4\e_eeprom_xmc4.c ****     if (status == E_EEPROM_XMC4_STATUS_OK)
 363:E:/NOVA/Assets/IFX_P2G-HW-SW_V1.0.4/Firmware_Software/DAVE project/P2G_FW/Dave/Generated/E_EEPROM_XMC4\e_eeprom_xmc4.c ****     {
 364:E:/NOVA/Assets/IFX_P2G-HW-SW_V1.0.4/Firmware_Software/DAVE project/P2G_FW/Dave/Generated/E_EEPROM_XMC4\e_eeprom_xmc4.c ****       e_eeprom_xmc4_sector_info.flash_data_addr = e_eeprom_xmc4_sector_info.next_free_start_addr;
 365:E:/NOVA/Assets/IFX_P2G-HW-SW_V1.0.4/Firmware_Software/DAVE project/P2G_FW/Dave/Generated/E_EEPROM_XMC4\e_eeprom_xmc4.c ****     }
 366:E:/NOVA/Assets/IFX_P2G-HW-SW_V1.0.4/Firmware_Software/DAVE project/P2G_FW/Dave/Generated/E_EEPROM_XMC4\e_eeprom_xmc4.c **** 
 367:E:/NOVA/Assets/IFX_P2G-HW-SW_V1.0.4/Firmware_Software/DAVE project/P2G_FW/Dave/Generated/E_EEPROM_XMC4\e_eeprom_xmc4.c ****     /* Update the next free address to write the new data block*/
 368:E:/NOVA/Assets/IFX_P2G-HW-SW_V1.0.4/Firmware_Software/DAVE project/P2G_FW/Dave/Generated/E_EEPROM_XMC4\e_eeprom_xmc4.c ****     e_eeprom_xmc4_sector_info.next_free_start_addr += E_EEPROM_XMC4_ACTUAL_FLASH_BLOCK_SIZE;
 369:E:/NOVA/Assets/IFX_P2G-HW-SW_V1.0.4/Firmware_Software/DAVE project/P2G_FW/Dave/Generated/E_EEPROM_XMC4\e_eeprom_xmc4.c **** 
 370:E:/NOVA/Assets/IFX_P2G-HW-SW_V1.0.4/Firmware_Software/DAVE project/P2G_FW/Dave/Generated/E_EEPROM_XMC4\e_eeprom_xmc4.c ****     /* If the next free address crosses 3rd sector end address relocate the address to 0th sector s
 371:E:/NOVA/Assets/IFX_P2G-HW-SW_V1.0.4/Firmware_Software/DAVE project/P2G_FW/Dave/Generated/E_EEPROM_XMC4\e_eeprom_xmc4.c ****     if (e_eeprom_xmc4_sector_info.next_free_start_addr >= E_EEPROM_XMC4_SECTOR4_START_ADDR)
 372:E:/NOVA/Assets/IFX_P2G-HW-SW_V1.0.4/Firmware_Software/DAVE project/P2G_FW/Dave/Generated/E_EEPROM_XMC4\e_eeprom_xmc4.c ****     {
 373:E:/NOVA/Assets/IFX_P2G-HW-SW_V1.0.4/Firmware_Software/DAVE project/P2G_FW/Dave/Generated/E_EEPROM_XMC4\e_eeprom_xmc4.c ****       e_eeprom_xmc4_sector_info.next_free_start_addr = E_EEPROM_XMC4_SECTOR0_START_ADDR;
 374:E:/NOVA/Assets/IFX_P2G-HW-SW_V1.0.4/Firmware_Software/DAVE project/P2G_FW/Dave/Generated/E_EEPROM_XMC4\e_eeprom_xmc4.c ****     }
 375:E:/NOVA/Assets/IFX_P2G-HW-SW_V1.0.4/Firmware_Software/DAVE project/P2G_FW/Dave/Generated/E_EEPROM_XMC4\e_eeprom_xmc4.c ****   }
 376:E:/NOVA/Assets/IFX_P2G-HW-SW_V1.0.4/Firmware_Software/DAVE project/P2G_FW/Dave/Generated/E_EEPROM_XMC4\e_eeprom_xmc4.c **** 
 377:E:/NOVA/Assets/IFX_P2G-HW-SW_V1.0.4/Firmware_Software/DAVE project/P2G_FW/Dave/Generated/E_EEPROM_XMC4\e_eeprom_xmc4.c ****   return (status);
 378:E:/NOVA/Assets/IFX_P2G-HW-SW_V1.0.4/Firmware_Software/DAVE project/P2G_FW/Dave/Generated/E_EEPROM_XMC4\e_eeprom_xmc4.c **** }
 379:E:/NOVA/Assets/IFX_P2G-HW-SW_V1.0.4/Firmware_Software/DAVE project/P2G_FW/Dave/Generated/E_EEPROM_XMC4\e_eeprom_xmc4.c **** 
 380:E:/NOVA/Assets/IFX_P2G-HW-SW_V1.0.4/Firmware_Software/DAVE project/P2G_FW/Dave/Generated/E_EEPROM_XMC4\e_eeprom_xmc4.c **** 
 381:E:/NOVA/Assets/IFX_P2G-HW-SW_V1.0.4/Firmware_Software/DAVE project/P2G_FW/Dave/Generated/E_EEPROM_XMC4\e_eeprom_xmc4.c **** /* Check the availability data in the flash emulated EEPROM area */
 382:E:/NOVA/Assets/IFX_P2G-HW-SW_V1.0.4/Firmware_Software/DAVE project/P2G_FW/Dave/Generated/E_EEPROM_XMC4\e_eeprom_xmc4.c **** bool E_EEPROM_XMC4_IsFlashEmpty(void)
 383:E:/NOVA/Assets/IFX_P2G-HW-SW_V1.0.4/Firmware_Software/DAVE project/P2G_FW/Dave/Generated/E_EEPROM_XMC4\e_eeprom_xmc4.c **** {
 384:E:/NOVA/Assets/IFX_P2G-HW-SW_V1.0.4/Firmware_Software/DAVE project/P2G_FW/Dave/Generated/E_EEPROM_XMC4\e_eeprom_xmc4.c ****   bool status = false;
 385:E:/NOVA/Assets/IFX_P2G-HW-SW_V1.0.4/Firmware_Software/DAVE project/P2G_FW/Dave/Generated/E_EEPROM_XMC4\e_eeprom_xmc4.c **** 
 386:E:/NOVA/Assets/IFX_P2G-HW-SW_V1.0.4/Firmware_Software/DAVE project/P2G_FW/Dave/Generated/E_EEPROM_XMC4\e_eeprom_xmc4.c ****   /* If data available flash_data_addr will have a valid address*/
 387:E:/NOVA/Assets/IFX_P2G-HW-SW_V1.0.4/Firmware_Software/DAVE project/P2G_FW/Dave/Generated/E_EEPROM_XMC4\e_eeprom_xmc4.c ****   if (e_eeprom_xmc4_sector_info.flash_data_addr == 0U)
 388:E:/NOVA/Assets/IFX_P2G-HW-SW_V1.0.4/Firmware_Software/DAVE project/P2G_FW/Dave/Generated/E_EEPROM_XMC4\e_eeprom_xmc4.c ****   {
 389:E:/NOVA/Assets/IFX_P2G-HW-SW_V1.0.4/Firmware_Software/DAVE project/P2G_FW/Dave/Generated/E_EEPROM_XMC4\e_eeprom_xmc4.c ****     status = true;
 390:E:/NOVA/Assets/IFX_P2G-HW-SW_V1.0.4/Firmware_Software/DAVE project/P2G_FW/Dave/Generated/E_EEPROM_XMC4\e_eeprom_xmc4.c ****   }
 391:E:/NOVA/Assets/IFX_P2G-HW-SW_V1.0.4/Firmware_Software/DAVE project/P2G_FW/Dave/Generated/E_EEPROM_XMC4\e_eeprom_xmc4.c ****   return (status);
 392:E:/NOVA/Assets/IFX_P2G-HW-SW_V1.0.4/Firmware_Software/DAVE project/P2G_FW/Dave/Generated/E_EEPROM_XMC4\e_eeprom_xmc4.c **** }
 393:E:/NOVA/Assets/IFX_P2G-HW-SW_V1.0.4/Firmware_Software/DAVE project/P2G_FW/Dave/Generated/E_EEPROM_XMC4\e_eeprom_xmc4.c **** 
 394:E:/NOVA/Assets/IFX_P2G-HW-SW_V1.0.4/Firmware_Software/DAVE project/P2G_FW/Dave/Generated/E_EEPROM_XMC4\e_eeprom_xmc4.c **** /**************************************************************************************************
 395:E:/NOVA/Assets/IFX_P2G-HW-SW_V1.0.4/Firmware_Software/DAVE project/P2G_FW/Dave/Generated/E_EEPROM_XMC4\e_eeprom_xmc4.c ****  * LOCAL ROUTINES
 396:E:/NOVA/Assets/IFX_P2G-HW-SW_V1.0.4/Firmware_Software/DAVE project/P2G_FW/Dave/Generated/E_EEPROM_XMC4\e_eeprom_xmc4.c ****  **************************************************************************************************
 397:E:/NOVA/Assets/IFX_P2G-HW-SW_V1.0.4/Firmware_Software/DAVE project/P2G_FW/Dave/Generated/E_EEPROM_XMC4\e_eeprom_xmc4.c **** 
 398:E:/NOVA/Assets/IFX_P2G-HW-SW_V1.0.4/Firmware_Software/DAVE project/P2G_FW/Dave/Generated/E_EEPROM_XMC4\e_eeprom_xmc4.c **** /* Local function to program data blocks from RAM into FLASH */
 399:E:/NOVA/Assets/IFX_P2G-HW-SW_V1.0.4/Firmware_Software/DAVE project/P2G_FW/Dave/Generated/E_EEPROM_XMC4\e_eeprom_xmc4.c **** static E_EEPROM_XMC4_STATUS_t E_EEPROM_XMC4_lWriteToFlash(void)
 400:E:/NOVA/Assets/IFX_P2G-HW-SW_V1.0.4/Firmware_Software/DAVE project/P2G_FW/Dave/Generated/E_EEPROM_XMC4\e_eeprom_xmc4.c **** {
 401:E:/NOVA/Assets/IFX_P2G-HW-SW_V1.0.4/Firmware_Software/DAVE project/P2G_FW/Dave/Generated/E_EEPROM_XMC4\e_eeprom_xmc4.c ****   uint32_t *flash_addr_ptr;
 402:E:/NOVA/Assets/IFX_P2G-HW-SW_V1.0.4/Firmware_Software/DAVE project/P2G_FW/Dave/Generated/E_EEPROM_XMC4\e_eeprom_xmc4.c ****   uint32_t *ram_addr_ptr;
 403:E:/NOVA/Assets/IFX_P2G-HW-SW_V1.0.4/Firmware_Software/DAVE project/P2G_FW/Dave/Generated/E_EEPROM_XMC4\e_eeprom_xmc4.c ****   uint32_t  page_index;
 404:E:/NOVA/Assets/IFX_P2G-HW-SW_V1.0.4/Firmware_Software/DAVE project/P2G_FW/Dave/Generated/E_EEPROM_XMC4\e_eeprom_xmc4.c ****   E_EEPROM_XMC4_STATUS_t status;
 405:E:/NOVA/Assets/IFX_P2G-HW-SW_V1.0.4/Firmware_Software/DAVE project/P2G_FW/Dave/Generated/E_EEPROM_XMC4\e_eeprom_xmc4.c **** 
 406:E:/NOVA/Assets/IFX_P2G-HW-SW_V1.0.4/Firmware_Software/DAVE project/P2G_FW/Dave/Generated/E_EEPROM_XMC4\e_eeprom_xmc4.c ****   status = E_EEPROM_XMC4_STATUS_OK;
 407:E:/NOVA/Assets/IFX_P2G-HW-SW_V1.0.4/Firmware_Software/DAVE project/P2G_FW/Dave/Generated/E_EEPROM_XMC4\e_eeprom_xmc4.c ****   flash_addr_ptr = (uint32_t*)e_eeprom_xmc4_sector_info.next_free_start_addr;
 408:E:/NOVA/Assets/IFX_P2G-HW-SW_V1.0.4/Firmware_Software/DAVE project/P2G_FW/Dave/Generated/E_EEPROM_XMC4\e_eeprom_xmc4.c ****   ram_addr_ptr   = (uint32_t*)(void*)&e_eeprom_xmc4_data_buffer;
 409:E:/NOVA/Assets/IFX_P2G-HW-SW_V1.0.4/Firmware_Software/DAVE project/P2G_FW/Dave/Generated/E_EEPROM_XMC4\e_eeprom_xmc4.c **** 
 410:E:/NOVA/Assets/IFX_P2G-HW-SW_V1.0.4/Firmware_Software/DAVE project/P2G_FW/Dave/Generated/E_EEPROM_XMC4\e_eeprom_xmc4.c ****   e_eeprom_xmc4_data_buffer.crc = E_EEPROM_XMC4_lCalculateCRC((uint32_t*)(void*)
 411:E:/NOVA/Assets/IFX_P2G-HW-SW_V1.0.4/Firmware_Software/DAVE project/P2G_FW/Dave/Generated/E_EEPROM_XMC4\e_eeprom_xmc4.c ****                                                              (&(e_eeprom_xmc4_data_buffer.block_cyc
 412:E:/NOVA/Assets/IFX_P2G-HW-SW_V1.0.4/Firmware_Software/DAVE project/P2G_FW/Dave/Generated/E_EEPROM_XMC4\e_eeprom_xmc4.c **** 
 413:E:/NOVA/Assets/IFX_P2G-HW-SW_V1.0.4/Firmware_Software/DAVE project/P2G_FW/Dave/Generated/E_EEPROM_XMC4\e_eeprom_xmc4.c ****   for (page_index = 0U ; page_index < E_EEPROM_XMC4_MAX_PAGES; page_index++)
 414:E:/NOVA/Assets/IFX_P2G-HW-SW_V1.0.4/Firmware_Software/DAVE project/P2G_FW/Dave/Generated/E_EEPROM_XMC4\e_eeprom_xmc4.c ****   {
 415:E:/NOVA/Assets/IFX_P2G-HW-SW_V1.0.4/Firmware_Software/DAVE project/P2G_FW/Dave/Generated/E_EEPROM_XMC4\e_eeprom_xmc4.c ****     XMC_FLASH_ClearStatus();
 416:E:/NOVA/Assets/IFX_P2G-HW-SW_V1.0.4/Firmware_Software/DAVE project/P2G_FW/Dave/Generated/E_EEPROM_XMC4\e_eeprom_xmc4.c **** 
 417:E:/NOVA/Assets/IFX_P2G-HW-SW_V1.0.4/Firmware_Software/DAVE project/P2G_FW/Dave/Generated/E_EEPROM_XMC4\e_eeprom_xmc4.c ****     XMC_FLASH_ProgramPage(flash_addr_ptr,ram_addr_ptr);
 418:E:/NOVA/Assets/IFX_P2G-HW-SW_V1.0.4/Firmware_Software/DAVE project/P2G_FW/Dave/Generated/E_EEPROM_XMC4\e_eeprom_xmc4.c **** 
 419:E:/NOVA/Assets/IFX_P2G-HW-SW_V1.0.4/Firmware_Software/DAVE project/P2G_FW/Dave/Generated/E_EEPROM_XMC4\e_eeprom_xmc4.c ****     if (XMC_FLASH_GetStatus() == (uint32_t)XMC_FLASH_STATUS_VERIFY_ERROR)
 420:E:/NOVA/Assets/IFX_P2G-HW-SW_V1.0.4/Firmware_Software/DAVE project/P2G_FW/Dave/Generated/E_EEPROM_XMC4\e_eeprom_xmc4.c ****     {
 421:E:/NOVA/Assets/IFX_P2G-HW-SW_V1.0.4/Firmware_Software/DAVE project/P2G_FW/Dave/Generated/E_EEPROM_XMC4\e_eeprom_xmc4.c ****       status = E_EEPROM_XMC4_STATUS_WRITE_ERROR;
 422:E:/NOVA/Assets/IFX_P2G-HW-SW_V1.0.4/Firmware_Software/DAVE project/P2G_FW/Dave/Generated/E_EEPROM_XMC4\e_eeprom_xmc4.c ****       break;
 423:E:/NOVA/Assets/IFX_P2G-HW-SW_V1.0.4/Firmware_Software/DAVE project/P2G_FW/Dave/Generated/E_EEPROM_XMC4\e_eeprom_xmc4.c ****     }
 424:E:/NOVA/Assets/IFX_P2G-HW-SW_V1.0.4/Firmware_Software/DAVE project/P2G_FW/Dave/Generated/E_EEPROM_XMC4\e_eeprom_xmc4.c ****     ram_addr_ptr   += E_EEPROM_XMC4_MIN_WORDS_PER_PAGE ;
 425:E:/NOVA/Assets/IFX_P2G-HW-SW_V1.0.4/Firmware_Software/DAVE project/P2G_FW/Dave/Generated/E_EEPROM_XMC4\e_eeprom_xmc4.c ****     flash_addr_ptr += E_EEPROM_XMC4_MIN_WORDS_PER_PAGE ;
 426:E:/NOVA/Assets/IFX_P2G-HW-SW_V1.0.4/Firmware_Software/DAVE project/P2G_FW/Dave/Generated/E_EEPROM_XMC4\e_eeprom_xmc4.c ****   }
 427:E:/NOVA/Assets/IFX_P2G-HW-SW_V1.0.4/Firmware_Software/DAVE project/P2G_FW/Dave/Generated/E_EEPROM_XMC4\e_eeprom_xmc4.c **** 
 428:E:/NOVA/Assets/IFX_P2G-HW-SW_V1.0.4/Firmware_Software/DAVE project/P2G_FW/Dave/Generated/E_EEPROM_XMC4\e_eeprom_xmc4.c ****   return (status);
 429:E:/NOVA/Assets/IFX_P2G-HW-SW_V1.0.4/Firmware_Software/DAVE project/P2G_FW/Dave/Generated/E_EEPROM_XMC4\e_eeprom_xmc4.c **** }
 430:E:/NOVA/Assets/IFX_P2G-HW-SW_V1.0.4/Firmware_Software/DAVE project/P2G_FW/Dave/Generated/E_EEPROM_XMC4\e_eeprom_xmc4.c **** 
 431:E:/NOVA/Assets/IFX_P2G-HW-SW_V1.0.4/Firmware_Software/DAVE project/P2G_FW/Dave/Generated/E_EEPROM_XMC4\e_eeprom_xmc4.c **** 
 432:E:/NOVA/Assets/IFX_P2G-HW-SW_V1.0.4/Firmware_Software/DAVE project/P2G_FW/Dave/Generated/E_EEPROM_XMC4\e_eeprom_xmc4.c **** 
 433:E:/NOVA/Assets/IFX_P2G-HW-SW_V1.0.4/Firmware_Software/DAVE project/P2G_FW/Dave/Generated/E_EEPROM_XMC4\e_eeprom_xmc4.c **** static void E_EEPROM_XMC4_lInitReadSectorInfo(const uint32_t sector)
 434:E:/NOVA/Assets/IFX_P2G-HW-SW_V1.0.4/Firmware_Software/DAVE project/P2G_FW/Dave/Generated/E_EEPROM_XMC4\e_eeprom_xmc4.c **** {
 435:E:/NOVA/Assets/IFX_P2G-HW-SW_V1.0.4/Firmware_Software/DAVE project/P2G_FW/Dave/Generated/E_EEPROM_XMC4\e_eeprom_xmc4.c ****   uint32_t block_read_addr;
 436:E:/NOVA/Assets/IFX_P2G-HW-SW_V1.0.4/Firmware_Software/DAVE project/P2G_FW/Dave/Generated/E_EEPROM_XMC4\e_eeprom_xmc4.c ****   uint32_t sector_start_addr;
 437:E:/NOVA/Assets/IFX_P2G-HW-SW_V1.0.4/Firmware_Software/DAVE project/P2G_FW/Dave/Generated/E_EEPROM_XMC4\e_eeprom_xmc4.c ****   uint32_t free_block_addr;
 438:E:/NOVA/Assets/IFX_P2G-HW-SW_V1.0.4/Firmware_Software/DAVE project/P2G_FW/Dave/Generated/E_EEPROM_XMC4\e_eeprom_xmc4.c ****   uint32_t *data_ptr;
 439:E:/NOVA/Assets/IFX_P2G-HW-SW_V1.0.4/Firmware_Software/DAVE project/P2G_FW/Dave/Generated/E_EEPROM_XMC4\e_eeprom_xmc4.c ****   uint32_t block_cycle_count;
 440:E:/NOVA/Assets/IFX_P2G-HW-SW_V1.0.4/Firmware_Software/DAVE project/P2G_FW/Dave/Generated/E_EEPROM_XMC4\e_eeprom_xmc4.c ****   uint32_t written_crc;
 441:E:/NOVA/Assets/IFX_P2G-HW-SW_V1.0.4/Firmware_Software/DAVE project/P2G_FW/Dave/Generated/E_EEPROM_XMC4\e_eeprom_xmc4.c ****   uint32_t calculated_crc;
 442:E:/NOVA/Assets/IFX_P2G-HW-SW_V1.0.4/Firmware_Software/DAVE project/P2G_FW/Dave/Generated/E_EEPROM_XMC4\e_eeprom_xmc4.c **** 
 443:E:/NOVA/Assets/IFX_P2G-HW-SW_V1.0.4/Firmware_Software/DAVE project/P2G_FW/Dave/Generated/E_EEPROM_XMC4\e_eeprom_xmc4.c ****   /* Initialize starting address and last block address of the sector. */
 444:E:/NOVA/Assets/IFX_P2G-HW-SW_V1.0.4/Firmware_Software/DAVE project/P2G_FW/Dave/Generated/E_EEPROM_XMC4\e_eeprom_xmc4.c ****   sector_start_addr = E_EEPROM_XMC4_SECTOR0_START_ADDR + (E_EEPROM_XMC4_SECTOR_SIZE * (uint32_t)sec
 445:E:/NOVA/Assets/IFX_P2G-HW-SW_V1.0.4/Firmware_Software/DAVE project/P2G_FW/Dave/Generated/E_EEPROM_XMC4\e_eeprom_xmc4.c ****   block_read_addr = (sector_start_addr + E_EEPROM_XMC4_SECTOR_SIZE) - E_EEPROM_XMC4_ACTUAL_FLASH_BL
 446:E:/NOVA/Assets/IFX_P2G-HW-SW_V1.0.4/Firmware_Software/DAVE project/P2G_FW/Dave/Generated/E_EEPROM_XMC4\e_eeprom_xmc4.c ****   free_block_addr = E_EEPROM_XMC4_EMPTY;
 178              	 .loc 1 446 0
 179 004e 4FF00009 	 mov r9,#0
 447:E:/NOVA/Assets/IFX_P2G-HW-SW_V1.0.4/Firmware_Software/DAVE project/P2G_FW/Dave/Generated/E_EEPROM_XMC4\e_eeprom_xmc4.c **** 
 448:E:/NOVA/Assets/IFX_P2G-HW-SW_V1.0.4/Firmware_Software/DAVE project/P2G_FW/Dave/Generated/E_EEPROM_XMC4\e_eeprom_xmc4.c ****   do
 449:E:/NOVA/Assets/IFX_P2G-HW-SW_V1.0.4/Firmware_Software/DAVE project/P2G_FW/Dave/Generated/E_EEPROM_XMC4\e_eeprom_xmc4.c ****   {
 450:E:/NOVA/Assets/IFX_P2G-HW-SW_V1.0.4/Firmware_Software/DAVE project/P2G_FW/Dave/Generated/E_EEPROM_XMC4\e_eeprom_xmc4.c ****     /* Read first 32 bit data from the block which indicates the block cycle counter. */
 451:E:/NOVA/Assets/IFX_P2G-HW-SW_V1.0.4/Firmware_Software/DAVE project/P2G_FW/Dave/Generated/E_EEPROM_XMC4\e_eeprom_xmc4.c ****     data_ptr = (uint32_t*)block_read_addr;
 452:E:/NOVA/Assets/IFX_P2G-HW-SW_V1.0.4/Firmware_Software/DAVE project/P2G_FW/Dave/Generated/E_EEPROM_XMC4\e_eeprom_xmc4.c ****     block_cycle_count = *(data_ptr + E_EEPROM_XMC4_BCC_OFFSET);
 453:E:/NOVA/Assets/IFX_P2G-HW-SW_V1.0.4/Firmware_Software/DAVE project/P2G_FW/Dave/Generated/E_EEPROM_XMC4\e_eeprom_xmc4.c **** 
 454:E:/NOVA/Assets/IFX_P2G-HW-SW_V1.0.4/Firmware_Software/DAVE project/P2G_FW/Dave/Generated/E_EEPROM_XMC4\e_eeprom_xmc4.c ****     /* Check if block cycle count is a non zero value*/
 455:E:/NOVA/Assets/IFX_P2G-HW-SW_V1.0.4/Firmware_Software/DAVE project/P2G_FW/Dave/Generated/E_EEPROM_XMC4\e_eeprom_xmc4.c ****     if (block_cycle_count != E_EEPROM_XMC4_EMPTY)
 456:E:/NOVA/Assets/IFX_P2G-HW-SW_V1.0.4/Firmware_Software/DAVE project/P2G_FW/Dave/Generated/E_EEPROM_XMC4\e_eeprom_xmc4.c ****     {
 457:E:/NOVA/Assets/IFX_P2G-HW-SW_V1.0.4/Firmware_Software/DAVE project/P2G_FW/Dave/Generated/E_EEPROM_XMC4\e_eeprom_xmc4.c ****       /* Mark sector as non-empty sector*/
 458:E:/NOVA/Assets/IFX_P2G-HW-SW_V1.0.4/Firmware_Software/DAVE project/P2G_FW/Dave/Generated/E_EEPROM_XMC4\e_eeprom_xmc4.c ****       e_eeprom_xmc4_sector_info.erase_state |= ((uint32_t)1U << sector);
 180              	 .loc 1 458 0
 181 0052 4FF0010A 	 mov r10,#1
 182 0056 0AFA03FA 	 lsl r10,r10,r3
 446:E:/NOVA/Assets/IFX_P2G-HW-SW_V1.0.4/Firmware_Software/DAVE project/P2G_FW/Dave/Generated/E_EEPROM_XMC4\e_eeprom_xmc4.c **** 
 183              	 .loc 1 446 0
 184 005a 4B46     	 mov r3,r9
 445:E:/NOVA/Assets/IFX_P2G-HW-SW_V1.0.4/Firmware_Software/DAVE project/P2G_FW/Dave/Generated/E_EEPROM_XMC4\e_eeprom_xmc4.c ****   free_block_addr = E_EEPROM_XMC4_EMPTY;
 185              	 .loc 1 445 0
 186 005c 07F54054 	 add r4,r7,#12288
 187              	.LVL8:
 446:E:/NOVA/Assets/IFX_P2G-HW-SW_V1.0.4/Firmware_Software/DAVE project/P2G_FW/Dave/Generated/E_EEPROM_XMC4\e_eeprom_xmc4.c **** 
 188              	 .loc 1 446 0
 189 0060 B946     	 mov r9,r7
 190 0062 1F46     	 mov r7,r3
 191              	.LVL9:
 192 0064 03E0     	 b .L8
 193              	.LVL10:
 194              	.L5:
 459:E:/NOVA/Assets/IFX_P2G-HW-SW_V1.0.4/Firmware_Software/DAVE project/P2G_FW/Dave/Generated/E_EEPROM_XMC4\e_eeprom_xmc4.c **** 
 460:E:/NOVA/Assets/IFX_P2G-HW-SW_V1.0.4/Firmware_Software/DAVE project/P2G_FW/Dave/Generated/E_EEPROM_XMC4\e_eeprom_xmc4.c ****       /* If this is the first non empty block identified, then store the address as next free addre
 461:E:/NOVA/Assets/IFX_P2G-HW-SW_V1.0.4/Firmware_Software/DAVE project/P2G_FW/Dave/Generated/E_EEPROM_XMC4\e_eeprom_xmc4.c ****       if (free_block_addr == E_EEPROM_XMC4_EMPTY)
 462:E:/NOVA/Assets/IFX_P2G-HW-SW_V1.0.4/Firmware_Software/DAVE project/P2G_FW/Dave/Generated/E_EEPROM_XMC4\e_eeprom_xmc4.c ****       {
 463:E:/NOVA/Assets/IFX_P2G-HW-SW_V1.0.4/Firmware_Software/DAVE project/P2G_FW/Dave/Generated/E_EEPROM_XMC4\e_eeprom_xmc4.c ****         free_block_addr = block_read_addr + E_EEPROM_XMC4_ACTUAL_FLASH_BLOCK_SIZE;
 464:E:/NOVA/Assets/IFX_P2G-HW-SW_V1.0.4/Firmware_Software/DAVE project/P2G_FW/Dave/Generated/E_EEPROM_XMC4\e_eeprom_xmc4.c ****       }
 465:E:/NOVA/Assets/IFX_P2G-HW-SW_V1.0.4/Firmware_Software/DAVE project/P2G_FW/Dave/Generated/E_EEPROM_XMC4\e_eeprom_xmc4.c **** 
 466:E:/NOVA/Assets/IFX_P2G-HW-SW_V1.0.4/Firmware_Software/DAVE project/P2G_FW/Dave/Generated/E_EEPROM_XMC4\e_eeprom_xmc4.c ****       /* Read the second 32bit data which indicates the CRC */
 467:E:/NOVA/Assets/IFX_P2G-HW-SW_V1.0.4/Firmware_Software/DAVE project/P2G_FW/Dave/Generated/E_EEPROM_XMC4\e_eeprom_xmc4.c ****       written_crc = *data_ptr;
 468:E:/NOVA/Assets/IFX_P2G-HW-SW_V1.0.4/Firmware_Software/DAVE project/P2G_FW/Dave/Generated/E_EEPROM_XMC4\e_eeprom_xmc4.c ****       /* Calculate the CRC for the written data in flash (3rd word to the last word)*/
 469:E:/NOVA/Assets/IFX_P2G-HW-SW_V1.0.4/Firmware_Software/DAVE project/P2G_FW/Dave/Generated/E_EEPROM_XMC4\e_eeprom_xmc4.c ****       calculated_crc = E_EEPROM_XMC4_lCalculateCRC(data_ptr + E_EEPROM_XMC4_BCC_OFFSET);
 470:E:/NOVA/Assets/IFX_P2G-HW-SW_V1.0.4/Firmware_Software/DAVE project/P2G_FW/Dave/Generated/E_EEPROM_XMC4\e_eeprom_xmc4.c **** 
 471:E:/NOVA/Assets/IFX_P2G-HW-SW_V1.0.4/Firmware_Software/DAVE project/P2G_FW/Dave/Generated/E_EEPROM_XMC4\e_eeprom_xmc4.c ****       if (calculated_crc == written_crc)
 472:E:/NOVA/Assets/IFX_P2G-HW-SW_V1.0.4/Firmware_Software/DAVE project/P2G_FW/Dave/Generated/E_EEPROM_XMC4\e_eeprom_xmc4.c ****       {
 473:E:/NOVA/Assets/IFX_P2G-HW-SW_V1.0.4/Firmware_Software/DAVE project/P2G_FW/Dave/Generated/E_EEPROM_XMC4\e_eeprom_xmc4.c ****         /* If both CRC matches and the current block cycle counter is greater than the previous rec
 474:E:/NOVA/Assets/IFX_P2G-HW-SW_V1.0.4/Firmware_Software/DAVE project/P2G_FW/Dave/Generated/E_EEPROM_XMC4\e_eeprom_xmc4.c ****          * Update the Data structure with the current block as the "latest" one and the current sec
 475:E:/NOVA/Assets/IFX_P2G-HW-SW_V1.0.4/Firmware_Software/DAVE project/P2G_FW/Dave/Generated/E_EEPROM_XMC4\e_eeprom_xmc4.c ****          * Exit from the function.
 476:E:/NOVA/Assets/IFX_P2G-HW-SW_V1.0.4/Firmware_Software/DAVE project/P2G_FW/Dave/Generated/E_EEPROM_XMC4\e_eeprom_xmc4.c ****          */
 477:E:/NOVA/Assets/IFX_P2G-HW-SW_V1.0.4/Firmware_Software/DAVE project/P2G_FW/Dave/Generated/E_EEPROM_XMC4\e_eeprom_xmc4.c ****         if (block_cycle_count > e_eeprom_xmc4_data_buffer.block_cycle_count)
 478:E:/NOVA/Assets/IFX_P2G-HW-SW_V1.0.4/Firmware_Software/DAVE project/P2G_FW/Dave/Generated/E_EEPROM_XMC4\e_eeprom_xmc4.c ****         {
 479:E:/NOVA/Assets/IFX_P2G-HW-SW_V1.0.4/Firmware_Software/DAVE project/P2G_FW/Dave/Generated/E_EEPROM_XMC4\e_eeprom_xmc4.c ****           e_eeprom_xmc4_data_buffer.block_cycle_count = block_cycle_count;
 480:E:/NOVA/Assets/IFX_P2G-HW-SW_V1.0.4/Firmware_Software/DAVE project/P2G_FW/Dave/Generated/E_EEPROM_XMC4\e_eeprom_xmc4.c ****           e_eeprom_xmc4_sector_info.current_sector = sector;
 481:E:/NOVA/Assets/IFX_P2G-HW-SW_V1.0.4/Firmware_Software/DAVE project/P2G_FW/Dave/Generated/E_EEPROM_XMC4\e_eeprom_xmc4.c ****           e_eeprom_xmc4_sector_info.flash_data_addr = block_read_addr;
 482:E:/NOVA/Assets/IFX_P2G-HW-SW_V1.0.4/Firmware_Software/DAVE project/P2G_FW/Dave/Generated/E_EEPROM_XMC4\e_eeprom_xmc4.c ****           e_eeprom_xmc4_sector_info.next_free_start_addr = free_block_addr;
 483:E:/NOVA/Assets/IFX_P2G-HW-SW_V1.0.4/Firmware_Software/DAVE project/P2G_FW/Dave/Generated/E_EEPROM_XMC4\e_eeprom_xmc4.c ****           break;
 484:E:/NOVA/Assets/IFX_P2G-HW-SW_V1.0.4/Firmware_Software/DAVE project/P2G_FW/Dave/Generated/E_EEPROM_XMC4\e_eeprom_xmc4.c ****         }
 485:E:/NOVA/Assets/IFX_P2G-HW-SW_V1.0.4/Firmware_Software/DAVE project/P2G_FW/Dave/Generated/E_EEPROM_XMC4\e_eeprom_xmc4.c ****       }
 486:E:/NOVA/Assets/IFX_P2G-HW-SW_V1.0.4/Firmware_Software/DAVE project/P2G_FW/Dave/Generated/E_EEPROM_XMC4\e_eeprom_xmc4.c ****     }
 487:E:/NOVA/Assets/IFX_P2G-HW-SW_V1.0.4/Firmware_Software/DAVE project/P2G_FW/Dave/Generated/E_EEPROM_XMC4\e_eeprom_xmc4.c ****     /* Move the block read address to one block size up starting from the bottom of sector */
 488:E:/NOVA/Assets/IFX_P2G-HW-SW_V1.0.4/Firmware_Software/DAVE project/P2G_FW/Dave/Generated/E_EEPROM_XMC4\e_eeprom_xmc4.c ****     block_read_addr -= E_EEPROM_XMC4_ACTUAL_FLASH_BLOCK_SIZE;
 195              	 .loc 1 488 0
 196 0066 A4F58054 	 sub r4,r4,#4096
 197              	.LVL11:
 489:E:/NOVA/Assets/IFX_P2G-HW-SW_V1.0.4/Firmware_Software/DAVE project/P2G_FW/Dave/Generated/E_EEPROM_XMC4\e_eeprom_xmc4.c **** 
 490:E:/NOVA/Assets/IFX_P2G-HW-SW_V1.0.4/Firmware_Software/DAVE project/P2G_FW/Dave/Generated/E_EEPROM_XMC4\e_eeprom_xmc4.c ****   /* Iterate the read process until the block read address crosses sector start address or a
 491:E:/NOVA/Assets/IFX_P2G-HW-SW_V1.0.4/Firmware_Software/DAVE project/P2G_FW/Dave/Generated/E_EEPROM_XMC4\e_eeprom_xmc4.c ****    * latest valid block is identified.
 492:E:/NOVA/Assets/IFX_P2G-HW-SW_V1.0.4/Firmware_Software/DAVE project/P2G_FW/Dave/Generated/E_EEPROM_XMC4\e_eeprom_xmc4.c ****    */
 493:E:/NOVA/Assets/IFX_P2G-HW-SW_V1.0.4/Firmware_Software/DAVE project/P2G_FW/Dave/Generated/E_EEPROM_XMC4\e_eeprom_xmc4.c ****   } while ( block_read_addr >= sector_start_addr );
 198              	 .loc 1 493 0
 199 006a 4C45     	 cmp r4,r9
 200 006c 2CD3     	 bcc .L58
 201              	.LVL12:
 202              	.L8:
 452:E:/NOVA/Assets/IFX_P2G-HW-SW_V1.0.4/Firmware_Software/DAVE project/P2G_FW/Dave/Generated/E_EEPROM_XMC4\e_eeprom_xmc4.c **** 
 203              	 .loc 1 452 0
 204 006e 6568     	 ldr r5,[r4,#4]
 205              	.LVL13:
 206              	.LBB62:
 207              	.LBB59:
 494:E:/NOVA/Assets/IFX_P2G-HW-SW_V1.0.4/Firmware_Software/DAVE project/P2G_FW/Dave/Generated/E_EEPROM_XMC4\e_eeprom_xmc4.c **** 
 495:E:/NOVA/Assets/IFX_P2G-HW-SW_V1.0.4/Firmware_Software/DAVE project/P2G_FW/Dave/Generated/E_EEPROM_XMC4\e_eeprom_xmc4.c **** }
 496:E:/NOVA/Assets/IFX_P2G-HW-SW_V1.0.4/Firmware_Software/DAVE project/P2G_FW/Dave/Generated/E_EEPROM_XMC4\e_eeprom_xmc4.c **** 
 497:E:/NOVA/Assets/IFX_P2G-HW-SW_V1.0.4/Firmware_Software/DAVE project/P2G_FW/Dave/Generated/E_EEPROM_XMC4\e_eeprom_xmc4.c **** 
 498:E:/NOVA/Assets/IFX_P2G-HW-SW_V1.0.4/Firmware_Software/DAVE project/P2G_FW/Dave/Generated/E_EEPROM_XMC4\e_eeprom_xmc4.c **** 
 499:E:/NOVA/Assets/IFX_P2G-HW-SW_V1.0.4/Firmware_Software/DAVE project/P2G_FW/Dave/Generated/E_EEPROM_XMC4\e_eeprom_xmc4.c **** static E_EEPROM_XMC4_STATUS_t E_EEPROM_XMC4_lInitEraseStateMachine(void)
 500:E:/NOVA/Assets/IFX_P2G-HW-SW_V1.0.4/Firmware_Software/DAVE project/P2G_FW/Dave/Generated/E_EEPROM_XMC4\e_eeprom_xmc4.c **** {
 501:E:/NOVA/Assets/IFX_P2G-HW-SW_V1.0.4/Firmware_Software/DAVE project/P2G_FW/Dave/Generated/E_EEPROM_XMC4\e_eeprom_xmc4.c ****   uint32_t sector_count;
 502:E:/NOVA/Assets/IFX_P2G-HW-SW_V1.0.4/Firmware_Software/DAVE project/P2G_FW/Dave/Generated/E_EEPROM_XMC4\e_eeprom_xmc4.c ****   uint32_t sector_start_addr;
 503:E:/NOVA/Assets/IFX_P2G-HW-SW_V1.0.4/Firmware_Software/DAVE project/P2G_FW/Dave/Generated/E_EEPROM_XMC4\e_eeprom_xmc4.c ****   E_EEPROM_XMC4_STATUS_t status ;
 504:E:/NOVA/Assets/IFX_P2G-HW-SW_V1.0.4/Firmware_Software/DAVE project/P2G_FW/Dave/Generated/E_EEPROM_XMC4\e_eeprom_xmc4.c **** 
 505:E:/NOVA/Assets/IFX_P2G-HW-SW_V1.0.4/Firmware_Software/DAVE project/P2G_FW/Dave/Generated/E_EEPROM_XMC4\e_eeprom_xmc4.c ****   status = E_EEPROM_XMC4_STATUS_OK;
 506:E:/NOVA/Assets/IFX_P2G-HW-SW_V1.0.4/Firmware_Software/DAVE project/P2G_FW/Dave/Generated/E_EEPROM_XMC4\e_eeprom_xmc4.c ****   sector_count = 0U;
 507:E:/NOVA/Assets/IFX_P2G-HW-SW_V1.0.4/Firmware_Software/DAVE project/P2G_FW/Dave/Generated/E_EEPROM_XMC4\e_eeprom_xmc4.c **** 
 508:E:/NOVA/Assets/IFX_P2G-HW-SW_V1.0.4/Firmware_Software/DAVE project/P2G_FW/Dave/Generated/E_EEPROM_XMC4\e_eeprom_xmc4.c ****   do
 509:E:/NOVA/Assets/IFX_P2G-HW-SW_V1.0.4/Firmware_Software/DAVE project/P2G_FW/Dave/Generated/E_EEPROM_XMC4\e_eeprom_xmc4.c ****   {
 510:E:/NOVA/Assets/IFX_P2G-HW-SW_V1.0.4/Firmware_Software/DAVE project/P2G_FW/Dave/Generated/E_EEPROM_XMC4\e_eeprom_xmc4.c ****     /* If the non empty sector is the current active sector, then do not erase it*/
 511:E:/NOVA/Assets/IFX_P2G-HW-SW_V1.0.4/Firmware_Software/DAVE project/P2G_FW/Dave/Generated/E_EEPROM_XMC4\e_eeprom_xmc4.c ****     if (e_eeprom_xmc4_sector_info.current_sector != sector_count)
 512:E:/NOVA/Assets/IFX_P2G-HW-SW_V1.0.4/Firmware_Software/DAVE project/P2G_FW/Dave/Generated/E_EEPROM_XMC4\e_eeprom_xmc4.c ****     {
 513:E:/NOVA/Assets/IFX_P2G-HW-SW_V1.0.4/Firmware_Software/DAVE project/P2G_FW/Dave/Generated/E_EEPROM_XMC4\e_eeprom_xmc4.c ****       /* Check if the sector was previously identified as non-empty. i.e It is having old data or c
 514:E:/NOVA/Assets/IFX_P2G-HW-SW_V1.0.4/Firmware_Software/DAVE project/P2G_FW/Dave/Generated/E_EEPROM_XMC4\e_eeprom_xmc4.c ****        * If so erase the sector and mark it as erase attempted.
 515:E:/NOVA/Assets/IFX_P2G-HW-SW_V1.0.4/Firmware_Software/DAVE project/P2G_FW/Dave/Generated/E_EEPROM_XMC4\e_eeprom_xmc4.c ****        */
 516:E:/NOVA/Assets/IFX_P2G-HW-SW_V1.0.4/Firmware_Software/DAVE project/P2G_FW/Dave/Generated/E_EEPROM_XMC4\e_eeprom_xmc4.c ****       if ((e_eeprom_xmc4_sector_info.erase_state >> sector_count) & ((uint32_t)1U))
 517:E:/NOVA/Assets/IFX_P2G-HW-SW_V1.0.4/Firmware_Software/DAVE project/P2G_FW/Dave/Generated/E_EEPROM_XMC4\e_eeprom_xmc4.c ****       {
 518:E:/NOVA/Assets/IFX_P2G-HW-SW_V1.0.4/Firmware_Software/DAVE project/P2G_FW/Dave/Generated/E_EEPROM_XMC4\e_eeprom_xmc4.c ****         sector_start_addr = E_EEPROM_XMC4_SECTOR0_START_ADDR + (E_EEPROM_XMC4_SECTOR_SIZE * (uint32
 519:E:/NOVA/Assets/IFX_P2G-HW-SW_V1.0.4/Firmware_Software/DAVE project/P2G_FW/Dave/Generated/E_EEPROM_XMC4\e_eeprom_xmc4.c **** 
 520:E:/NOVA/Assets/IFX_P2G-HW-SW_V1.0.4/Firmware_Software/DAVE project/P2G_FW/Dave/Generated/E_EEPROM_XMC4\e_eeprom_xmc4.c ****         XMC_FLASH_ClearStatus();
 521:E:/NOVA/Assets/IFX_P2G-HW-SW_V1.0.4/Firmware_Software/DAVE project/P2G_FW/Dave/Generated/E_EEPROM_XMC4\e_eeprom_xmc4.c ****         XMC_FLASH_EraseSector((uint32_t*)sector_start_addr);
 522:E:/NOVA/Assets/IFX_P2G-HW-SW_V1.0.4/Firmware_Software/DAVE project/P2G_FW/Dave/Generated/E_EEPROM_XMC4\e_eeprom_xmc4.c **** 
 523:E:/NOVA/Assets/IFX_P2G-HW-SW_V1.0.4/Firmware_Software/DAVE project/P2G_FW/Dave/Generated/E_EEPROM_XMC4\e_eeprom_xmc4.c ****         if (XMC_FLASH_GetStatus() != (uint32_t)XMC_FLASH_STATUS_ERASE_STATE)
 524:E:/NOVA/Assets/IFX_P2G-HW-SW_V1.0.4/Firmware_Software/DAVE project/P2G_FW/Dave/Generated/E_EEPROM_XMC4\e_eeprom_xmc4.c ****         {
 525:E:/NOVA/Assets/IFX_P2G-HW-SW_V1.0.4/Firmware_Software/DAVE project/P2G_FW/Dave/Generated/E_EEPROM_XMC4\e_eeprom_xmc4.c ****           status = E_EEPROM_XMC4_STATUS_ERASE_ERROR;
 526:E:/NOVA/Assets/IFX_P2G-HW-SW_V1.0.4/Firmware_Software/DAVE project/P2G_FW/Dave/Generated/E_EEPROM_XMC4\e_eeprom_xmc4.c ****           break;
 527:E:/NOVA/Assets/IFX_P2G-HW-SW_V1.0.4/Firmware_Software/DAVE project/P2G_FW/Dave/Generated/E_EEPROM_XMC4\e_eeprom_xmc4.c ****         }
 528:E:/NOVA/Assets/IFX_P2G-HW-SW_V1.0.4/Firmware_Software/DAVE project/P2G_FW/Dave/Generated/E_EEPROM_XMC4\e_eeprom_xmc4.c ****         e_eeprom_xmc4_sector_info.erase_state &= ~(((uint32_t)1U << sector_count));
 529:E:/NOVA/Assets/IFX_P2G-HW-SW_V1.0.4/Firmware_Software/DAVE project/P2G_FW/Dave/Generated/E_EEPROM_XMC4\e_eeprom_xmc4.c ****       }
 530:E:/NOVA/Assets/IFX_P2G-HW-SW_V1.0.4/Firmware_Software/DAVE project/P2G_FW/Dave/Generated/E_EEPROM_XMC4\e_eeprom_xmc4.c ****     }
 531:E:/NOVA/Assets/IFX_P2G-HW-SW_V1.0.4/Firmware_Software/DAVE project/P2G_FW/Dave/Generated/E_EEPROM_XMC4\e_eeprom_xmc4.c ****     sector_count++;
 532:E:/NOVA/Assets/IFX_P2G-HW-SW_V1.0.4/Firmware_Software/DAVE project/P2G_FW/Dave/Generated/E_EEPROM_XMC4\e_eeprom_xmc4.c ****     /* Iterate the erase loop until all 4 sectors are checked. Break and return failure on any sect
 533:E:/NOVA/Assets/IFX_P2G-HW-SW_V1.0.4/Firmware_Software/DAVE project/P2G_FW/Dave/Generated/E_EEPROM_XMC4\e_eeprom_xmc4.c ****   } while ( sector_count < E_EEPROM_XMC4_MAX_SECTORS );
 534:E:/NOVA/Assets/IFX_P2G-HW-SW_V1.0.4/Firmware_Software/DAVE project/P2G_FW/Dave/Generated/E_EEPROM_XMC4\e_eeprom_xmc4.c **** 
 535:E:/NOVA/Assets/IFX_P2G-HW-SW_V1.0.4/Firmware_Software/DAVE project/P2G_FW/Dave/Generated/E_EEPROM_XMC4\e_eeprom_xmc4.c ****   return (status);
 536:E:/NOVA/Assets/IFX_P2G-HW-SW_V1.0.4/Firmware_Software/DAVE project/P2G_FW/Dave/Generated/E_EEPROM_XMC4\e_eeprom_xmc4.c **** }
 537:E:/NOVA/Assets/IFX_P2G-HW-SW_V1.0.4/Firmware_Software/DAVE project/P2G_FW/Dave/Generated/E_EEPROM_XMC4\e_eeprom_xmc4.c **** 
 538:E:/NOVA/Assets/IFX_P2G-HW-SW_V1.0.4/Firmware_Software/DAVE project/P2G_FW/Dave/Generated/E_EEPROM_XMC4\e_eeprom_xmc4.c **** /* Local function to CRC */
 539:E:/NOVA/Assets/IFX_P2G-HW-SW_V1.0.4/Firmware_Software/DAVE project/P2G_FW/Dave/Generated/E_EEPROM_XMC4\e_eeprom_xmc4.c **** static uint32_t E_EEPROM_XMC4_lCalculateCRC(const uint32_t *data_start_addr)
 540:E:/NOVA/Assets/IFX_P2G-HW-SW_V1.0.4/Firmware_Software/DAVE project/P2G_FW/Dave/Generated/E_EEPROM_XMC4\e_eeprom_xmc4.c **** {
 541:E:/NOVA/Assets/IFX_P2G-HW-SW_V1.0.4/Firmware_Software/DAVE project/P2G_FW/Dave/Generated/E_EEPROM_XMC4\e_eeprom_xmc4.c ****   uint32_t result;
 542:E:/NOVA/Assets/IFX_P2G-HW-SW_V1.0.4/Firmware_Software/DAVE project/P2G_FW/Dave/Generated/E_EEPROM_XMC4\e_eeprom_xmc4.c **** 
 543:E:/NOVA/Assets/IFX_P2G-HW-SW_V1.0.4/Firmware_Software/DAVE project/P2G_FW/Dave/Generated/E_EEPROM_XMC4\e_eeprom_xmc4.c ****   /* Reset the CRC result register before new CRC calculation */
 544:E:/NOVA/Assets/IFX_P2G-HW-SW_V1.0.4/Firmware_Software/DAVE project/P2G_FW/Dave/Generated/E_EEPROM_XMC4\e_eeprom_xmc4.c ****   XMC_FCE_InitializeSeedValue(&e_eeprom_xmc4_fce, 0U);
 545:E:/NOVA/Assets/IFX_P2G-HW-SW_V1.0.4/Firmware_Software/DAVE project/P2G_FW/Dave/Generated/E_EEPROM_XMC4\e_eeprom_xmc4.c **** 
 546:E:/NOVA/Assets/IFX_P2G-HW-SW_V1.0.4/Firmware_Software/DAVE project/P2G_FW/Dave/Generated/E_EEPROM_XMC4\e_eeprom_xmc4.c ****   (void)XMC_FCE_CalculateCRC32(&e_eeprom_xmc4_fce, data_start_addr, E_EEPROM_XMC4_DATA_SIZE_FOR_CRC
 208              	 .loc 1 546 0
 209 0070 6548     	 ldr r0,.L63+12
 210              	.LBE59:
 211              	.LBE62:
 467:E:/NOVA/Assets/IFX_P2G-HW-SW_V1.0.4/Firmware_Software/DAVE project/P2G_FW/Dave/Generated/E_EEPROM_XMC4\e_eeprom_xmc4.c ****       /* Calculate the CRC for the written data in flash (3rd word to the last word)*/
 212              	 .loc 1 467 0
 213 0072 2146     	 mov r1,r4
 214              	.LBB63:
 215              	.LBB60:
 216              	.LBB57:
 217              	.LBB55:
 218              	 .loc 3 362 0
 219 0074 4FF0000E 	 mov lr,#0
 220              	.LBE55:
 221              	.LBE57:
 222              	 .loc 1 546 0
 223 0078 40F6FC72 	 movw r2,#4092
 224 007c 03AB     	 add r3,sp,#12
 225              	.LBE60:
 226              	.LBE63:
 455:E:/NOVA/Assets/IFX_P2G-HW-SW_V1.0.4/Firmware_Software/DAVE project/P2G_FW/Dave/Generated/E_EEPROM_XMC4\e_eeprom_xmc4.c ****     {
 227              	 .loc 1 455 0
 228 007e 002D     	 cmp r5,#0
 229 0080 F1D0     	 beq .L5
 230              	.LVL14:
 458:E:/NOVA/Assets/IFX_P2G-HW-SW_V1.0.4/Firmware_Software/DAVE project/P2G_FW/Dave/Generated/E_EEPROM_XMC4\e_eeprom_xmc4.c **** 
 231              	 .loc 1 458 0
 232 0082 D8F80C60 	 ldr r6,[r8,#12]
 233 0086 4AEA0606 	 orr r6,r10,r6
 234 008a C8F80C60 	 str r6,[r8,#12]
 461:E:/NOVA/Assets/IFX_P2G-HW-SW_V1.0.4/Firmware_Software/DAVE project/P2G_FW/Dave/Generated/E_EEPROM_XMC4\e_eeprom_xmc4.c ****       {
 235              	 .loc 1 461 0
 236 008e 0FB9     	 cbnz r7,.L6
 463:E:/NOVA/Assets/IFX_P2G-HW-SW_V1.0.4/Firmware_Software/DAVE project/P2G_FW/Dave/Generated/E_EEPROM_XMC4\e_eeprom_xmc4.c ****       }
 237              	 .loc 1 463 0
 238 0090 04F58057 	 add r7,r4,#4096
 239              	.LVL15:
 240              	.L6:
 467:E:/NOVA/Assets/IFX_P2G-HW-SW_V1.0.4/Firmware_Software/DAVE project/P2G_FW/Dave/Generated/E_EEPROM_XMC4\e_eeprom_xmc4.c ****       /* Calculate the CRC for the written data in flash (3rd word to the last word)*/
 241              	 .loc 1 467 0
 242 0094 51F8046B 	 ldr r6,[r1],#4
 243              	.LVL16:
 244              	.LBB64:
 245              	.LBB61:
 246              	.LBB58:
 247              	.LBB56:
 248              	 .loc 3 362 0
 249 0098 CBF818E0 	 str lr,[fp,#24]
 250              	.LBE56:
 251              	.LBE58:
 252              	 .loc 1 546 0
 253 009c FFF7FEFF 	 bl XMC_FCE_CalculateCRC32
 254              	.LVL17:
 547:E:/NOVA/Assets/IFX_P2G-HW-SW_V1.0.4/Firmware_Software/DAVE project/P2G_FW/Dave/Generated/E_EEPROM_XMC4\e_eeprom_xmc4.c **** 
 548:E:/NOVA/Assets/IFX_P2G-HW-SW_V1.0.4/Firmware_Software/DAVE project/P2G_FW/Dave/Generated/E_EEPROM_XMC4\e_eeprom_xmc4.c ****   return (result);
 255              	 .loc 1 548 0
 256 00a0 039B     	 ldr r3,[sp,#12]
 257              	.LBE61:
 258              	.LBE64:
 471:E:/NOVA/Assets/IFX_P2G-HW-SW_V1.0.4/Firmware_Software/DAVE project/P2G_FW/Dave/Generated/E_EEPROM_XMC4\e_eeprom_xmc4.c ****       {
 259              	 .loc 1 471 0
 260 00a2 9E42     	 cmp r6,r3
 261 00a4 DFD1     	 bne .L5
 477:E:/NOVA/Assets/IFX_P2G-HW-SW_V1.0.4/Firmware_Software/DAVE project/P2G_FW/Dave/Generated/E_EEPROM_XMC4\e_eeprom_xmc4.c ****         {
 262              	 .loc 1 477 0
 263 00a6 554B     	 ldr r3,.L63
 264 00a8 5B68     	 ldr r3,[r3,#4]
 265 00aa 9D42     	 cmp r5,r3
 266 00ac DBD9     	 bls .L5
 267 00ae 3B46     	 mov r3,r7
 268 00b0 4F46     	 mov r7,r9
 269              	.LVL18:
 270 00b2 9946     	 mov r9,r3
 271              	.LVL19:
 479:E:/NOVA/Assets/IFX_P2G-HW-SW_V1.0.4/Firmware_Software/DAVE project/P2G_FW/Dave/Generated/E_EEPROM_XMC4\e_eeprom_xmc4.c ****           e_eeprom_xmc4_sector_info.current_sector = sector;
 272              	 .loc 1 479 0
 273 00b4 514B     	 ldr r3,.L63
 274              	.LVL20:
 481:E:/NOVA/Assets/IFX_P2G-HW-SW_V1.0.4/Firmware_Software/DAVE project/P2G_FW/Dave/Generated/E_EEPROM_XMC4\e_eeprom_xmc4.c ****           e_eeprom_xmc4_sector_info.next_free_start_addr = free_block_addr;
 275              	 .loc 1 481 0
 276 00b6 C8F80440 	 str r4,[r8,#4]
 479:E:/NOVA/Assets/IFX_P2G-HW-SW_V1.0.4/Firmware_Software/DAVE project/P2G_FW/Dave/Generated/E_EEPROM_XMC4\e_eeprom_xmc4.c ****           e_eeprom_xmc4_sector_info.current_sector = sector;
 277              	 .loc 1 479 0
 278 00ba 5D60     	 str r5,[r3,#4]
 480:E:/NOVA/Assets/IFX_P2G-HW-SW_V1.0.4/Firmware_Software/DAVE project/P2G_FW/Dave/Generated/E_EEPROM_XMC4\e_eeprom_xmc4.c ****           e_eeprom_xmc4_sector_info.flash_data_addr = block_read_addr;
 279              	 .loc 1 480 0
 280 00bc 009B     	 ldr r3,[sp]
 281 00be C8F80830 	 str r3,[r8,#8]
 482:E:/NOVA/Assets/IFX_P2G-HW-SW_V1.0.4/Firmware_Software/DAVE project/P2G_FW/Dave/Generated/E_EEPROM_XMC4\e_eeprom_xmc4.c ****           break;
 282              	 .loc 1 482 0
 283 00c2 C8F80090 	 str r9,[r8]
 284 00c6 01E0     	 b .L7
 285              	.LVL21:
 286              	.L58:
 287 00c8 009B     	 ldr r3,[sp]
 288 00ca 4F46     	 mov r7,r9
 289              	.LVL22:
 290              	.L7:
 291              	.LBE65:
 292              	.LBE67:
 197:E:/NOVA/Assets/IFX_P2G-HW-SW_V1.0.4/Firmware_Software/DAVE project/P2G_FW/Dave/Generated/E_EEPROM_XMC4\e_eeprom_xmc4.c ****     {
 293              	 .loc 1 197 0 discriminator 3
 294 00cc 0133     	 adds r3,r3,#1
 295 00ce 042B     	 cmp r3,#4
 296 00d0 0093     	 str r3,[sp]
 297              	.LVL23:
 298 00d2 07F58047 	 add r7,r7,#16384
 299              	.LVL24:
 300 00d6 BAD1     	 bne .L9
 301              	.LVL25:
 302              	.LBB68:
 303              	.LBB69:
 382:E:/NOVA/Assets/IFX_P2G-HW-SW_V1.0.4/Firmware_Software/DAVE project/P2G_FMCW/Libraries/XMCLib/inc\xmc4_flash.h **** }
 304              	 .loc 2 382 0
 305 00d8 4949     	 ldr r1,.L63+4
 306              	.LBE69:
 307              	.LBE68:
 308              	.LBB71:
 309              	.LBB72:
 511:E:/NOVA/Assets/IFX_P2G-HW-SW_V1.0.4/Firmware_Software/DAVE project/P2G_FW/Dave/Generated/E_EEPROM_XMC4\e_eeprom_xmc4.c ****     {
 310              	 .loc 1 511 0
 311 00da D8F80800 	 ldr r0,[r8,#8]
 312 00de 4B4C     	 ldr r4,.L63+16
 313              	.LVL26:
 314              	.LBE72:
 315              	.LBE71:
 316              	.LBB75:
 317              	.LBB70:
 382:E:/NOVA/Assets/IFX_P2G-HW-SW_V1.0.4/Firmware_Software/DAVE project/P2G_FMCW/Libraries/XMCLib/inc\xmc4_flash.h **** }
 318              	 .loc 2 382 0
 319 00e0 41F21802 	 movw r2,#4120
 320 00e4 8B58     	 ldr r3,[r1,r2]
 321              	.LVL27:
 322 00e6 23F00F03 	 bic r3,r3,#15
 323 00ea 8B50     	 str r3,[r1,r2]
 324              	.LVL28:
 325              	.LBE70:
 326              	.LBE75:
 327              	.LBB76:
 328              	.LBB73:
 511:E:/NOVA/Assets/IFX_P2G-HW-SW_V1.0.4/Firmware_Software/DAVE project/P2G_FW/Dave/Generated/E_EEPROM_XMC4\e_eeprom_xmc4.c ****     {
 329              	 .loc 1 511 0
 330 00ec 30B1     	 cbz r0,.L10
 516:E:/NOVA/Assets/IFX_P2G-HW-SW_V1.0.4/Firmware_Software/DAVE project/P2G_FW/Dave/Generated/E_EEPROM_XMC4\e_eeprom_xmc4.c ****       {
 331              	 .loc 1 516 0
 332 00ee E368     	 ldr r3,[r4,#12]
 333 00f0 D807     	 lsls r0,r3,#31
 334 00f2 62D4     	 bmi .L59
 335              	.L11:
 336              	.LVL29:
 511:E:/NOVA/Assets/IFX_P2G-HW-SW_V1.0.4/Firmware_Software/DAVE project/P2G_FW/Dave/Generated/E_EEPROM_XMC4\e_eeprom_xmc4.c ****     {
 337              	 .loc 1 511 0
 338 00f4 D8F80830 	 ldr r3,[r8,#8]
 339 00f8 012B     	 cmp r3,#1
 340 00fa 08D0     	 beq .L13
 341              	.LVL30:
 342              	.L10:
 516:E:/NOVA/Assets/IFX_P2G-HW-SW_V1.0.4/Firmware_Software/DAVE project/P2G_FW/Dave/Generated/E_EEPROM_XMC4\e_eeprom_xmc4.c ****       {
 343              	 .loc 1 516 0
 344 00fc D8F80C30 	 ldr r3,[r8,#12]
 345 0100 424C     	 ldr r4,.L63+16
 346 0102 9907     	 lsls r1,r3,#30
 347 0104 4BD4     	 bmi .L60
 348              	.L14:
 349              	.LVL31:
 511:E:/NOVA/Assets/IFX_P2G-HW-SW_V1.0.4/Firmware_Software/DAVE project/P2G_FW/Dave/Generated/E_EEPROM_XMC4\e_eeprom_xmc4.c ****     {
 350              	 .loc 1 511 0
 351 0106 D8F80830 	 ldr r3,[r8,#8]
 352 010a 022B     	 cmp r3,#2
 353 010c 08D0     	 beq .L15
 354              	.LVL32:
 355              	.L13:
 516:E:/NOVA/Assets/IFX_P2G-HW-SW_V1.0.4/Firmware_Software/DAVE project/P2G_FW/Dave/Generated/E_EEPROM_XMC4\e_eeprom_xmc4.c ****       {
 356              	 .loc 1 516 0
 357 010e D8F80C30 	 ldr r3,[r8,#12]
 358 0112 3E4C     	 ldr r4,.L63+16
 359 0114 5A07     	 lsls r2,r3,#29
 360 0116 5ED4     	 bmi .L61
 361              	.L16:
 362              	.LVL33:
 511:E:/NOVA/Assets/IFX_P2G-HW-SW_V1.0.4/Firmware_Software/DAVE project/P2G_FW/Dave/Generated/E_EEPROM_XMC4\e_eeprom_xmc4.c ****     {
 363              	 .loc 1 511 0
 364 0118 D8F80830 	 ldr r3,[r8,#8]
 365 011c 032B     	 cmp r3,#3
 366 011e 04D0     	 beq .L17
 367              	.LVL34:
 368              	.L15:
 516:E:/NOVA/Assets/IFX_P2G-HW-SW_V1.0.4/Firmware_Software/DAVE project/P2G_FW/Dave/Generated/E_EEPROM_XMC4\e_eeprom_xmc4.c ****       {
 369              	 .loc 1 516 0
 370 0120 D8F80C30 	 ldr r3,[r8,#12]
 371 0124 394C     	 ldr r4,.L63+16
 372 0126 1B07     	 lsls r3,r3,#28
 373 0128 2BD4     	 bmi .L62
 374              	.L17:
 375              	.LVL35:
 376              	.LBE73:
 377              	.LBE76:
 221:E:/NOVA/Assets/IFX_P2G-HW-SW_V1.0.4/Firmware_Software/DAVE project/P2G_FW/Dave/Generated/E_EEPROM_XMC4\e_eeprom_xmc4.c ****         {
 378              	 .loc 1 221 0
 379 012a D8F80400 	 ldr r0,[r8,#4]
 380 012e 374B     	 ldr r3,.L63+16
 381 0130 78B9     	 cbnz r0,.L18
 224:E:/NOVA/Assets/IFX_P2G-HW-SW_V1.0.4/Firmware_Software/DAVE project/P2G_FW/Dave/Generated/E_EEPROM_XMC4\e_eeprom_xmc4.c ****         }
 382              	 .loc 1 224 0
 383 0132 344A     	 ldr r2,.L63+8
 223:E:/NOVA/Assets/IFX_P2G-HW-SW_V1.0.4/Firmware_Software/DAVE project/P2G_FW/Dave/Generated/E_EEPROM_XMC4\e_eeprom_xmc4.c ****           e_eeprom_xmc4_sector_info.next_free_start_addr =  E_EEPROM_XMC4_SECTOR0_START_ADDR;
 384              	 .loc 1 223 0
 385 0134 9860     	 str r0,[r3,#8]
 224:E:/NOVA/Assets/IFX_P2G-HW-SW_V1.0.4/Firmware_Software/DAVE project/P2G_FW/Dave/Generated/E_EEPROM_XMC4\e_eeprom_xmc4.c ****         }
 386              	 .loc 1 224 0
 387 0136 1A60     	 str r2,[r3]
 388              	.LVL36:
 389              	.L12:
 390              	.LBB77:
 391              	.LBB78:
 399:E:/NOVA/Assets/IFX_P2G-HW-SW_V1.0.4/Firmware_Software/DAVE project/P2G_FMCW/Libraries/XMCLib/inc\xmc4_flash.h **** }
 392              	 .loc 2 399 0
 393 0138 3149     	 ldr r1,.L63+4
 394 013a 41F21802 	 movw r2,#4120
 395              	.LBE78:
 396              	.LBE77:
 248:E:/NOVA/Assets/IFX_P2G-HW-SW_V1.0.4/Firmware_Software/DAVE project/P2G_FW/Dave/Generated/E_EEPROM_XMC4\e_eeprom_xmc4.c ****   }
 397              	 .loc 1 248 0
 398 013e 0124     	 movs r4,#1
 399              	.LBB80:
 400              	.LBB79:
 399:E:/NOVA/Assets/IFX_P2G-HW-SW_V1.0.4/Firmware_Software/DAVE project/P2G_FMCW/Libraries/XMCLib/inc\xmc4_flash.h **** }
 401              	 .loc 2 399 0
 402 0140 8B58     	 ldr r3,[r1,r2]
 403 0142 23F40043 	 bic r3,r3,#32768
 404 0146 8B50     	 str r3,[r1,r2]
 405              	.LBE79:
 406              	.LBE80:
 248:E:/NOVA/Assets/IFX_P2G-HW-SW_V1.0.4/Firmware_Software/DAVE project/P2G_FW/Dave/Generated/E_EEPROM_XMC4\e_eeprom_xmc4.c ****   }
 407              	 .loc 1 248 0
 408 0148 019B     	 ldr r3,[sp,#4]
 409 014a 1C70     	 strb r4,[r3]
 252:E:/NOVA/Assets/IFX_P2G-HW-SW_V1.0.4/Firmware_Software/DAVE project/P2G_FW/Dave/Generated/E_EEPROM_XMC4\e_eeprom_xmc4.c **** 
 410              	 .loc 1 252 0
 411 014c 05B0     	 add sp,sp,#20
 412              	.LCFI6:
 413              	 .cfi_remember_state
 414              	 .cfi_def_cfa_offset 36
 415              	.LVL37:
 416              	 
 417 014e BDE8F08F 	 pop {r4,r5,r6,r7,r8,r9,r10,fp,pc}
 418              	.LVL38:
 419              	.L18:
 420              	.LCFI7:
 421              	 .cfi_restore_state
 422 0152 2F4A     	 ldr r2,.L63+20
 423 0154 031F     	 subs r3,r0,#4
 424 0156 00F6FC74 	 addw r4,r0,#4092
 425              	.LVL39:
 426              	.L19:
 427              	.LBB81:
 428              	.LBB82:
 549:E:/NOVA/Assets/IFX_P2G-HW-SW_V1.0.4/Firmware_Software/DAVE project/P2G_FW/Dave/Generated/E_EEPROM_XMC4\e_eeprom_xmc4.c **** }
 550:E:/NOVA/Assets/IFX_P2G-HW-SW_V1.0.4/Firmware_Software/DAVE project/P2G_FW/Dave/Generated/E_EEPROM_XMC4\e_eeprom_xmc4.c **** 
 551:E:/NOVA/Assets/IFX_P2G-HW-SW_V1.0.4/Firmware_Software/DAVE project/P2G_FW/Dave/Generated/E_EEPROM_XMC4\e_eeprom_xmc4.c **** 
 552:E:/NOVA/Assets/IFX_P2G-HW-SW_V1.0.4/Firmware_Software/DAVE project/P2G_FW/Dave/Generated/E_EEPROM_XMC4\e_eeprom_xmc4.c **** 
 553:E:/NOVA/Assets/IFX_P2G-HW-SW_V1.0.4/Firmware_Software/DAVE project/P2G_FW/Dave/Generated/E_EEPROM_XMC4\e_eeprom_xmc4.c **** /* Local function to copy data blocks from FLASH to RAM */
 554:E:/NOVA/Assets/IFX_P2G-HW-SW_V1.0.4/Firmware_Software/DAVE project/P2G_FW/Dave/Generated/E_EEPROM_XMC4\e_eeprom_xmc4.c **** static void E_EEPROM_XMC4_lCopyFlashToRam(void)
 555:E:/NOVA/Assets/IFX_P2G-HW-SW_V1.0.4/Firmware_Software/DAVE project/P2G_FW/Dave/Generated/E_EEPROM_XMC4\e_eeprom_xmc4.c **** {
 556:E:/NOVA/Assets/IFX_P2G-HW-SW_V1.0.4/Firmware_Software/DAVE project/P2G_FW/Dave/Generated/E_EEPROM_XMC4\e_eeprom_xmc4.c ****   uint32_t *flash_addr_ptr;
 557:E:/NOVA/Assets/IFX_P2G-HW-SW_V1.0.4/Firmware_Software/DAVE project/P2G_FW/Dave/Generated/E_EEPROM_XMC4\e_eeprom_xmc4.c ****   uint32_t *ram_addr_ptr;
 558:E:/NOVA/Assets/IFX_P2G-HW-SW_V1.0.4/Firmware_Software/DAVE project/P2G_FW/Dave/Generated/E_EEPROM_XMC4\e_eeprom_xmc4.c ****   uint32_t byte_index;
 559:E:/NOVA/Assets/IFX_P2G-HW-SW_V1.0.4/Firmware_Software/DAVE project/P2G_FW/Dave/Generated/E_EEPROM_XMC4\e_eeprom_xmc4.c **** 
 560:E:/NOVA/Assets/IFX_P2G-HW-SW_V1.0.4/Firmware_Software/DAVE project/P2G_FW/Dave/Generated/E_EEPROM_XMC4\e_eeprom_xmc4.c ****   flash_addr_ptr = (uint32_t*)e_eeprom_xmc4_sector_info.flash_data_addr;
 561:E:/NOVA/Assets/IFX_P2G-HW-SW_V1.0.4/Firmware_Software/DAVE project/P2G_FW/Dave/Generated/E_EEPROM_XMC4\e_eeprom_xmc4.c ****   ram_addr_ptr = (uint32_t*)(void*)&e_eeprom_xmc4_data_buffer;
 562:E:/NOVA/Assets/IFX_P2G-HW-SW_V1.0.4/Firmware_Software/DAVE project/P2G_FW/Dave/Generated/E_EEPROM_XMC4\e_eeprom_xmc4.c **** 
 563:E:/NOVA/Assets/IFX_P2G-HW-SW_V1.0.4/Firmware_Software/DAVE project/P2G_FW/Dave/Generated/E_EEPROM_XMC4\e_eeprom_xmc4.c ****   for(byte_index = 0U ; byte_index < E_EEPROM_XMC4_MAX_WORDS; byte_index++)
 564:E:/NOVA/Assets/IFX_P2G-HW-SW_V1.0.4/Firmware_Software/DAVE project/P2G_FW/Dave/Generated/E_EEPROM_XMC4\e_eeprom_xmc4.c ****   {
 565:E:/NOVA/Assets/IFX_P2G-HW-SW_V1.0.4/Firmware_Software/DAVE project/P2G_FW/Dave/Generated/E_EEPROM_XMC4\e_eeprom_xmc4.c ****     *(ram_addr_ptr + byte_index) = *(flash_addr_ptr + byte_index);
 429              	 .loc 1 565 0
 430 015a 53F8041F 	 ldr r1,[r3,#4]!
 431 015e 42F8041F 	 str r1,[r2,#4]!
 563:E:/NOVA/Assets/IFX_P2G-HW-SW_V1.0.4/Firmware_Software/DAVE project/P2G_FW/Dave/Generated/E_EEPROM_XMC4\e_eeprom_xmc4.c ****   {
 432              	 .loc 1 563 0
 433 0162 A342     	 cmp r3,r4
 434 0164 F9D1     	 bne .L19
 435              	.LBE82:
 436              	.LBE81:
 231:E:/NOVA/Assets/IFX_P2G-HW-SW_V1.0.4/Firmware_Software/DAVE project/P2G_FW/Dave/Generated/E_EEPROM_XMC4\e_eeprom_xmc4.c ****               E_EEPROM_XMC4_ACTUAL_FLASH_BLOCK_SIZE)
 437              	 .loc 1 231 0
 438 0166 D8F80030 	 ldr r3,[r8]
 237:E:/NOVA/Assets/IFX_P2G-HW-SW_V1.0.4/Firmware_Software/DAVE project/P2G_FW/Dave/Generated/E_EEPROM_XMC4\e_eeprom_xmc4.c ****           {
 439              	 .loc 1 237 0
 440 016a 2A4A     	 ldr r2,.L63+24
 231:E:/NOVA/Assets/IFX_P2G-HW-SW_V1.0.4/Firmware_Software/DAVE project/P2G_FW/Dave/Generated/E_EEPROM_XMC4\e_eeprom_xmc4.c ****               E_EEPROM_XMC4_ACTUAL_FLASH_BLOCK_SIZE)
 441              	 .loc 1 231 0
 442 016c 2749     	 ldr r1,.L63+16
 443 016e 181A     	 subs r0,r3,r0
 444              	.LVL40:
 234:E:/NOVA/Assets/IFX_P2G-HW-SW_V1.0.4/Firmware_Software/DAVE project/P2G_FW/Dave/Generated/E_EEPROM_XMC4\e_eeprom_xmc4.c ****           }
 445              	 .loc 1 234 0
 446 0170 B0F58050 	 subs r0,r0,#4096
 447 0174 18BF     	 it ne
 448 0176 0120     	 movne r0,#1
 449              	.LVL41:
 237:E:/NOVA/Assets/IFX_P2G-HW-SW_V1.0.4/Firmware_Software/DAVE project/P2G_FW/Dave/Generated/E_EEPROM_XMC4\e_eeprom_xmc4.c ****           {
 450              	 .loc 1 237 0
 451 0178 9342     	 cmp r3,r2
 452 017a DDD9     	 bls .L12
 239:E:/NOVA/Assets/IFX_P2G-HW-SW_V1.0.4/Firmware_Software/DAVE project/P2G_FW/Dave/Generated/E_EEPROM_XMC4\e_eeprom_xmc4.c ****           }
 453              	 .loc 1 239 0
 454 017c 214B     	 ldr r3,.L63+8
 455 017e 0B60     	 str r3,[r1]
 456 0180 DAE7     	 b .L12
 457              	.LVL42:
 458              	.L62:
 459              	.LBB83:
 460              	.LBB74:
 520:E:/NOVA/Assets/IFX_P2G-HW-SW_V1.0.4/Firmware_Software/DAVE project/P2G_FW/Dave/Generated/E_EEPROM_XMC4\e_eeprom_xmc4.c ****         XMC_FLASH_EraseSector((uint32_t*)sector_start_addr);
 461              	 .loc 1 520 0
 462 0182 FFF7FEFF 	 bl XMC_FLASH_ClearStatus
 463              	.LVL43:
 521:E:/NOVA/Assets/IFX_P2G-HW-SW_V1.0.4/Firmware_Software/DAVE project/P2G_FW/Dave/Generated/E_EEPROM_XMC4\e_eeprom_xmc4.c **** 
 464              	 .loc 1 521 0
 465 0186 2448     	 ldr r0,.L63+28
 466 0188 FFF7FEFF 	 bl XMC_FLASH_EraseSector
 467              	.LVL44:
 523:E:/NOVA/Assets/IFX_P2G-HW-SW_V1.0.4/Firmware_Software/DAVE project/P2G_FW/Dave/Generated/E_EEPROM_XMC4\e_eeprom_xmc4.c ****         {
 468              	 .loc 1 523 0
 469 018c FFF7FEFF 	 bl XMC_FLASH_GetStatus
 470              	.LVL45:
 471 0190 2028     	 cmp r0,#32
 472 0192 2ED1     	 bne .L24
 528:E:/NOVA/Assets/IFX_P2G-HW-SW_V1.0.4/Firmware_Software/DAVE project/P2G_FW/Dave/Generated/E_EEPROM_XMC4\e_eeprom_xmc4.c ****       }
 473              	 .loc 1 528 0
 474 0194 E368     	 ldr r3,[r4,#12]
 475 0196 23F00803 	 bic r3,r3,#8
 476 019a E360     	 str r3,[r4,#12]
 477 019c C5E7     	 b .L17
 478              	.LVL46:
 479              	.L60:
 520:E:/NOVA/Assets/IFX_P2G-HW-SW_V1.0.4/Firmware_Software/DAVE project/P2G_FW/Dave/Generated/E_EEPROM_XMC4\e_eeprom_xmc4.c ****         XMC_FLASH_EraseSector((uint32_t*)sector_start_addr);
 480              	 .loc 1 520 0
 481 019e FFF7FEFF 	 bl XMC_FLASH_ClearStatus
 482              	.LVL47:
 521:E:/NOVA/Assets/IFX_P2G-HW-SW_V1.0.4/Firmware_Software/DAVE project/P2G_FW/Dave/Generated/E_EEPROM_XMC4\e_eeprom_xmc4.c **** 
 483              	 .loc 1 521 0
 484 01a2 1E48     	 ldr r0,.L63+32
 485 01a4 FFF7FEFF 	 bl XMC_FLASH_EraseSector
 486              	.LVL48:
 523:E:/NOVA/Assets/IFX_P2G-HW-SW_V1.0.4/Firmware_Software/DAVE project/P2G_FW/Dave/Generated/E_EEPROM_XMC4\e_eeprom_xmc4.c ****         {
 487              	 .loc 1 523 0
 488 01a8 FFF7FEFF 	 bl XMC_FLASH_GetStatus
 489              	.LVL49:
 490 01ac 2028     	 cmp r0,#32
 491 01ae 20D1     	 bne .L24
 528:E:/NOVA/Assets/IFX_P2G-HW-SW_V1.0.4/Firmware_Software/DAVE project/P2G_FW/Dave/Generated/E_EEPROM_XMC4\e_eeprom_xmc4.c ****       }
 492              	 .loc 1 528 0
 493 01b0 E368     	 ldr r3,[r4,#12]
 494 01b2 23F00203 	 bic r3,r3,#2
 495 01b6 E360     	 str r3,[r4,#12]
 496 01b8 A5E7     	 b .L14
 497              	.LVL50:
 498              	.L59:
 520:E:/NOVA/Assets/IFX_P2G-HW-SW_V1.0.4/Firmware_Software/DAVE project/P2G_FW/Dave/Generated/E_EEPROM_XMC4\e_eeprom_xmc4.c ****         XMC_FLASH_EraseSector((uint32_t*)sector_start_addr);
 499              	 .loc 1 520 0
 500 01ba FFF7FEFF 	 bl XMC_FLASH_ClearStatus
 501              	.LVL51:
 521:E:/NOVA/Assets/IFX_P2G-HW-SW_V1.0.4/Firmware_Software/DAVE project/P2G_FW/Dave/Generated/E_EEPROM_XMC4\e_eeprom_xmc4.c **** 
 502              	 .loc 1 521 0
 503 01be 1148     	 ldr r0,.L63+8
 504 01c0 FFF7FEFF 	 bl XMC_FLASH_EraseSector
 505              	.LVL52:
 523:E:/NOVA/Assets/IFX_P2G-HW-SW_V1.0.4/Firmware_Software/DAVE project/P2G_FW/Dave/Generated/E_EEPROM_XMC4\e_eeprom_xmc4.c ****         {
 506              	 .loc 1 523 0
 507 01c4 FFF7FEFF 	 bl XMC_FLASH_GetStatus
 508              	.LVL53:
 509 01c8 2028     	 cmp r0,#32
 510 01ca 14D1     	 bne .L21
 528:E:/NOVA/Assets/IFX_P2G-HW-SW_V1.0.4/Firmware_Software/DAVE project/P2G_FW/Dave/Generated/E_EEPROM_XMC4\e_eeprom_xmc4.c ****       }
 511              	 .loc 1 528 0
 512 01cc E368     	 ldr r3,[r4,#12]
 513 01ce 23F00103 	 bic r3,r3,#1
 514 01d2 E360     	 str r3,[r4,#12]
 515 01d4 8EE7     	 b .L11
 516              	.LVL54:
 517              	.L61:
 520:E:/NOVA/Assets/IFX_P2G-HW-SW_V1.0.4/Firmware_Software/DAVE project/P2G_FW/Dave/Generated/E_EEPROM_XMC4\e_eeprom_xmc4.c ****         XMC_FLASH_EraseSector((uint32_t*)sector_start_addr);
 518              	 .loc 1 520 0
 519 01d6 FFF7FEFF 	 bl XMC_FLASH_ClearStatus
 520              	.LVL55:
 521:E:/NOVA/Assets/IFX_P2G-HW-SW_V1.0.4/Firmware_Software/DAVE project/P2G_FW/Dave/Generated/E_EEPROM_XMC4\e_eeprom_xmc4.c **** 
 521              	 .loc 1 521 0
 522 01da 1148     	 ldr r0,.L63+36
 523 01dc FFF7FEFF 	 bl XMC_FLASH_EraseSector
 524              	.LVL56:
 523:E:/NOVA/Assets/IFX_P2G-HW-SW_V1.0.4/Firmware_Software/DAVE project/P2G_FW/Dave/Generated/E_EEPROM_XMC4\e_eeprom_xmc4.c ****         {
 525              	 .loc 1 523 0
 526 01e0 FFF7FEFF 	 bl XMC_FLASH_GetStatus
 527              	.LVL57:
 528 01e4 2028     	 cmp r0,#32
 529 01e6 04D1     	 bne .L24
 528:E:/NOVA/Assets/IFX_P2G-HW-SW_V1.0.4/Firmware_Software/DAVE project/P2G_FW/Dave/Generated/E_EEPROM_XMC4\e_eeprom_xmc4.c ****       }
 530              	 .loc 1 528 0
 531 01e8 E368     	 ldr r3,[r4,#12]
 532 01ea 23F00403 	 bic r3,r3,#4
 533 01ee E360     	 str r3,[r4,#12]
 534 01f0 92E7     	 b .L16
 535              	.LVL58:
 536              	.L24:
 525:E:/NOVA/Assets/IFX_P2G-HW-SW_V1.0.4/Firmware_Software/DAVE project/P2G_FW/Dave/Generated/E_EEPROM_XMC4\e_eeprom_xmc4.c ****           break;
 537              	 .loc 1 525 0
 538 01f2 0420     	 movs r0,#4
 539 01f4 A0E7     	 b .L12
 540              	.LVL59:
 541              	.L21:
 542 01f6 0098     	 ldr r0,[sp]
 543 01f8 9EE7     	 b .L12
 544              	.L64:
 545 01fa 00BF     	 .align 2
 546              	.L63:
 547 01fc 00000000 	 .word .LANCHOR0
 548 0200 00100058 	 .word 1476399104
 549 0204 0000010C 	 .word 201392128
 550 0208 00000000 	 .word .LANCHOR2
 551 020c 00000000 	 .word .LANCHOR1
 552 0210 FCFFFFFF 	 .word .LANCHOR0-4
 553 0214 FFFF010C 	 .word 201457663
 554 0218 00C0010C 	 .word 201441280
 555 021c 0040010C 	 .word 201408512
 556 0220 0080010C 	 .word 201424896
 557 0224 20000250 	 .word 1342308384
 558              	.LBE74:
 559              	.LBE83:
 560              	 .cfi_endproc
 561              	.LFE159:
 563              	 .section .text.E_EEPROM_XMC4_WriteByte,"ax",%progbits
 564              	 .align 2
 565              	 .global E_EEPROM_XMC4_WriteByte
 566              	 .thumb
 567              	 .thumb_func
 569              	E_EEPROM_XMC4_WriteByte:
 570              	.LFB160:
 258:E:/NOVA/Assets/IFX_P2G-HW-SW_V1.0.4/Firmware_Software/DAVE project/P2G_FW/Dave/Generated/E_EEPROM_XMC4\e_eeprom_xmc4.c ****   uint8_t *address_ptr;
 571              	 .loc 1 258 0
 572              	 .cfi_startproc
 573              	 
 574              	 
 575              	 
 576              	.LVL60:
 264:E:/NOVA/Assets/IFX_P2G-HW-SW_V1.0.4/Firmware_Software/DAVE project/P2G_FW/Dave/Generated/E_EEPROM_XMC4\e_eeprom_xmc4.c **** 
 577              	 .loc 1 264 0
 578 0000 034B     	 ldr r3,.L66
 579 0002 0344     	 add r3,r3,r0
 580 0004 187A     	 ldrb r0,[r3,#8]
 581              	.LVL61:
 266:E:/NOVA/Assets/IFX_P2G-HW-SW_V1.0.4/Firmware_Software/DAVE project/P2G_FW/Dave/Generated/E_EEPROM_XMC4\e_eeprom_xmc4.c **** 
 582              	 .loc 1 266 0
 583 0006 1972     	 strb r1,[r3,#8]
 269:E:/NOVA/Assets/IFX_P2G-HW-SW_V1.0.4/Firmware_Software/DAVE project/P2G_FW/Dave/Generated/E_EEPROM_XMC4\e_eeprom_xmc4.c **** 
 584              	 .loc 1 269 0
 585 0008 401A     	 subs r0,r0,r1
 586              	.LVL62:
 587 000a 18BF     	 it ne
 588 000c 0120     	 movne r0,#1
 589 000e 7047     	 bx lr
 590              	.L67:
 591              	 .align 2
 592              	.L66:
 593 0010 00000000 	 .word .LANCHOR0
 594              	 .cfi_endproc
 595              	.LFE160:
 597              	 .section .text.E_EEPROM_XMC4_WriteArray,"ax",%progbits
 598              	 .align 2
 599              	 .global E_EEPROM_XMC4_WriteArray
 600              	 .thumb
 601              	 .thumb_func
 603              	E_EEPROM_XMC4_WriteArray:
 604              	.LFB161:
 275:E:/NOVA/Assets/IFX_P2G-HW-SW_V1.0.4/Firmware_Software/DAVE project/P2G_FW/Dave/Generated/E_EEPROM_XMC4\e_eeprom_xmc4.c ****   uint16_t i;
 605              	 .loc 1 275 0
 606              	 .cfi_startproc
 607              	 
 608              	 
 609              	.LVL63:
 610 0000 2DE9F041 	 push {r4,r5,r6,r7,r8,lr}
 611              	.LCFI8:
 612              	 .cfi_def_cfa_offset 24
 613              	 .cfi_offset 4,-24
 614              	 .cfi_offset 5,-20
 615              	 .cfi_offset 6,-16
 616              	 .cfi_offset 7,-12
 617              	 .cfi_offset 8,-8
 618              	 .cfi_offset 14,-4
 284:E:/NOVA/Assets/IFX_P2G-HW-SW_V1.0.4/Firmware_Software/DAVE project/P2G_FW/Dave/Generated/E_EEPROM_XMC4\e_eeprom_xmc4.c ****   status = (memcmp(address_ptr, data, length) != 0);
 619              	 .loc 1 284 0
 620 0004 DFF8A880 	 ldr r8,.L91
 621 0008 00F10804 	 add r4,r0,#8
 622 000c 4444     	 add r4,r4,r8
 275:E:/NOVA/Assets/IFX_P2G-HW-SW_V1.0.4/Firmware_Software/DAVE project/P2G_FW/Dave/Generated/E_EEPROM_XMC4\e_eeprom_xmc4.c ****   uint16_t i;
 623              	 .loc 1 275 0
 624 000e 0746     	 mov r7,r0
 625              	.LVL64:
