   1              	 .syntax unified
   2              	 .cpu cortex-m4
   3              	 .eabi_attribute 27,3
   4              	 .fpu fpv4-sp-d16
   5              	 .eabi_attribute 20,1
   6              	 .eabi_attribute 21,1
   7              	 .eabi_attribute 23,3
   8              	 .eabi_attribute 24,1
   9              	 .eabi_attribute 25,1
  10              	 .eabi_attribute 26,1
  11              	 .eabi_attribute 30,2
  12              	 .eabi_attribute 34,1
  13              	 .eabi_attribute 18,4
  14              	 .thumb
  15              	 .file "EndpointRadarBase.c"
  16              	 .text
  17              	.Ltext0:
  18              	 .cfi_sections .debug_frame
  19              	 .section .text.ep_radar_base_handle_message,"ax",%progbits
  20              	 .align 2
  21              	 .global ep_radar_base_handle_message
  22              	 .thumb
  23              	 .thumb_func
  25              	ep_radar_base_handle_message:
  26              	.LFB496:
  27              	 .file 1 "../HostCommunication/src/EndpointRadarBase.c"
   1:../HostCommunication/src/EndpointRadarBase.c **** /**
   2:../HostCommunication/src/EndpointRadarBase.c ****  * \file EndpointRadarBase.c
   3:../HostCommunication/src/EndpointRadarBase.c ****  *
   4:../HostCommunication/src/EndpointRadarBase.c ****  * \brief ...
   5:../HostCommunication/src/EndpointRadarBase.c ****  *
   6:../HostCommunication/src/EndpointRadarBase.c ****  * ...
   7:../HostCommunication/src/EndpointRadarBase.c ****  *
   8:../HostCommunication/src/EndpointRadarBase.c ****  */
   9:../HostCommunication/src/EndpointRadarBase.c **** 
  10:../HostCommunication/src/EndpointRadarBase.c **** /* ===========================================================================
  11:../HostCommunication/src/EndpointRadarBase.c **** ** Copyright (C) 2016-2018 Infineon Technologies AG
  12:../HostCommunication/src/EndpointRadarBase.c **** ** All rights reserved.
  13:../HostCommunication/src/EndpointRadarBase.c **** ** ===========================================================================
  14:../HostCommunication/src/EndpointRadarBase.c **** **
  15:../HostCommunication/src/EndpointRadarBase.c **** ** ===========================================================================
  16:../HostCommunication/src/EndpointRadarBase.c **** ** This document contains proprietary information of Infineon Technologies AG.
  17:../HostCommunication/src/EndpointRadarBase.c **** ** Passing on and copying of this document, and communication of its contents
  18:../HostCommunication/src/EndpointRadarBase.c **** ** is not permitted without Infineon's prior written authorisation.
  19:../HostCommunication/src/EndpointRadarBase.c **** ** ===========================================================================
  20:../HostCommunication/src/EndpointRadarBase.c **** */
  21:../HostCommunication/src/EndpointRadarBase.c **** 
  22:../HostCommunication/src/EndpointRadarBase.c **** /*
  23:../HostCommunication/src/EndpointRadarBase.c **** ==============================================================================
  24:../HostCommunication/src/EndpointRadarBase.c ****    1. INCLUDE FILES
  25:../HostCommunication/src/EndpointRadarBase.c **** ==============================================================================
  26:../HostCommunication/src/EndpointRadarBase.c **** */
  27:../HostCommunication/src/EndpointRadarBase.c **** #include "EndpointRadarBase.h"
  28:../HostCommunication/src/EndpointRadarBase.c **** #include "EndpointRadarChangeCodes.h"
  29:../HostCommunication/src/EndpointRadarBase.c **** #include "PayloadHelper.h"
  30:../HostCommunication/src/EndpointRadarBase.c **** #include "EndpointRadarADCXMC.h"
  31:../HostCommunication/src/EndpointRadarBase.c **** 
  32:../HostCommunication/src/EndpointRadarBase.c **** /*
  33:../HostCommunication/src/EndpointRadarBase.c **** ==============================================================================
  34:../HostCommunication/src/EndpointRadarBase.c ****    2. LOCAL DEFINITIONS
  35:../HostCommunication/src/EndpointRadarBase.c **** ==============================================================================
  36:../HostCommunication/src/EndpointRadarBase.c **** */
  37:../HostCommunication/src/EndpointRadarBase.c **** 
  38:../HostCommunication/src/EndpointRadarBase.c **** /**
  39:../HostCommunication/src/EndpointRadarBase.c ****  * \defgroup MessageTypes
  40:../HostCommunication/src/EndpointRadarBase.c ****  *
  41:../HostCommunication/src/EndpointRadarBase.c ****  * \brief This end point knows these message types.
  42:../HostCommunication/src/EndpointRadarBase.c ****  *
  43:../HostCommunication/src/EndpointRadarBase.c ****  * The first payload byte of every message is one of these codes.
  44:../HostCommunication/src/EndpointRadarBase.c ****  *
  45:../HostCommunication/src/EndpointRadarBase.c ****  * @{
  46:../HostCommunication/src/EndpointRadarBase.c ****  */
  47:../HostCommunication/src/EndpointRadarBase.c **** #define MSG_FRAME_DATA            0x00 /**< A message containing radar frame
  48:../HostCommunication/src/EndpointRadarBase.c ****                                             data. */
  49:../HostCommunication/src/EndpointRadarBase.c **** #define MSG_GET_FRAME_DATA        0x01 /**< A message to retrieve frame data.
  50:../HostCommunication/src/EndpointRadarBase.c ****                                             */
  51:../HostCommunication/src/EndpointRadarBase.c **** #define MSG_SET_AUTOMATIC_TRIGGER 0x02 /**< A message to configure the
  52:../HostCommunication/src/EndpointRadarBase.c ****                                             automatic frame trigger. */
  53:../HostCommunication/src/EndpointRadarBase.c **** #define MSG_ENABLE_TEST_MODE      0x03 /**< A message to configure antenna
  54:../HostCommunication/src/EndpointRadarBase.c ****                                             test mode. */
  55:../HostCommunication/src/EndpointRadarBase.c **** #define MSG_GET_DRIVER_VERSION    0x20 /**< A message to query device
  56:../HostCommunication/src/EndpointRadarBase.c ****                                             information. */
  57:../HostCommunication/src/EndpointRadarBase.c **** #define MSG_SET_DRIVER_VERSION    0x21 /**< A message containing device
  58:../HostCommunication/src/EndpointRadarBase.c ****                                             information. */
  59:../HostCommunication/src/EndpointRadarBase.c **** #define MSG_GET_DEVICE_INFO       0x22 /**< A message to query device
  60:../HostCommunication/src/EndpointRadarBase.c ****                                             information. */
  61:../HostCommunication/src/EndpointRadarBase.c **** #define MSG_SET_DEVICE_INFO       0x23 /**< A message containing device
  62:../HostCommunication/src/EndpointRadarBase.c ****                                             information. */
  63:../HostCommunication/src/EndpointRadarBase.c **** #define MSG_GET_TEMPRATURE        0x30 /**< A message to query a measured
  64:../HostCommunication/src/EndpointRadarBase.c ****                                             temperature value. */
  65:../HostCommunication/src/EndpointRadarBase.c **** #define MSG_SET_TEMPRATURE        0x31 /**< A message containing a measured
  66:../HostCommunication/src/EndpointRadarBase.c ****                                             temperature value. */
  67:../HostCommunication/src/EndpointRadarBase.c **** #define MSG_GET_TX_POWER          0x32 /**< A message to query a measured
  68:../HostCommunication/src/EndpointRadarBase.c ****                                             TX power value. */
  69:../HostCommunication/src/EndpointRadarBase.c **** #define MSG_SET_TX_POWER          0x33 /**< A message containing a measured
  70:../HostCommunication/src/EndpointRadarBase.c ****                                             TX power value. */
  71:../HostCommunication/src/EndpointRadarBase.c **** #define MSG_GET_CHRIP_DURATION    0x34 /**< A message to query the current
  72:../HostCommunication/src/EndpointRadarBase.c ****                                             chirp duration. */
  73:../HostCommunication/src/EndpointRadarBase.c **** #define MSG_SET_CHRIP_DURATION    0x35 /**< A message containing the current
  74:../HostCommunication/src/EndpointRadarBase.c ****                                             chirp duration. */
  75:../HostCommunication/src/EndpointRadarBase.c **** #define MSG_GET_MIN_INTERVAL      0x36 /**< A message to query the minimum
  76:../HostCommunication/src/EndpointRadarBase.c ****                                             frame interval. */
  77:../HostCommunication/src/EndpointRadarBase.c **** #define MSG_SET_MIN_INTERVAL      0x37 /**< A message containing the minimum
  78:../HostCommunication/src/EndpointRadarBase.c ****                                             frame interval. */
  79:../HostCommunication/src/EndpointRadarBase.c **** #define MSG_GET_FRAME_FORMAT      0x40 /**< A message to query the frame
  80:../HostCommunication/src/EndpointRadarBase.c ****                                             format. */
  81:../HostCommunication/src/EndpointRadarBase.c **** #define MSG_SET_FRAME_FORMAT      0x41 /**< A message containing frame format
  82:../HostCommunication/src/EndpointRadarBase.c ****                                             parameters. */
  83:../HostCommunication/src/EndpointRadarBase.c **** 
  84:../HostCommunication/src/EndpointRadarBase.c **** #define MSG_GET_FFT_INFO		  0x42 /**< A message containing the FFT configuration
  85:../HostCommunication/src/EndpointRadarBase.c **** 											parameters. */
  86:../HostCommunication/src/EndpointRadarBase.c **** #define MSG_SET_FFT_INFO		  0x43 /**< A message containing the FFT configuration
  87:../HostCommunication/src/EndpointRadarBase.c **** 											parameters. */
  88:../HostCommunication/src/EndpointRadarBase.c **** /** @} */
  89:../HostCommunication/src/EndpointRadarBase.c **** 
  90:../HostCommunication/src/EndpointRadarBase.c **** /*
  91:../HostCommunication/src/EndpointRadarBase.c **** ==============================================================================
  92:../HostCommunication/src/EndpointRadarBase.c ****    3. LOCAL FUNCTION PROTOTYPES
  93:../HostCommunication/src/EndpointRadarBase.c **** ==============================================================================
  94:../HostCommunication/src/EndpointRadarBase.c **** */
  95:../HostCommunication/src/EndpointRadarBase.c **** 
  96:../HostCommunication/src/EndpointRadarBase.c **** static void send_driver_version(uint8_t endpoint);
  97:../HostCommunication/src/EndpointRadarBase.c **** 
  98:../HostCommunication/src/EndpointRadarBase.c **** static uint16_t send_frame_data(uint8_t endpoint, Radar_Handle_t radar_driver,
  99:../HostCommunication/src/EndpointRadarBase.c ****                                 uint8_t wait);
 100:../HostCommunication/src/EndpointRadarBase.c **** 
 101:../HostCommunication/src/EndpointRadarBase.c **** static uint16_t send_device_info(uint8_t endpoint,
 102:../HostCommunication/src/EndpointRadarBase.c ****                                  Radar_Handle_t radar_driver);
 103:../HostCommunication/src/EndpointRadarBase.c **** 
 104:../HostCommunication/src/EndpointRadarBase.c **** static uint16_t send_temperature(uint8_t endpoint,
 105:../HostCommunication/src/EndpointRadarBase.c ****                                  Radar_Handle_t radar_driver,
 106:../HostCommunication/src/EndpointRadarBase.c ****                                  uint8_t temp_sensor);
 107:../HostCommunication/src/EndpointRadarBase.c **** 
 108:../HostCommunication/src/EndpointRadarBase.c **** static uint16_t send_tx_power(uint8_t endpoint, Radar_Handle_t radar_driver,
 109:../HostCommunication/src/EndpointRadarBase.c ****                               uint8_t tx_antenna);
 110:../HostCommunication/src/EndpointRadarBase.c **** 
 111:../HostCommunication/src/EndpointRadarBase.c **** static uint16_t send_chirp_duration(uint8_t endpoint,
 112:../HostCommunication/src/EndpointRadarBase.c ****                                     Radar_Handle_t radar_driver);
 113:../HostCommunication/src/EndpointRadarBase.c **** 
 114:../HostCommunication/src/EndpointRadarBase.c **** static uint16_t send_min_frame_interval(uint8_t endpoint,
 115:../HostCommunication/src/EndpointRadarBase.c ****                                         Radar_Handle_t radar_driver);
 116:../HostCommunication/src/EndpointRadarBase.c **** 
 117:../HostCommunication/src/EndpointRadarBase.c **** static uint16_t send_frame_format(uint8_t endpoint,
 118:../HostCommunication/src/EndpointRadarBase.c ****                                  Radar_Handle_t radar_driver);
 119:../HostCommunication/src/EndpointRadarBase.c **** 
 120:../HostCommunication/src/EndpointRadarBase.c **** static uint16_t send_fft_config(uint8_t endpoint,
 121:../HostCommunication/src/EndpointRadarBase.c ****                                  Radar_Handle_t radar_driver);
 122:../HostCommunication/src/EndpointRadarBase.c **** 
 123:../HostCommunication/src/EndpointRadarBase.c **** /*
 124:../HostCommunication/src/EndpointRadarBase.c **** ==============================================================================
 125:../HostCommunication/src/EndpointRadarBase.c ****   4. LOCAL FUNCTIONS
 126:../HostCommunication/src/EndpointRadarBase.c **** ==============================================================================
 127:../HostCommunication/src/EndpointRadarBase.c **** */
 128:../HostCommunication/src/EndpointRadarBase.c **** 
 129:../HostCommunication/src/EndpointRadarBase.c **** static void send_driver_version(uint8_t endpoint)
 130:../HostCommunication/src/EndpointRadarBase.c **** {
 131:../HostCommunication/src/EndpointRadarBase.c ****     const Driver_Version_t* driver_version = radar_get_driver_version();
 132:../HostCommunication/src/EndpointRadarBase.c **** 
 133:../HostCommunication/src/EndpointRadarBase.c ****     uint8_t message[4];
 134:../HostCommunication/src/EndpointRadarBase.c **** 
 135:../HostCommunication/src/EndpointRadarBase.c ****     /* compile message */
 136:../HostCommunication/src/EndpointRadarBase.c ****     wr_payload_u8(message, 0, MSG_SET_DRIVER_VERSION);
 137:../HostCommunication/src/EndpointRadarBase.c ****     wr_payload_u8(message, 1, driver_version->major);
 138:../HostCommunication/src/EndpointRadarBase.c ****     wr_payload_u8(message, 2, driver_version->minor);
 139:../HostCommunication/src/EndpointRadarBase.c ****     wr_payload_u8(message, 3, driver_version->revision);
 140:../HostCommunication/src/EndpointRadarBase.c **** 
 141:../HostCommunication/src/EndpointRadarBase.c ****     /* send message */
 142:../HostCommunication/src/EndpointRadarBase.c ****     protocol_send_header(endpoint, sizeof(message));
 143:../HostCommunication/src/EndpointRadarBase.c ****     protocol_send_payload(message, sizeof(message));
 144:../HostCommunication/src/EndpointRadarBase.c ****     protocol_send_tail();
 145:../HostCommunication/src/EndpointRadarBase.c **** }
 146:../HostCommunication/src/EndpointRadarBase.c **** 
 147:../HostCommunication/src/EndpointRadarBase.c **** 
 148:../HostCommunication/src/EndpointRadarBase.c **** 
 149:../HostCommunication/src/EndpointRadarBase.c **** static size_t packing_helper_12Bit( uint8_t *p_dest, uint16_t *p_src, size_t numSamples)
 150:../HostCommunication/src/EndpointRadarBase.c **** {
 151:../HostCommunication/src/EndpointRadarBase.c **** 	/* numBytes needs to be devided by 2 */
 152:../HostCommunication/src/EndpointRadarBase.c **** 	if( (numSamples & 1) != 0)
 153:../HostCommunication/src/EndpointRadarBase.c **** 		return -1;
 154:../HostCommunication/src/EndpointRadarBase.c **** 
 155:../HostCommunication/src/EndpointRadarBase.c **** 	size_t   processed_output_bytes = 0;
 156:../HostCommunication/src/EndpointRadarBase.c **** 
 157:../HostCommunication/src/EndpointRadarBase.c **** 	while (numSamples >= 2)
 158:../HostCommunication/src/EndpointRadarBase.c **** 	{
 159:../HostCommunication/src/EndpointRadarBase.c **** 		/* pack two samples into one 32 bit word */
 160:../HostCommunication/src/EndpointRadarBase.c **** 		uint32_t packed_word;
 161:../HostCommunication/src/EndpointRadarBase.c **** 		packed_word  = *p_src++;
 162:../HostCommunication/src/EndpointRadarBase.c **** 		packed_word |= *p_src++ << 12;
 163:../HostCommunication/src/EndpointRadarBase.c **** 
 164:../HostCommunication/src/EndpointRadarBase.c **** 		/* write packed word into buffer */
 165:../HostCommunication/src/EndpointRadarBase.c **** 		wr_payload_u32(p_dest, 0, packed_word);
 166:../HostCommunication/src/EndpointRadarBase.c **** 		p_dest += 3;
 167:../HostCommunication/src/EndpointRadarBase.c **** 
 168:../HostCommunication/src/EndpointRadarBase.c **** 		numSamples -= 2;
 169:../HostCommunication/src/EndpointRadarBase.c **** 		processed_output_bytes += 3;
 170:../HostCommunication/src/EndpointRadarBase.c **** 	}
 171:../HostCommunication/src/EndpointRadarBase.c **** 
 172:../HostCommunication/src/EndpointRadarBase.c **** 	return processed_output_bytes;
 173:../HostCommunication/src/EndpointRadarBase.c **** }
 174:../HostCommunication/src/EndpointRadarBase.c **** 
 175:../HostCommunication/src/EndpointRadarBase.c **** 
 176:../HostCommunication/src/EndpointRadarBase.c **** 
 177:../HostCommunication/src/EndpointRadarBase.c **** static uint16_t send_frame_data(uint8_t endpoint, Radar_Handle_t radar_driver,
 178:../HostCommunication/src/EndpointRadarBase.c ****                                 uint8_t wait)
 179:../HostCommunication/src/EndpointRadarBase.c **** {
 180:../HostCommunication/src/EndpointRadarBase.c ****     uint16_t error_code;
 181:../HostCommunication/src/EndpointRadarBase.c **** 
 182:../HostCommunication/src/EndpointRadarBase.c ****     Frame_Info_t frame_info;
 183:../HostCommunication/src/EndpointRadarBase.c **** 
 184:../HostCommunication/src/EndpointRadarBase.c ****     /* get frame data */
 185:../HostCommunication/src/EndpointRadarBase.c ****     error_code = radar_get_frame(radar_driver, &frame_info, wait);
 186:../HostCommunication/src/EndpointRadarBase.c **** 
 187:../HostCommunication/src/EndpointRadarBase.c ****     if (error_code == RADAR_ERR_OK)
 188:../HostCommunication/src/EndpointRadarBase.c ****     {
 189:../HostCommunication/src/EndpointRadarBase.c **** 
 190:../HostCommunication/src/EndpointRadarBase.c ****     	/* Global buffer to have a copy of fresh ADC data to avoid frame corruption at Host */
 191:../HostCommunication/src/EndpointRadarBase.c ****     	static uint32_t transport_buffer[BSP_MAX_ADC_BUFFER_SIZE_BYTES/sizeof(uint32_t)];
 192:../HostCommunication/src/EndpointRadarBase.c **** 
 193:../HostCommunication/src/EndpointRadarBase.c ****         /* send message containing frame data */
 194:../HostCommunication/src/EndpointRadarBase.c ****         uint32_t num_samples;
 195:../HostCommunication/src/EndpointRadarBase.c ****         uint32_t data_size;
 196:../HostCommunication/src/EndpointRadarBase.c ****         uint8_t message_header[18];
 197:../HostCommunication/src/EndpointRadarBase.c ****         uint32_t sample_start = 0;
 198:../HostCommunication/src/EndpointRadarBase.c **** 
 199:../HostCommunication/src/EndpointRadarBase.c ****         uint32_t num_used_ant = 2;
 200:../HostCommunication/src/EndpointRadarBase.c **** 
 201:../HostCommunication/src/EndpointRadarBase.c ****         if (frame_info.adc_resolution == 12)
 202:../HostCommunication/src/EndpointRadarBase.c ****         {
 203:../HostCommunication/src/EndpointRadarBase.c ****         	/* Selection of Antenna to output is currently only supported for 12 Bit ADC resolution! *
 204:../HostCommunication/src/EndpointRadarBase.c ****         	if( frame_info.rx_mask == 1 )
 205:../HostCommunication/src/EndpointRadarBase.c **** 			{
 206:../HostCommunication/src/EndpointRadarBase.c **** 				sample_start = 0;
 207:../HostCommunication/src/EndpointRadarBase.c **** 				num_used_ant = 1;
 208:../HostCommunication/src/EndpointRadarBase.c **** 
 209:../HostCommunication/src/EndpointRadarBase.c **** 			}
 210:../HostCommunication/src/EndpointRadarBase.c **** 			else if( frame_info.rx_mask == 2 )
 211:../HostCommunication/src/EndpointRadarBase.c **** 			{
 212:../HostCommunication/src/EndpointRadarBase.c **** 				num_used_ant = 1;
 213:../HostCommunication/src/EndpointRadarBase.c **** 				sample_start = frame_info.num_chirps *
 214:../HostCommunication/src/EndpointRadarBase.c **** 						frame_info.num_samples_per_chirp *
 215:../HostCommunication/src/EndpointRadarBase.c **** 						num_used_ant *
 216:../HostCommunication/src/EndpointRadarBase.c **** 						(frame_info.data_format == RADAR_RX_DATA_REAL ? 1 : 2);
 217:../HostCommunication/src/EndpointRadarBase.c **** 			}
 218:../HostCommunication/src/EndpointRadarBase.c ****         }
 219:../HostCommunication/src/EndpointRadarBase.c ****         /* setup message header */
 220:../HostCommunication/src/EndpointRadarBase.c ****         wr_payload_u8 (message_header,  0, MSG_FRAME_DATA);
 221:../HostCommunication/src/EndpointRadarBase.c ****         wr_payload_u32(message_header,  1, frame_info.frame_number);
 222:../HostCommunication/src/EndpointRadarBase.c ****         wr_payload_u32(message_header,  5, frame_info.num_chirps);
 223:../HostCommunication/src/EndpointRadarBase.c ****         wr_payload_u8 (message_header,  9, num_used_ant);
 224:../HostCommunication/src/EndpointRadarBase.c ****         wr_payload_u32(message_header, 10, frame_info.num_samples_per_chirp);
 225:../HostCommunication/src/EndpointRadarBase.c ****         wr_payload_u8 (message_header, 14, frame_info.rx_mask);
 226:../HostCommunication/src/EndpointRadarBase.c ****         wr_payload_u8 (message_header, 15, frame_info.data_format);
 227:../HostCommunication/src/EndpointRadarBase.c ****         wr_payload_u8 (message_header, 16, frame_info.adc_resolution);
 228:../HostCommunication/src/EndpointRadarBase.c ****         wr_payload_u8 (message_header, 17, frame_info.interleaved_rx);
 229:../HostCommunication/src/EndpointRadarBase.c **** 
 230:../HostCommunication/src/EndpointRadarBase.c ****         /* calculate size of data */
 231:../HostCommunication/src/EndpointRadarBase.c ****         /* calculate total number of bits and divide by 8 to get number of
 232:../HostCommunication/src/EndpointRadarBase.c ****            bytes. Always round upwards */
 233:../HostCommunication/src/EndpointRadarBase.c ****         num_samples = frame_info.num_chirps *
 234:../HostCommunication/src/EndpointRadarBase.c ****                       frame_info.num_samples_per_chirp *
 235:../HostCommunication/src/EndpointRadarBase.c ****                       num_used_ant *
 236:../HostCommunication/src/EndpointRadarBase.c ****                       (frame_info.data_format == RADAR_RX_DATA_REAL ? 1 : 2);
 237:../HostCommunication/src/EndpointRadarBase.c **** 
 238:../HostCommunication/src/EndpointRadarBase.c ****         data_size = num_samples * frame_info.adc_resolution;
 239:../HostCommunication/src/EndpointRadarBase.c ****         data_size = (data_size >> 3) + ((data_size & 0x07) ? 1 : 0);
 240:../HostCommunication/src/EndpointRadarBase.c **** 
 241:../HostCommunication/src/EndpointRadarBase.c ****         /* send message header */
 242:../HostCommunication/src/EndpointRadarBase.c ****         protocol_send_header(endpoint, data_size + sizeof(message_header));
 243:../HostCommunication/src/EndpointRadarBase.c ****         protocol_send_payload(message_header, sizeof(message_header));
 244:../HostCommunication/src/EndpointRadarBase.c **** 
 245:../HostCommunication/src/EndpointRadarBase.c ****         if (frame_info.adc_resolution == 12)
 246:../HostCommunication/src/EndpointRadarBase.c ****         {
 247:../HostCommunication/src/EndpointRadarBase.c **** 			uint8_t *destPtr = (uint8_t *)&transport_buffer[0];
 248:../HostCommunication/src/EndpointRadarBase.c **** 			uint8_t *srcPtr  = (uint8_t *)frame_info.sample_data;
 249:../HostCommunication/src/EndpointRadarBase.c **** 
 250:../HostCommunication/src/EndpointRadarBase.c **** 			uint32_t channel_inc = frame_info.num_samples_per_chirp*sizeof(uint16_t);
 251:../HostCommunication/src/EndpointRadarBase.c **** 			uint32_t chirp_inc   = channel_inc * frame_info.num_rx_antennas * (frame_info.data_format == RAD
 252:../HostCommunication/src/EndpointRadarBase.c **** 
 253:../HostCommunication/src/EndpointRadarBase.c **** 			uint32_t processed_out_bytes = 0;
 254:../HostCommunication/src/EndpointRadarBase.c **** 
 255:../HostCommunication/src/EndpointRadarBase.c **** 			for(uint32_t chirp = 0; chirp < frame_info.num_chirps; chirp++)
 256:../HostCommunication/src/EndpointRadarBase.c **** 			{
 257:../HostCommunication/src/EndpointRadarBase.c **** 				for(uint32_t ant_idx= 0; ant_idx < frame_info.num_rx_antennas; ant_idx++)  // max Ant mask!
 258:../HostCommunication/src/EndpointRadarBase.c **** 				{
 259:../HostCommunication/src/EndpointRadarBase.c **** 					uint8_t mask = (1 << ant_idx);
 260:../HostCommunication/src/EndpointRadarBase.c **** 					if( (mask & frame_info.rx_mask) != 0 )
 261:../HostCommunication/src/EndpointRadarBase.c **** 					{
 262:../HostCommunication/src/EndpointRadarBase.c **** 						uint32_t num_chan_per_ant = (frame_info.data_format == RADAR_RX_DATA_REAL ? 1 : 2);
 263:../HostCommunication/src/EndpointRadarBase.c **** 						for(uint32_t ch_idx = 0; ch_idx < num_chan_per_ant; ch_idx++)
 264:../HostCommunication/src/EndpointRadarBase.c **** 						{
 265:../HostCommunication/src/EndpointRadarBase.c **** 							uint32_t in_offset = (chirp_inc * chirp) + (channel_inc*(ant_idx*num_chan_per_ant + ch_idx )
 266:../HostCommunication/src/EndpointRadarBase.c **** 							size_t out_offset = packing_helper_12Bit(destPtr, (uint16_t *)&srcPtr[in_offset], frame_info
 267:../HostCommunication/src/EndpointRadarBase.c **** 			
 268:../HostCommunication/src/EndpointRadarBase.c **** 							destPtr += out_offset;
 269:../HostCommunication/src/EndpointRadarBase.c **** 							processed_out_bytes += out_offset;
 270:../HostCommunication/src/EndpointRadarBase.c **** 						}
 271:../HostCommunication/src/EndpointRadarBase.c **** 					}
 272:../HostCommunication/src/EndpointRadarBase.c **** 				}
 273:../HostCommunication/src/EndpointRadarBase.c **** 			}
 274:../HostCommunication/src/EndpointRadarBase.c **** 			/* now send the packed data at once */
 275:../HostCommunication/src/EndpointRadarBase.c **** 			protocol_send_payload((uint8_t*)transport_buffer, data_size);
 276:../HostCommunication/src/EndpointRadarBase.c ****         }
 277:../HostCommunication/src/EndpointRadarBase.c **** 
 278:../HostCommunication/src/EndpointRadarBase.c ****         else
 279:../HostCommunication/src/EndpointRadarBase.c ****         {
 280:../HostCommunication/src/EndpointRadarBase.c ****              uint16_t sample_bit_mask = (1 << frame_info.adc_resolution) - 1;
 281:../HostCommunication/src/EndpointRadarBase.c ****  			 uint16_t sample_bit_stream = 0;
 282:../HostCommunication/src/EndpointRadarBase.c **** 			 uint16_t write_bit_position = 0;
 283:../HostCommunication/src/EndpointRadarBase.c **** 
 284:../HostCommunication/src/EndpointRadarBase.c **** 			 for (unsigned i = 0; i < num_samples; ++i)
 285:../HostCommunication/src/EndpointRadarBase.c **** 			 {
 286:../HostCommunication/src/EndpointRadarBase.c **** 				const uint16_t* unpacked_data = &((uint16_t*)frame_info.sample_data)[sample_start];
 287:../HostCommunication/src/EndpointRadarBase.c **** 				 sample_bit_stream |= (unpacked_data[i] & sample_bit_mask) <<
 288:../HostCommunication/src/EndpointRadarBase.c **** 									   write_bit_position;
 289:../HostCommunication/src/EndpointRadarBase.c **** 				 write_bit_position += frame_info.adc_resolution;
 290:../HostCommunication/src/EndpointRadarBase.c **** 
 291:../HostCommunication/src/EndpointRadarBase.c **** 				 protocol_send_payload((uint8_t*)&sample_bit_stream,
 292:../HostCommunication/src/EndpointRadarBase.c **** 									   write_bit_position >> 3);
 293:../HostCommunication/src/EndpointRadarBase.c **** 				 sample_bit_stream >>= write_bit_position & 0xF8;
 294:../HostCommunication/src/EndpointRadarBase.c **** 				 write_bit_position &= 0x07;
 295:../HostCommunication/src/EndpointRadarBase.c **** 			 }
 296:../HostCommunication/src/EndpointRadarBase.c **** 			 if (write_bit_position != 0)
 297:../HostCommunication/src/EndpointRadarBase.c **** 				 protocol_send_payload((uint8_t*)&sample_bit_stream, 1);
 298:../HostCommunication/src/EndpointRadarBase.c ****         }
 299:../HostCommunication/src/EndpointRadarBase.c **** 
 300:../HostCommunication/src/EndpointRadarBase.c **** 
 301:../HostCommunication/src/EndpointRadarBase.c ****         protocol_send_tail();
 302:../HostCommunication/src/EndpointRadarBase.c **** 
 303:../HostCommunication/src/EndpointRadarBase.c ****         /* send another message, containing the temperature */
 304:../HostCommunication/src/EndpointRadarBase.c ****         {
 305:../HostCommunication/src/EndpointRadarBase.c ****             // Send the temperature, only when the value is changing!
 306:../HostCommunication/src/EndpointRadarBase.c ****         	static int32_t previous_temp = 0;
 307:../HostCommunication/src/EndpointRadarBase.c ****             if( frame_info.temperature_001C != previous_temp )
 308:../HostCommunication/src/EndpointRadarBase.c ****             {
 309:../HostCommunication/src/EndpointRadarBase.c **** 
 310:../HostCommunication/src/EndpointRadarBase.c **** 				uint8_t message[6];
 311:../HostCommunication/src/EndpointRadarBase.c **** 
 312:../HostCommunication/src/EndpointRadarBase.c **** 				/* compile message */
 313:../HostCommunication/src/EndpointRadarBase.c **** 				wr_payload_u8 (message, 0, MSG_SET_TEMPRATURE);
 314:../HostCommunication/src/EndpointRadarBase.c **** 				wr_payload_u8 (message, 1, 0);
 315:../HostCommunication/src/EndpointRadarBase.c **** 				wr_payload_i32(message, 2, frame_info.temperature_001C);
 316:../HostCommunication/src/EndpointRadarBase.c **** 
 317:../HostCommunication/src/EndpointRadarBase.c **** 				/* send message */
 318:../HostCommunication/src/EndpointRadarBase.c **** 				protocol_send_header(endpoint, sizeof(message));
 319:../HostCommunication/src/EndpointRadarBase.c **** 				protocol_send_payload(message, sizeof(message));
 320:../HostCommunication/src/EndpointRadarBase.c **** 				protocol_send_tail();
 321:../HostCommunication/src/EndpointRadarBase.c **** 				previous_temp = frame_info.temperature_001C;
 322:../HostCommunication/src/EndpointRadarBase.c ****             }
 323:../HostCommunication/src/EndpointRadarBase.c ****         }
 324:../HostCommunication/src/EndpointRadarBase.c ****     }
 325:../HostCommunication/src/EndpointRadarBase.c ****     return error_code;
 326:../HostCommunication/src/EndpointRadarBase.c **** }
 327:../HostCommunication/src/EndpointRadarBase.c **** 
 328:../HostCommunication/src/EndpointRadarBase.c **** static uint16_t send_device_info(uint8_t endpoint,
 329:../HostCommunication/src/EndpointRadarBase.c ****                                  Radar_Handle_t radar_driver)
 330:../HostCommunication/src/EndpointRadarBase.c **** {
 331:../HostCommunication/src/EndpointRadarBase.c ****     uint16_t error_code;
 332:../HostCommunication/src/EndpointRadarBase.c ****     Device_Info_t device_info;
 333:../HostCommunication/src/EndpointRadarBase.c **** 
 334:../HostCommunication/src/EndpointRadarBase.c ****     /* read device info from device */
 335:../HostCommunication/src/EndpointRadarBase.c ****     error_code = radar_get_device_info(radar_driver, &device_info);
 336:../HostCommunication/src/EndpointRadarBase.c **** 
 337:../HostCommunication/src/EndpointRadarBase.c ****     if (error_code == RADAR_ERR_OK)
 338:../HostCommunication/src/EndpointRadarBase.c ****     {
 339:../HostCommunication/src/EndpointRadarBase.c ****         uint16_t string_length;
 340:../HostCommunication/src/EndpointRadarBase.c ****         uint8_t message[17];
 341:../HostCommunication/src/EndpointRadarBase.c **** 
 342:../HostCommunication/src/EndpointRadarBase.c ****         /* compile message */
 343:../HostCommunication/src/EndpointRadarBase.c ****         wr_payload_u8 (message,  0, MSG_SET_DEVICE_INFO);
 344:../HostCommunication/src/EndpointRadarBase.c ****         wr_payload_u32(message,  1, device_info.min_rf_frequency_kHz);
 345:../HostCommunication/src/EndpointRadarBase.c ****         wr_payload_u32(message,  5, device_info.max_rf_frequency_kHz);
 346:../HostCommunication/src/EndpointRadarBase.c ****         wr_payload_u8 (message,  9, device_info.num_tx_antennas);
 347:../HostCommunication/src/EndpointRadarBase.c ****         wr_payload_u8 (message, 10, device_info.num_rx_antennas);
 348:../HostCommunication/src/EndpointRadarBase.c ****         wr_payload_u8 (message, 11, device_info.max_tx_power);
 349:../HostCommunication/src/EndpointRadarBase.c ****         wr_payload_u8 (message, 12, device_info.num_temp_sensors);
 350:../HostCommunication/src/EndpointRadarBase.c ****         wr_payload_u8 (message, 13, device_info.major_version_hw);
 351:../HostCommunication/src/EndpointRadarBase.c ****         wr_payload_u8 (message, 14, device_info.minor_version_hw);
 352:../HostCommunication/src/EndpointRadarBase.c ****         wr_payload_u8 (message, 15, device_info.interleaved_rx);
 353:../HostCommunication/src/EndpointRadarBase.c ****         wr_payload_u8 (message, 16, device_info.data_format);
 354:../HostCommunication/src/EndpointRadarBase.c **** 
 355:../HostCommunication/src/EndpointRadarBase.c ****         /* count string length (add 1 for the terminating 0) */
 356:../HostCommunication/src/EndpointRadarBase.c ****         string_length = 0;
 357:../HostCommunication/src/EndpointRadarBase.c ****         while (device_info.description[string_length] != 0)
 358:../HostCommunication/src/EndpointRadarBase.c ****             ++string_length;
 359:../HostCommunication/src/EndpointRadarBase.c ****         ++string_length;
 360:../HostCommunication/src/EndpointRadarBase.c **** 
 361:../HostCommunication/src/EndpointRadarBase.c ****         /* send message */
 362:../HostCommunication/src/EndpointRadarBase.c ****         protocol_send_header(endpoint, sizeof(message) + string_length);
 363:../HostCommunication/src/EndpointRadarBase.c ****         protocol_send_payload(message, sizeof(message));
 364:../HostCommunication/src/EndpointRadarBase.c ****         protocol_send_payload((const uint8_t*)device_info.description,
 365:../HostCommunication/src/EndpointRadarBase.c ****                               string_length);
 366:../HostCommunication/src/EndpointRadarBase.c ****         protocol_send_tail();
 367:../HostCommunication/src/EndpointRadarBase.c ****     }
 368:../HostCommunication/src/EndpointRadarBase.c ****     return error_code;
 369:../HostCommunication/src/EndpointRadarBase.c **** }
 370:../HostCommunication/src/EndpointRadarBase.c **** 
 371:../HostCommunication/src/EndpointRadarBase.c **** static uint16_t send_temperature(uint8_t endpoint,
 372:../HostCommunication/src/EndpointRadarBase.c ****                                  Radar_Handle_t radar_driver,
 373:../HostCommunication/src/EndpointRadarBase.c ****                                  uint8_t temp_sensor)
 374:../HostCommunication/src/EndpointRadarBase.c **** {
 375:../HostCommunication/src/EndpointRadarBase.c ****     uint16_t error_code;
 376:../HostCommunication/src/EndpointRadarBase.c ****     int32_t temperature;
 377:../HostCommunication/src/EndpointRadarBase.c **** 
 378:../HostCommunication/src/EndpointRadarBase.c ****     /* read temperature value */
 379:../HostCommunication/src/EndpointRadarBase.c ****     error_code = radar_get_temperature(radar_driver, temp_sensor,
 380:../HostCommunication/src/EndpointRadarBase.c ****                                        &temperature);
 381:../HostCommunication/src/EndpointRadarBase.c **** 
 382:../HostCommunication/src/EndpointRadarBase.c ****     if (error_code == RADAR_ERR_OK)
 383:../HostCommunication/src/EndpointRadarBase.c ****     {
 384:../HostCommunication/src/EndpointRadarBase.c ****         uint8_t message[6];
 385:../HostCommunication/src/EndpointRadarBase.c **** 
 386:../HostCommunication/src/EndpointRadarBase.c ****         /* compile message */
 387:../HostCommunication/src/EndpointRadarBase.c ****         wr_payload_u8 (message, 0, MSG_SET_TEMPRATURE);
 388:../HostCommunication/src/EndpointRadarBase.c ****         wr_payload_u8 (message, 1, temp_sensor);
 389:../HostCommunication/src/EndpointRadarBase.c ****         wr_payload_i32(message, 2, temperature);
 390:../HostCommunication/src/EndpointRadarBase.c **** 
 391:../HostCommunication/src/EndpointRadarBase.c ****         /* send message */
 392:../HostCommunication/src/EndpointRadarBase.c ****         protocol_send_header(endpoint, sizeof(message));
 393:../HostCommunication/src/EndpointRadarBase.c ****         protocol_send_payload(message, sizeof(message));
 394:../HostCommunication/src/EndpointRadarBase.c ****         protocol_send_tail();
 395:../HostCommunication/src/EndpointRadarBase.c ****     }
 396:../HostCommunication/src/EndpointRadarBase.c ****     return error_code;
 397:../HostCommunication/src/EndpointRadarBase.c **** }
 398:../HostCommunication/src/EndpointRadarBase.c **** 
 399:../HostCommunication/src/EndpointRadarBase.c **** static uint16_t send_tx_power(uint8_t endpoint, Radar_Handle_t radar_driver,
 400:../HostCommunication/src/EndpointRadarBase.c ****                               uint8_t tx_antenna)
 401:../HostCommunication/src/EndpointRadarBase.c **** {
 402:../HostCommunication/src/EndpointRadarBase.c ****     uint16_t error_code;
 403:../HostCommunication/src/EndpointRadarBase.c ****     int32_t tx_power;
 404:../HostCommunication/src/EndpointRadarBase.c **** 
 405:../HostCommunication/src/EndpointRadarBase.c ****     /* read TX power value value */
 406:../HostCommunication/src/EndpointRadarBase.c ****     error_code =  radar_get_tx_power(radar_driver, tx_antenna, &tx_power);
 407:../HostCommunication/src/EndpointRadarBase.c **** 
 408:../HostCommunication/src/EndpointRadarBase.c ****     if (error_code == RADAR_ERR_OK)
 409:../HostCommunication/src/EndpointRadarBase.c ****     {
 410:../HostCommunication/src/EndpointRadarBase.c ****         uint8_t message[6];
 411:../HostCommunication/src/EndpointRadarBase.c **** 
 412:../HostCommunication/src/EndpointRadarBase.c ****         /* compile message */
 413:../HostCommunication/src/EndpointRadarBase.c ****         wr_payload_u8 (message, 0, MSG_SET_TX_POWER);
 414:../HostCommunication/src/EndpointRadarBase.c ****         wr_payload_u8 (message, 1, tx_antenna);
 415:../HostCommunication/src/EndpointRadarBase.c ****         wr_payload_i32(message, 2, tx_power);
 416:../HostCommunication/src/EndpointRadarBase.c **** 
 417:../HostCommunication/src/EndpointRadarBase.c ****         /* send message */
 418:../HostCommunication/src/EndpointRadarBase.c ****         protocol_send_header(endpoint, sizeof(message));
 419:../HostCommunication/src/EndpointRadarBase.c ****         protocol_send_payload(message, sizeof(message));
 420:../HostCommunication/src/EndpointRadarBase.c ****         protocol_send_tail();
 421:../HostCommunication/src/EndpointRadarBase.c ****     }
 422:../HostCommunication/src/EndpointRadarBase.c ****     return error_code;
 423:../HostCommunication/src/EndpointRadarBase.c **** }
 424:../HostCommunication/src/EndpointRadarBase.c **** 
 425:../HostCommunication/src/EndpointRadarBase.c **** static uint16_t send_chirp_duration(uint8_t endpoint,
 426:../HostCommunication/src/EndpointRadarBase.c ****                                     Radar_Handle_t radar_driver)
 427:../HostCommunication/src/EndpointRadarBase.c **** {
 428:../HostCommunication/src/EndpointRadarBase.c ****     uint16_t error_code;
 429:../HostCommunication/src/EndpointRadarBase.c ****     uint32_t chirp_duration;
 430:../HostCommunication/src/EndpointRadarBase.c **** 
 431:../HostCommunication/src/EndpointRadarBase.c ****     /* read chirp duration */
 432:../HostCommunication/src/EndpointRadarBase.c ****     error_code = radar_get_chirp_duration(radar_driver, &chirp_duration);
 433:../HostCommunication/src/EndpointRadarBase.c **** 
 434:../HostCommunication/src/EndpointRadarBase.c ****     if (error_code == RADAR_ERR_OK)
 435:../HostCommunication/src/EndpointRadarBase.c ****     {
 436:../HostCommunication/src/EndpointRadarBase.c ****         uint8_t message[5];
 437:../HostCommunication/src/EndpointRadarBase.c **** 
 438:../HostCommunication/src/EndpointRadarBase.c ****         /* compile message */
 439:../HostCommunication/src/EndpointRadarBase.c ****         wr_payload_u8 (message, 0, MSG_SET_CHRIP_DURATION);
 440:../HostCommunication/src/EndpointRadarBase.c ****         wr_payload_u32(message, 1, chirp_duration);
 441:../HostCommunication/src/EndpointRadarBase.c **** 
 442:../HostCommunication/src/EndpointRadarBase.c ****         /* send message */
 443:../HostCommunication/src/EndpointRadarBase.c ****         protocol_send_header(endpoint, sizeof(message));
 444:../HostCommunication/src/EndpointRadarBase.c ****         protocol_send_payload(message, sizeof(message));
 445:../HostCommunication/src/EndpointRadarBase.c ****         protocol_send_tail();
 446:../HostCommunication/src/EndpointRadarBase.c ****     }
 447:../HostCommunication/src/EndpointRadarBase.c ****     return error_code;
 448:../HostCommunication/src/EndpointRadarBase.c **** }
 449:../HostCommunication/src/EndpointRadarBase.c **** 
 450:../HostCommunication/src/EndpointRadarBase.c **** static uint16_t send_min_frame_interval(uint8_t endpoint,
 451:../HostCommunication/src/EndpointRadarBase.c ****                                         Radar_Handle_t radar_driver)
 452:../HostCommunication/src/EndpointRadarBase.c **** {
 453:../HostCommunication/src/EndpointRadarBase.c ****     uint16_t error_code;
 454:../HostCommunication/src/EndpointRadarBase.c ****     uint32_t min_frame_interval;
 455:../HostCommunication/src/EndpointRadarBase.c **** 
 456:../HostCommunication/src/EndpointRadarBase.c ****     /* read minimum frame interval */
 457:../HostCommunication/src/EndpointRadarBase.c ****     error_code = radar_get_min_frame_interval(radar_driver,
 458:../HostCommunication/src/EndpointRadarBase.c ****                                               &min_frame_interval);
 459:../HostCommunication/src/EndpointRadarBase.c **** 
 460:../HostCommunication/src/EndpointRadarBase.c ****     if (error_code == RADAR_ERR_OK)
 461:../HostCommunication/src/EndpointRadarBase.c ****     {
 462:../HostCommunication/src/EndpointRadarBase.c ****         uint8_t message[5];
 463:../HostCommunication/src/EndpointRadarBase.c **** 
 464:../HostCommunication/src/EndpointRadarBase.c ****         /* compile message */
 465:../HostCommunication/src/EndpointRadarBase.c ****         wr_payload_u8 (message, 0, MSG_SET_MIN_INTERVAL);
 466:../HostCommunication/src/EndpointRadarBase.c ****         wr_payload_u32(message, 1, min_frame_interval);
 467:../HostCommunication/src/EndpointRadarBase.c **** 
 468:../HostCommunication/src/EndpointRadarBase.c ****         /* send message */
 469:../HostCommunication/src/EndpointRadarBase.c ****         protocol_send_header(endpoint, sizeof(message));
 470:../HostCommunication/src/EndpointRadarBase.c ****         protocol_send_payload(message, sizeof(message));
 471:../HostCommunication/src/EndpointRadarBase.c ****         protocol_send_tail();
 472:../HostCommunication/src/EndpointRadarBase.c ****     }
 473:../HostCommunication/src/EndpointRadarBase.c ****     return error_code;
 474:../HostCommunication/src/EndpointRadarBase.c **** }
 475:../HostCommunication/src/EndpointRadarBase.c **** 
 476:../HostCommunication/src/EndpointRadarBase.c **** static uint16_t send_frame_format(uint8_t endpoint,
 477:../HostCommunication/src/EndpointRadarBase.c ****                                  Radar_Handle_t radar_driver)
 478:../HostCommunication/src/EndpointRadarBase.c **** {
 479:../HostCommunication/src/EndpointRadarBase.c ****     uint16_t error_code;
 480:../HostCommunication/src/EndpointRadarBase.c ****     Frame_Format_t frame_format;
 481:../HostCommunication/src/EndpointRadarBase.c **** 
 482:../HostCommunication/src/EndpointRadarBase.c ****     /* get current frame format from radar driver */
 483:../HostCommunication/src/EndpointRadarBase.c ****     error_code = radar_get_frame_format(radar_driver, &frame_format);
 484:../HostCommunication/src/EndpointRadarBase.c **** 
 485:../HostCommunication/src/EndpointRadarBase.c ****     if (error_code == RADAR_ERR_OK)
 486:../HostCommunication/src/EndpointRadarBase.c ****     {
 487:../HostCommunication/src/EndpointRadarBase.c ****         uint8_t message[11];
 488:../HostCommunication/src/EndpointRadarBase.c **** 
 489:../HostCommunication/src/EndpointRadarBase.c ****         /* compile message */
 490:../HostCommunication/src/EndpointRadarBase.c ****         wr_payload_u8 (message,  0, MSG_SET_FRAME_FORMAT);
 491:../HostCommunication/src/EndpointRadarBase.c ****         wr_payload_u32(message,  1, frame_format.num_samples_per_chirp);
 492:../HostCommunication/src/EndpointRadarBase.c ****         wr_payload_u32(message,  5, frame_format.num_chirps_per_frame);
 493:../HostCommunication/src/EndpointRadarBase.c ****         wr_payload_u8 (message,  9, frame_format.rx_mask);
 494:../HostCommunication/src/EndpointRadarBase.c ****         wr_payload_u8 (message, 10, frame_format.signal_part);
 495:../HostCommunication/src/EndpointRadarBase.c **** 
 496:../HostCommunication/src/EndpointRadarBase.c ****         /* send message */
 497:../HostCommunication/src/EndpointRadarBase.c ****         protocol_send_header(endpoint, sizeof(message));
 498:../HostCommunication/src/EndpointRadarBase.c ****         protocol_send_payload(message, sizeof(message));
 499:../HostCommunication/src/EndpointRadarBase.c ****         protocol_send_tail();
 500:../HostCommunication/src/EndpointRadarBase.c ****     }
 501:../HostCommunication/src/EndpointRadarBase.c ****     return error_code;
 502:../HostCommunication/src/EndpointRadarBase.c **** }
 503:../HostCommunication/src/EndpointRadarBase.c **** 
 504:../HostCommunication/src/EndpointRadarBase.c **** static uint16_t send_fft_config(uint8_t endpoint,
 505:../HostCommunication/src/EndpointRadarBase.c ****                                  Radar_Handle_t radar_driver)
 506:../HostCommunication/src/EndpointRadarBase.c **** {
 507:../HostCommunication/src/EndpointRadarBase.c **** 
 508:../HostCommunication/src/EndpointRadarBase.c **** 	FFT_configuration_t fft_conf;
 509:../HostCommunication/src/EndpointRadarBase.c **** 	radar_get_fft_configuration(radar_driver,&fft_conf);
 510:../HostCommunication/src/EndpointRadarBase.c **** 
 511:../HostCommunication/src/EndpointRadarBase.c **** 	union {
 512:../HostCommunication/src/EndpointRadarBase.c **** 			uint32_t  u32_value;
 513:../HostCommunication/src/EndpointRadarBase.c **** 			float	  f32_value;
 514:../HostCommunication/src/EndpointRadarBase.c **** 		} convert_helper;
 515:../HostCommunication/src/EndpointRadarBase.c **** 	convert_helper.f32_value = fft_conf.scaling_factor;
 516:../HostCommunication/src/EndpointRadarBase.c **** 
 517:../HostCommunication/src/EndpointRadarBase.c ****     uint8_t message[11];
 518:../HostCommunication/src/EndpointRadarBase.c **** 
 519:../HostCommunication/src/EndpointRadarBase.c **** 	/* compile message */
 520:../HostCommunication/src/EndpointRadarBase.c **** 	wr_payload_u8 (message,  0, MSG_SET_FFT_INFO);
 521:../HostCommunication/src/EndpointRadarBase.c **** 	wr_payload_u32(message,  1, fft_conf.fft_window_size);
 522:../HostCommunication/src/EndpointRadarBase.c **** 	wr_payload_u8(message,   5, (uint8_t)fft_conf.window_type);
 523:../HostCommunication/src/EndpointRadarBase.c **** 	wr_payload_u8 (message,  6, fft_conf.mean_removed);
 524:../HostCommunication/src/EndpointRadarBase.c **** 	wr_payload_u32(message,  7, convert_helper.u32_value);
 525:../HostCommunication/src/EndpointRadarBase.c **** 
 526:../HostCommunication/src/EndpointRadarBase.c **** 	/* send message */
 527:../HostCommunication/src/EndpointRadarBase.c **** 	protocol_send_header(endpoint, sizeof(message));
 528:../HostCommunication/src/EndpointRadarBase.c **** 	protocol_send_payload(message, sizeof(message));
 529:../HostCommunication/src/EndpointRadarBase.c **** 	protocol_send_tail();
 530:../HostCommunication/src/EndpointRadarBase.c **** 
 531:../HostCommunication/src/EndpointRadarBase.c **** 	return RADAR_ERR_OK;
 532:../HostCommunication/src/EndpointRadarBase.c **** }
 533:../HostCommunication/src/EndpointRadarBase.c **** /*
 534:../HostCommunication/src/EndpointRadarBase.c **** ==============================================================================
 535:../HostCommunication/src/EndpointRadarBase.c ****    5. EXPORTED FUNCTIONS
 536:../HostCommunication/src/EndpointRadarBase.c **** ==============================================================================
 537:../HostCommunication/src/EndpointRadarBase.c **** */
 538:../HostCommunication/src/EndpointRadarBase.c **** 
 539:../HostCommunication/src/EndpointRadarBase.c **** uint16_t ep_radar_base_handle_message(uint8_t endpoint, uint8_t* message_data,
 540:../HostCommunication/src/EndpointRadarBase.c ****                                       uint16_t num_bytes, void* context)
 541:../HostCommunication/src/EndpointRadarBase.c **** {
  28              	 .loc 1 541 0
  29              	 .cfi_startproc
  30              	 
  31              	 
  32              	.LVL0:
  33 0000 2DE9F04F 	 push {r4,r5,r6,r7,r8,r9,r10,fp,lr}
  34              	.LCFI0:
  35              	 .cfi_def_cfa_offset 36
  36              	 .cfi_offset 4,-36
  37              	 .cfi_offset 5,-32
  38              	 .cfi_offset 6,-28
  39              	 .cfi_offset 7,-24
  40              	 .cfi_offset 8,-20
  41              	 .cfi_offset 9,-16
  42              	 .cfi_offset 10,-12
  43              	 .cfi_offset 11,-8
  44              	 .cfi_offset 14,-4
 542:../HostCommunication/src/EndpointRadarBase.c ****     Radar_Handle_t radar_driver = (Radar_Handle_t)context;
 543:../HostCommunication/src/EndpointRadarBase.c **** 
 544:../HostCommunication/src/EndpointRadarBase.c ****     switch (message_data[0])
  45              	 .loc 1 544 0
  46 0004 0E78     	 ldrb r6,[r1]
 541:../HostCommunication/src/EndpointRadarBase.c ****     Radar_Handle_t radar_driver = (Radar_Handle_t)context;
  47              	 .loc 1 541 0
  48 0006 8046     	 mov r8,r0
  49              	 .loc 1 544 0
  50 0008 701E     	 subs r0,r6,#1
  51              	.LVL1:
 541:../HostCommunication/src/EndpointRadarBase.c ****     Radar_Handle_t radar_driver = (Radar_Handle_t)context;
  52              	 .loc 1 541 0
  53 000a 9FB0     	 sub sp,sp,#124
  54              	.LCFI1:
  55              	 .cfi_def_cfa_offset 160
 541:../HostCommunication/src/EndpointRadarBase.c ****     Radar_Handle_t radar_driver = (Radar_Handle_t)context;
  56              	 .loc 1 541 0
  57 000c 1546     	 mov r5,r2
  58              	.LVL2:
  59              	 .loc 1 544 0
  60 000e 4128     	 cmp r0,#65
  61 0010 46D8     	 bhi .L68
  62 0012 DFE810F0 	 tbh [pc,r0,lsl#1]
  63              	.LVL3:
  64              	.L4:
  65 0016 4B00     	 .2byte (.L3-.L4)/2
  66 0018 1601     	 .2byte (.L5-.L4)/2
  67 001a 2801     	 .2byte (.L6-.L4)/2
  68 001c 4500     	 .2byte (.L68-.L4)/2
  69 001e 4500     	 .2byte (.L68-.L4)/2
  70 0020 4500     	 .2byte (.L68-.L4)/2
  71 0022 4500     	 .2byte (.L68-.L4)/2
  72 0024 4500     	 .2byte (.L68-.L4)/2
  73 0026 4500     	 .2byte (.L68-.L4)/2
  74 0028 4500     	 .2byte (.L68-.L4)/2
  75 002a 4500     	 .2byte (.L68-.L4)/2
  76 002c 4500     	 .2byte (.L68-.L4)/2
  77 002e 4500     	 .2byte (.L68-.L4)/2
  78 0030 4500     	 .2byte (.L68-.L4)/2
  79 0032 4500     	 .2byte (.L68-.L4)/2
  80 0034 4500     	 .2byte (.L68-.L4)/2
  81 0036 4500     	 .2byte (.L68-.L4)/2
  82 0038 4500     	 .2byte (.L68-.L4)/2
  83 003a 4500     	 .2byte (.L68-.L4)/2
  84 003c 4500     	 .2byte (.L68-.L4)/2
  85 003e 4500     	 .2byte (.L68-.L4)/2
  86 0040 4500     	 .2byte (.L68-.L4)/2
  87 0042 4500     	 .2byte (.L68-.L4)/2
  88 0044 4500     	 .2byte (.L68-.L4)/2
  89 0046 4500     	 .2byte (.L68-.L4)/2
  90 0048 4500     	 .2byte (.L68-.L4)/2
  91 004a 4500     	 .2byte (.L68-.L4)/2
  92 004c 4500     	 .2byte (.L68-.L4)/2
  93 004e 4500     	 .2byte (.L68-.L4)/2
  94 0050 4500     	 .2byte (.L68-.L4)/2
  95 0052 4500     	 .2byte (.L68-.L4)/2
  96 0054 3F01     	 .2byte (.L7-.L4)/2
  97 0056 4500     	 .2byte (.L68-.L4)/2
  98 0058 5D01     	 .2byte (.L8-.L4)/2
  99 005a 4500     	 .2byte (.L68-.L4)/2
 100 005c 4500     	 .2byte (.L68-.L4)/2
 101 005e 4500     	 .2byte (.L68-.L4)/2
 102 0060 4500     	 .2byte (.L68-.L4)/2
 103 0062 4500     	 .2byte (.L68-.L4)/2
 104 0064 4500     	 .2byte (.L68-.L4)/2
 105 0066 4500     	 .2byte (.L68-.L4)/2
 106 0068 4500     	 .2byte (.L68-.L4)/2
 107 006a 4500     	 .2byte (.L68-.L4)/2
 108 006c 4500     	 .2byte (.L68-.L4)/2
 109 006e 4500     	 .2byte (.L68-.L4)/2
 110 0070 4500     	 .2byte (.L68-.L4)/2
 111 0072 4500     	 .2byte (.L68-.L4)/2
 112 0074 C201     	 .2byte (.L9-.L4)/2
 113 0076 4500     	 .2byte (.L68-.L4)/2
 114 0078 D801     	 .2byte (.L10-.L4)/2
 115 007a 4500     	 .2byte (.L68-.L4)/2
 116 007c 0102     	 .2byte (.L11-.L4)/2
 117 007e 4500     	 .2byte (.L68-.L4)/2
 118 0080 1502     	 .2byte (.L12-.L4)/2
 119 0082 4500     	 .2byte (.L68-.L4)/2
 120 0084 4500     	 .2byte (.L68-.L4)/2
 121 0086 4500     	 .2byte (.L68-.L4)/2
 122 0088 4500     	 .2byte (.L68-.L4)/2
 123 008a 4500     	 .2byte (.L68-.L4)/2
 124 008c 4500     	 .2byte (.L68-.L4)/2
 125 008e 4500     	 .2byte (.L68-.L4)/2
 126 0090 4500     	 .2byte (.L68-.L4)/2
 127 0092 4500     	 .2byte (.L68-.L4)/2
 128 0094 3A02     	 .2byte (.L13-.L4)/2
 129 0096 7B02     	 .2byte (.L14-.L4)/2
 130 0098 4200     	 .2byte (.L15-.L4)/2
 131              	 .p2align 1
 132              	.L15:
 545:../HostCommunication/src/EndpointRadarBase.c ****     {
 546:../HostCommunication/src/EndpointRadarBase.c ****     case MSG_GET_FRAME_DATA:
 547:../HostCommunication/src/EndpointRadarBase.c ****         if (num_bytes == 2)
 548:../HostCommunication/src/EndpointRadarBase.c ****         {
 549:../HostCommunication/src/EndpointRadarBase.c ****             uint8_t wait;
 550:../HostCommunication/src/EndpointRadarBase.c **** 
 551:../HostCommunication/src/EndpointRadarBase.c ****             /* extract parameters from message */
 552:../HostCommunication/src/EndpointRadarBase.c ****             wait = rd_payload_u8(message_data, 1);
 553:../HostCommunication/src/EndpointRadarBase.c **** 
 554:../HostCommunication/src/EndpointRadarBase.c ****             return send_frame_data(endpoint, radar_driver, wait);
 555:../HostCommunication/src/EndpointRadarBase.c ****         }
 556:../HostCommunication/src/EndpointRadarBase.c ****         break;
 557:../HostCommunication/src/EndpointRadarBase.c **** 
 558:../HostCommunication/src/EndpointRadarBase.c ****     case MSG_SET_AUTOMATIC_TRIGGER:
 559:../HostCommunication/src/EndpointRadarBase.c ****         if (num_bytes == 5)
 560:../HostCommunication/src/EndpointRadarBase.c ****         {
 561:../HostCommunication/src/EndpointRadarBase.c ****             unsigned error_code;
 562:../HostCommunication/src/EndpointRadarBase.c ****             uint32_t frame_interval;
 563:../HostCommunication/src/EndpointRadarBase.c **** 
 564:../HostCommunication/src/EndpointRadarBase.c ****             /* extract parameters from message */
 565:../HostCommunication/src/EndpointRadarBase.c ****             frame_interval = rd_payload_u32(message_data, 1);
 566:../HostCommunication/src/EndpointRadarBase.c **** 
 567:../HostCommunication/src/EndpointRadarBase.c ****             /* apply new settings */
 568:../HostCommunication/src/EndpointRadarBase.c ****             error_code = radar_set_automatic_frame_trigger(radar_driver,
 569:../HostCommunication/src/EndpointRadarBase.c ****                                                            frame_interval);
 570:../HostCommunication/src/EndpointRadarBase.c **** 
 571:../HostCommunication/src/EndpointRadarBase.c ****             return error_code;
 572:../HostCommunication/src/EndpointRadarBase.c ****         }
 573:../HostCommunication/src/EndpointRadarBase.c ****         break;
 574:../HostCommunication/src/EndpointRadarBase.c **** 
 575:../HostCommunication/src/EndpointRadarBase.c ****     case MSG_ENABLE_TEST_MODE:
 576:../HostCommunication/src/EndpointRadarBase.c ****         if (num_bytes == 8)
 577:../HostCommunication/src/EndpointRadarBase.c ****         {
 578:../HostCommunication/src/EndpointRadarBase.c ****             unsigned error_code;
 579:../HostCommunication/src/EndpointRadarBase.c ****             uint8_t tx_mask;
 580:../HostCommunication/src/EndpointRadarBase.c ****             uint8_t rx_mask;
 581:../HostCommunication/src/EndpointRadarBase.c ****             uint32_t frequency;
 582:../HostCommunication/src/EndpointRadarBase.c ****             uint8_t tx_power;
 583:../HostCommunication/src/EndpointRadarBase.c **** 
 584:../HostCommunication/src/EndpointRadarBase.c ****             /* extract parameters from message */
 585:../HostCommunication/src/EndpointRadarBase.c ****             tx_mask   = rd_payload_u8 (message_data, 1);
 586:../HostCommunication/src/EndpointRadarBase.c ****             rx_mask   = rd_payload_u8 (message_data, 2);
 587:../HostCommunication/src/EndpointRadarBase.c ****             frequency = rd_payload_u32(message_data, 3);
 588:../HostCommunication/src/EndpointRadarBase.c ****             tx_power  = rd_payload_u8 (message_data, 7);
 589:../HostCommunication/src/EndpointRadarBase.c **** 
 590:../HostCommunication/src/EndpointRadarBase.c ****             /* apply new settings */
 591:../HostCommunication/src/EndpointRadarBase.c ****             error_code = radar_test_antennas(radar_driver, tx_mask, rx_mask,
 592:../HostCommunication/src/EndpointRadarBase.c ****                                              frequency, tx_power);
 593:../HostCommunication/src/EndpointRadarBase.c **** 
 594:../HostCommunication/src/EndpointRadarBase.c ****             return error_code;
 595:../HostCommunication/src/EndpointRadarBase.c ****         }
 596:../HostCommunication/src/EndpointRadarBase.c ****         break;
 597:../HostCommunication/src/EndpointRadarBase.c **** 
 598:../HostCommunication/src/EndpointRadarBase.c ****     case MSG_GET_DRIVER_VERSION:
 599:../HostCommunication/src/EndpointRadarBase.c ****         if (num_bytes == 1)
 600:../HostCommunication/src/EndpointRadarBase.c ****         {
 601:../HostCommunication/src/EndpointRadarBase.c ****             /* send driver version info back to host */
 602:../HostCommunication/src/EndpointRadarBase.c ****             send_driver_version(endpoint);
 603:../HostCommunication/src/EndpointRadarBase.c **** 
 604:../HostCommunication/src/EndpointRadarBase.c ****             return RADAR_ERR_OK;
 605:../HostCommunication/src/EndpointRadarBase.c ****         }
 606:../HostCommunication/src/EndpointRadarBase.c ****         break;
 607:../HostCommunication/src/EndpointRadarBase.c **** 
 608:../HostCommunication/src/EndpointRadarBase.c ****     case MSG_GET_DEVICE_INFO:
 609:../HostCommunication/src/EndpointRadarBase.c ****         if (num_bytes == 1)
 610:../HostCommunication/src/EndpointRadarBase.c ****         {
 611:../HostCommunication/src/EndpointRadarBase.c ****             return send_device_info(endpoint, radar_driver);
 612:../HostCommunication/src/EndpointRadarBase.c ****         }
 613:../HostCommunication/src/EndpointRadarBase.c ****         break;
 614:../HostCommunication/src/EndpointRadarBase.c **** 
 615:../HostCommunication/src/EndpointRadarBase.c ****     case MSG_GET_TEMPRATURE:
 616:../HostCommunication/src/EndpointRadarBase.c ****     if (num_bytes == 2)
 617:../HostCommunication/src/EndpointRadarBase.c ****         {
 618:../HostCommunication/src/EndpointRadarBase.c ****             uint8_t temp_sensor;
 619:../HostCommunication/src/EndpointRadarBase.c **** 
 620:../HostCommunication/src/EndpointRadarBase.c ****             /* extract parameters from message */
 621:../HostCommunication/src/EndpointRadarBase.c ****             temp_sensor = rd_payload_u8(message_data, 1);
 622:../HostCommunication/src/EndpointRadarBase.c **** 
 623:../HostCommunication/src/EndpointRadarBase.c ****             /* send temperature value back to host */
 624:../HostCommunication/src/EndpointRadarBase.c ****             return send_temperature(endpoint, radar_driver, temp_sensor);
 625:../HostCommunication/src/EndpointRadarBase.c ****         }
 626:../HostCommunication/src/EndpointRadarBase.c ****         break;
 627:../HostCommunication/src/EndpointRadarBase.c **** 
 628:../HostCommunication/src/EndpointRadarBase.c ****     case MSG_GET_TX_POWER:
 629:../HostCommunication/src/EndpointRadarBase.c ****     if (num_bytes == 2)
 630:../HostCommunication/src/EndpointRadarBase.c ****         {
 631:../HostCommunication/src/EndpointRadarBase.c ****             uint8_t tx_antenna;
 632:../HostCommunication/src/EndpointRadarBase.c **** 
 633:../HostCommunication/src/EndpointRadarBase.c ****             /* extract parameters from message */
 634:../HostCommunication/src/EndpointRadarBase.c ****             tx_antenna = rd_payload_u8(message_data, 1);
 635:../HostCommunication/src/EndpointRadarBase.c **** 
 636:../HostCommunication/src/EndpointRadarBase.c ****             return send_tx_power(endpoint, radar_driver, tx_antenna);
 637:../HostCommunication/src/EndpointRadarBase.c ****         }
 638:../HostCommunication/src/EndpointRadarBase.c ****         break;
 639:../HostCommunication/src/EndpointRadarBase.c **** 
 640:../HostCommunication/src/EndpointRadarBase.c ****     case MSG_GET_CHRIP_DURATION:
 641:../HostCommunication/src/EndpointRadarBase.c ****     if (num_bytes == 1)
 642:../HostCommunication/src/EndpointRadarBase.c ****         {
 643:../HostCommunication/src/EndpointRadarBase.c ****             return send_chirp_duration(endpoint, radar_driver);
 644:../HostCommunication/src/EndpointRadarBase.c ****         }
 645:../HostCommunication/src/EndpointRadarBase.c ****         break;
 646:../HostCommunication/src/EndpointRadarBase.c **** 
 647:../HostCommunication/src/EndpointRadarBase.c ****     case MSG_GET_MIN_INTERVAL:
 648:../HostCommunication/src/EndpointRadarBase.c ****     if (num_bytes == 1)
 649:../HostCommunication/src/EndpointRadarBase.c ****         {
 650:../HostCommunication/src/EndpointRadarBase.c ****             return send_min_frame_interval(endpoint, radar_driver);
 651:../HostCommunication/src/EndpointRadarBase.c ****         }
 652:../HostCommunication/src/EndpointRadarBase.c ****         break;
 653:../HostCommunication/src/EndpointRadarBase.c **** 
 654:../HostCommunication/src/EndpointRadarBase.c ****     case MSG_GET_FRAME_FORMAT:
 655:../HostCommunication/src/EndpointRadarBase.c ****         if (num_bytes == 1)
 656:../HostCommunication/src/EndpointRadarBase.c ****         {
 657:../HostCommunication/src/EndpointRadarBase.c ****             return send_frame_format(endpoint, radar_driver);
 658:../HostCommunication/src/EndpointRadarBase.c ****         }
 659:../HostCommunication/src/EndpointRadarBase.c ****         break;
 660:../HostCommunication/src/EndpointRadarBase.c **** 
 661:../HostCommunication/src/EndpointRadarBase.c ****     case MSG_SET_FRAME_FORMAT:
 662:../HostCommunication/src/EndpointRadarBase.c ****         if (num_bytes == 11)
 663:../HostCommunication/src/EndpointRadarBase.c ****         {
 664:../HostCommunication/src/EndpointRadarBase.c ****             unsigned error_code;
 665:../HostCommunication/src/EndpointRadarBase.c ****             Frame_Format_t format;
 666:../HostCommunication/src/EndpointRadarBase.c **** 
 667:../HostCommunication/src/EndpointRadarBase.c ****             /* extract parameters from message */
 668:../HostCommunication/src/EndpointRadarBase.c ****             format.num_samples_per_chirp = rd_payload_u32(message_data,  1);
 669:../HostCommunication/src/EndpointRadarBase.c ****             format.num_chirps_per_frame  = rd_payload_u32(message_data,  5);
 670:../HostCommunication/src/EndpointRadarBase.c ****             format.rx_mask               = rd_payload_u8 (message_data,  9);
 671:../HostCommunication/src/EndpointRadarBase.c ****             format.signal_part           = rd_payload_u8 (message_data, 10);
 672:../HostCommunication/src/EndpointRadarBase.c **** 
 673:../HostCommunication/src/EndpointRadarBase.c ****             /* apply new frame format */
 674:../HostCommunication/src/EndpointRadarBase.c ****             error_code = radar_set_frame_format(radar_driver, &format);
 675:../HostCommunication/src/EndpointRadarBase.c **** 
 676:../HostCommunication/src/EndpointRadarBase.c ****             /* inform other endpoints of the change */
 677:../HostCommunication/src/EndpointRadarBase.c ****             protocol_broadcast_change(radar_driver,
 678:../HostCommunication/src/EndpointRadarBase.c ****                                       EP_RADAR_CHNG_FRAME_FORMAT);
 679:../HostCommunication/src/EndpointRadarBase.c **** 
 680:../HostCommunication/src/EndpointRadarBase.c ****             return error_code;
 681:../HostCommunication/src/EndpointRadarBase.c ****         }
 682:../HostCommunication/src/EndpointRadarBase.c ****         break;
 683:../HostCommunication/src/EndpointRadarBase.c ****     case MSG_GET_FFT_INFO:
 684:../HostCommunication/src/EndpointRadarBase.c **** 		if (num_bytes == 1)
 133              	 .loc 1 684 0
 134 009a 012D     	 cmp r5,#1
 135 009c 00F06682 	 beq .L87
 136              	.L68:
 685:../HostCommunication/src/EndpointRadarBase.c **** 		{
 686:../HostCommunication/src/EndpointRadarBase.c **** 			return send_fft_config(endpoint, radar_driver);
 687:../HostCommunication/src/EndpointRadarBase.c **** 		}
 688:../HostCommunication/src/EndpointRadarBase.c **** 		break;
 689:../HostCommunication/src/EndpointRadarBase.c **** 
 690:../HostCommunication/src/EndpointRadarBase.c ****     default:
 691:../HostCommunication/src/EndpointRadarBase.c ****         break;
 692:../HostCommunication/src/EndpointRadarBase.c ****     }
 693:../HostCommunication/src/EndpointRadarBase.c ****     return PROTOCOL_STATUS_INVALID_PAYLOAD;
 137              	 .loc 1 693 0
 138 00a0 4FF6FF74 	 movw r4,#65535
 139              	.LVL4:
 140              	.L2:
 694:../HostCommunication/src/EndpointRadarBase.c **** }
 141              	 .loc 1 694 0 discriminator 1
 142 00a4 2046     	 mov r0,r4
 143 00a6 1FB0     	 add sp,sp,#124
 144              	.LCFI2:
 145              	 .cfi_remember_state
 146              	 .cfi_def_cfa_offset 36
 147              	 
 148 00a8 BDE8F08F 	 pop {r4,r5,r6,r7,r8,r9,r10,fp,pc}
 149              	.LVL5:
 150              	.L3:
 151              	.LCFI3:
 152              	 .cfi_restore_state
 547:../HostCommunication/src/EndpointRadarBase.c ****         {
 153              	 .loc 1 547 0
 154 00ac 022D     	 cmp r5,#2
 155 00ae F7D1     	 bne .L68
 156              	.LVL6:
 157              	.LBB306:
 158              	.LBB307:
 159              	.LBB308:
 185:../HostCommunication/src/EndpointRadarBase.c **** 
 160              	 .loc 1 185 0
 161 00b0 4A78     	 ldrb r2,[r1,#1]
 162 00b2 1846     	 mov r0,r3
 163 00b4 17A9     	 add r1,sp,#92
 164              	.LVL7:
 165 00b6 FFF7FEFF 	 bl radar_get_frame
 166              	.LVL8:
 187:../HostCommunication/src/EndpointRadarBase.c ****     {
 167              	 .loc 1 187 0
 168 00ba 0B90     	 str r0,[sp,#44]
 169 00bc 0028     	 cmp r0,#0
 170 00be 40F0BE80 	 bne .L16
 171              	.LVL9:
 172              	.LBB309:
 201:../HostCommunication/src/EndpointRadarBase.c ****         {
 173              	 .loc 1 201 0
 174 00c2 9DF87540 	 ldrb r4,[sp,#117]
 175 00c6 0C2C     	 cmp r4,#12
 176 00c8 00F01483 	 beq .L88
 177 00cc A946     	 mov r9,r5
 199:../HostCommunication/src/EndpointRadarBase.c **** 
 178              	 .loc 1 199 0
 179 00ce 2946     	 mov r1,r5
 180 00d0 9DF874C0 	 ldrb ip,[sp,#116]
 197:../HostCommunication/src/EndpointRadarBase.c **** 
 181              	 .loc 1 197 0
 182 00d4 0B9D     	 ldr r5,[sp,#44]
 183 00d6 1B9B     	 ldr r3,[sp,#108]
 184 00d8 199A     	 ldr r2,[sp,#100]
 185 00da 9DF877E0 	 ldrb lr,[sp,#119]
 186              	.LVL10:
 187              	.L17:
 188              	.LBB310:
 189              	.LBB311:
 190              	 .file 2 "../HostCommunication/src/PayloadHelper.h"
   1:../HostCommunication/src/PayloadHelper.h **** /**
   2:../HostCommunication/src/PayloadHelper.h ****  * \file PayloadHelper.h
   3:../HostCommunication/src/PayloadHelper.h ****  *
   4:../HostCommunication/src/PayloadHelper.h ****  * \brief This file defines an internal protocol API to be used by endpoint
   5:../HostCommunication/src/PayloadHelper.h ****  *        implementations.
   6:../HostCommunication/src/PayloadHelper.h ****  *
   7:../HostCommunication/src/PayloadHelper.h ****  * This file defines some light weight function that help to access data in
   8:../HostCommunication/src/PayloadHelper.h ****  * protocol payload. Different implementation allow to adapt to the
   9:../HostCommunication/src/PayloadHelper.h ****  * capabilities of the target machine. Special implementations can be chosen
  10:../HostCommunication/src/PayloadHelper.h ****  * by defining the according compile time switch. If none of the available
  11:../HostCommunication/src/PayloadHelper.h ****  * compile time switches is chosen, the default implementation will be used.
  12:../HostCommunication/src/PayloadHelper.h ****  *
  13:../HostCommunication/src/PayloadHelper.h ****  * The default implementation is safe on all target machines and can handle
  14:../HostCommunication/src/PayloadHelper.h ****  * both, big endian CPUs and little endian CPUs. It may be slower than other
  15:../HostCommunication/src/PayloadHelper.h ****  * special implementations.
  16:../HostCommunication/src/PayloadHelper.h ****  *
  17:../HostCommunication/src/PayloadHelper.h ****  * If the compile time switch COMLIB_ALLOW_PAYLOAD_CASTS is set, a special
  18:../HostCommunication/src/PayloadHelper.h ****  * implementation for little endian machines is used, that can access data
  19:../HostCommunication/src/PayloadHelper.h ****  * faster by casting data to the right data type. This implementation works
  20:../HostCommunication/src/PayloadHelper.h ****  * only for CPUs that have no alignment requirement for 16 bit and 32 bit
  21:../HostCommunication/src/PayloadHelper.h ****  * integers.
  22:../HostCommunication/src/PayloadHelper.h ****  */
  23:../HostCommunication/src/PayloadHelper.h **** 
  24:../HostCommunication/src/PayloadHelper.h **** /* ===========================================================================
  25:../HostCommunication/src/PayloadHelper.h **** ** Copyright (C) 2016-2018 Infineon Technologies AG
  26:../HostCommunication/src/PayloadHelper.h **** ** All rights reserved.
  27:../HostCommunication/src/PayloadHelper.h **** ** ===========================================================================
  28:../HostCommunication/src/PayloadHelper.h **** **
  29:../HostCommunication/src/PayloadHelper.h **** ** ===========================================================================
  30:../HostCommunication/src/PayloadHelper.h **** ** This document contains proprietary information of Infineon Technologies AG.
  31:../HostCommunication/src/PayloadHelper.h **** ** Passing on and copying of this document, and communication of its contents
  32:../HostCommunication/src/PayloadHelper.h **** ** is not permitted without Infineon's prior written authorisation.
  33:../HostCommunication/src/PayloadHelper.h **** ** ===========================================================================
  34:../HostCommunication/src/PayloadHelper.h **** */
  35:../HostCommunication/src/PayloadHelper.h **** 
  36:../HostCommunication/src/PayloadHelper.h **** #ifndef HOSTCOMMUNICATION_PAYLOAD_HELPER_H_
  37:../HostCommunication/src/PayloadHelper.h **** #define HOSTCOMMUNICATION_PAYLOAD_HELPER_H_
  38:../HostCommunication/src/PayloadHelper.h **** 
  39:../HostCommunication/src/PayloadHelper.h **** /*
  40:../HostCommunication/src/PayloadHelper.h **** ==============================================================================
  41:../HostCommunication/src/PayloadHelper.h ****    1. INCLUDE FILES
  42:../HostCommunication/src/PayloadHelper.h **** ==============================================================================
  43:../HostCommunication/src/PayloadHelper.h **** */
  44:../HostCommunication/src/PayloadHelper.h **** #include <stdint.h>
  45:../HostCommunication/src/PayloadHelper.h **** 
  46:../HostCommunication/src/PayloadHelper.h **** /*
  47:../HostCommunication/src/PayloadHelper.h **** ==============================================================================
  48:../HostCommunication/src/PayloadHelper.h ****    2. FUNCTION PROTOTYPES AND INLINE FUNCTIONS
  49:../HostCommunication/src/PayloadHelper.h **** ==============================================================================
  50:../HostCommunication/src/PayloadHelper.h **** */
  51:../HostCommunication/src/PayloadHelper.h **** 
  52:../HostCommunication/src/PayloadHelper.h **** /**
  53:../HostCommunication/src/PayloadHelper.h ****  * \internal
  54:../HostCommunication/src/PayloadHelper.h ****  * \brief The function extracts a signed 8 bit integer from a payload buffer.
  55:../HostCommunication/src/PayloadHelper.h ****  *
  56:../HostCommunication/src/PayloadHelper.h ****  * The function reads one byte from the given payload buffer at the requested
  57:../HostCommunication/src/PayloadHelper.h ****  * position and interprets it as a signed 8 bit integer value, which will be
  58:../HostCommunication/src/PayloadHelper.h ****  * returned.
  59:../HostCommunication/src/PayloadHelper.h ****  *
  60:../HostCommunication/src/PayloadHelper.h ****  * \param[in] payload  A pointer to a block of payload data.
  61:../HostCommunication/src/PayloadHelper.h ****  * \param[in] offset   The byte position at which the requested data value
  62:../HostCommunication/src/PayloadHelper.h ****  *                     starts.
  63:../HostCommunication/src/PayloadHelper.h ****  *
  64:../HostCommunication/src/PayloadHelper.h ****  * \return The function returns the value read from the payload.
  65:../HostCommunication/src/PayloadHelper.h ****  */
  66:../HostCommunication/src/PayloadHelper.h **** static inline int8_t rd_payload_i8(const uint8_t* payload, uint16_t offset)
  67:../HostCommunication/src/PayloadHelper.h **** {
  68:../HostCommunication/src/PayloadHelper.h ****     return (int8_t)payload[offset];
  69:../HostCommunication/src/PayloadHelper.h **** }
  70:../HostCommunication/src/PayloadHelper.h **** 
  71:../HostCommunication/src/PayloadHelper.h **** /**
  72:../HostCommunication/src/PayloadHelper.h ****  * \internal
  73:../HostCommunication/src/PayloadHelper.h ****  * \brief The function extracts an unsigned 8 bit integer from a payload
  74:../HostCommunication/src/PayloadHelper.h ****  *        buffer.
  75:../HostCommunication/src/PayloadHelper.h ****  *
  76:../HostCommunication/src/PayloadHelper.h ****  * The function reads one byte from the given payload buffer at the requested
  77:../HostCommunication/src/PayloadHelper.h ****  * position and interprets it as an unsigned 8 bit integer value, which will
  78:../HostCommunication/src/PayloadHelper.h ****  * be returned.
  79:../HostCommunication/src/PayloadHelper.h ****  *
  80:../HostCommunication/src/PayloadHelper.h ****  * \param[in] payload  A pointer to a block of payload data.
  81:../HostCommunication/src/PayloadHelper.h ****  * \param[in] offset   The byte position at which the requested data value
  82:../HostCommunication/src/PayloadHelper.h ****  *                     starts.
  83:../HostCommunication/src/PayloadHelper.h ****  *
  84:../HostCommunication/src/PayloadHelper.h ****  * \return The function returns the value read from the payload.
  85:../HostCommunication/src/PayloadHelper.h ****  */
  86:../HostCommunication/src/PayloadHelper.h **** static inline uint8_t rd_payload_u8(const uint8_t* payload, uint16_t offset)
  87:../HostCommunication/src/PayloadHelper.h **** {
  88:../HostCommunication/src/PayloadHelper.h ****     return payload[offset];
  89:../HostCommunication/src/PayloadHelper.h **** }
  90:../HostCommunication/src/PayloadHelper.h **** 
  91:../HostCommunication/src/PayloadHelper.h **** /**
  92:../HostCommunication/src/PayloadHelper.h ****  * \internal
  93:../HostCommunication/src/PayloadHelper.h ****  * \brief The function extracts a signed 16 bit integer from a payload buffer.
  94:../HostCommunication/src/PayloadHelper.h ****  *
  95:../HostCommunication/src/PayloadHelper.h ****  * The function reads two bytes from the given payload buffer starting at the
  96:../HostCommunication/src/PayloadHelper.h ****  * requested position and interprets them as a signed 16 bit integer value,
  97:../HostCommunication/src/PayloadHelper.h ****  * which will be returned. If needed the byte order is swapped to convert from
  98:../HostCommunication/src/PayloadHelper.h ****  * the payload's little endian format to the CPU's endian format.
  99:../HostCommunication/src/PayloadHelper.h ****  *
 100:../HostCommunication/src/PayloadHelper.h ****  * \param[in] payload  A pointer to a block of payload data.
 101:../HostCommunication/src/PayloadHelper.h ****  * \param[in] offset   The byte position at which the requested data value
 102:../HostCommunication/src/PayloadHelper.h ****  *                     starts.
 103:../HostCommunication/src/PayloadHelper.h ****  *
 104:../HostCommunication/src/PayloadHelper.h ****  * \return The function returns the value read from the payload.
 105:../HostCommunication/src/PayloadHelper.h ****  */
 106:../HostCommunication/src/PayloadHelper.h **** static inline int16_t rd_payload_i16(const uint8_t* payload, uint16_t offset);
 107:../HostCommunication/src/PayloadHelper.h **** 
 108:../HostCommunication/src/PayloadHelper.h **** /**
 109:../HostCommunication/src/PayloadHelper.h ****  * \internal
 110:../HostCommunication/src/PayloadHelper.h ****  * \brief The function extracts an unsigned 16 bit integer from a payload
 111:../HostCommunication/src/PayloadHelper.h ****  *        buffer.
 112:../HostCommunication/src/PayloadHelper.h ****  *
 113:../HostCommunication/src/PayloadHelper.h ****  * The function reads two bytes from the given payload buffer starting at the
 114:../HostCommunication/src/PayloadHelper.h ****  * requested position and interprets them as an unsigned 16 bit integer value,
 115:../HostCommunication/src/PayloadHelper.h ****  * which will be returned. If needed the byte order is swapped to convert from
 116:../HostCommunication/src/PayloadHelper.h ****  * the payload's little endian format to the CPU's endian format.
 117:../HostCommunication/src/PayloadHelper.h ****  *
 118:../HostCommunication/src/PayloadHelper.h ****  * \param[in] payload  A pointer to a block of payload data.
 119:../HostCommunication/src/PayloadHelper.h ****  * \param[in] offset   The byte position at which the requested data value
 120:../HostCommunication/src/PayloadHelper.h ****  *                     starts.
 121:../HostCommunication/src/PayloadHelper.h ****  *
 122:../HostCommunication/src/PayloadHelper.h ****  * \return The function returns the value read from the payload.
 123:../HostCommunication/src/PayloadHelper.h ****  */
 124:../HostCommunication/src/PayloadHelper.h **** static inline uint16_t rd_payload_u16(const uint8_t* payload,
 125:../HostCommunication/src/PayloadHelper.h ****                                       uint16_t offset);
 126:../HostCommunication/src/PayloadHelper.h **** 
 127:../HostCommunication/src/PayloadHelper.h **** /**
 128:../HostCommunication/src/PayloadHelper.h ****  * \internal
 129:../HostCommunication/src/PayloadHelper.h ****  * \brief The function extracts a signed 32 bit integer from a payload buffer.
 130:../HostCommunication/src/PayloadHelper.h ****  *
 131:../HostCommunication/src/PayloadHelper.h ****  * The function reads four bytes from the given payload buffer starting at the
 132:../HostCommunication/src/PayloadHelper.h ****  * requested position and interprets them as a signed 32 bit integer value,
 133:../HostCommunication/src/PayloadHelper.h ****  * which will be returned. If needed the byte order is swapped to convert from
 134:../HostCommunication/src/PayloadHelper.h ****  * the payload's little endian format to the CPU's endian format.
 135:../HostCommunication/src/PayloadHelper.h ****  *
 136:../HostCommunication/src/PayloadHelper.h ****  * \param[in] payload  A pointer to a block of payload data.
 137:../HostCommunication/src/PayloadHelper.h ****  * \param[in] offset   The byte position at which the requested data value
 138:../HostCommunication/src/PayloadHelper.h ****  *                     starts.
 139:../HostCommunication/src/PayloadHelper.h ****  *
 140:../HostCommunication/src/PayloadHelper.h ****  * \return The function returns the value read from the payload.
 141:../HostCommunication/src/PayloadHelper.h ****  */
 142:../HostCommunication/src/PayloadHelper.h **** static inline int32_t rd_payload_i32(const uint8_t* payload, uint16_t offset);
 143:../HostCommunication/src/PayloadHelper.h **** 
 144:../HostCommunication/src/PayloadHelper.h **** /**
 145:../HostCommunication/src/PayloadHelper.h ****  * \internal
 146:../HostCommunication/src/PayloadHelper.h ****  * \brief The function extracts an unsigned 32 bit integer from a payload
 147:../HostCommunication/src/PayloadHelper.h ****  *        buffer.
 148:../HostCommunication/src/PayloadHelper.h ****  *
 149:../HostCommunication/src/PayloadHelper.h ****  * The function reads four bytes from the given payload buffer starting at the
 150:../HostCommunication/src/PayloadHelper.h ****  * requested position and interprets them as an unsigned 32 bit integer value,
 151:../HostCommunication/src/PayloadHelper.h ****  * which will be returned. If needed the byte order is swapped to convert from
 152:../HostCommunication/src/PayloadHelper.h ****  * the payload's little endian format to the CPU's endian format.
 153:../HostCommunication/src/PayloadHelper.h ****  *
 154:../HostCommunication/src/PayloadHelper.h ****  * \param[in] payload  A pointer to a block of payload data.
 155:../HostCommunication/src/PayloadHelper.h ****  * \param[in] offset   The byte position at which the requested data value
 156:../HostCommunication/src/PayloadHelper.h ****  *                     starts.
 157:../HostCommunication/src/PayloadHelper.h ****  *
 158:../HostCommunication/src/PayloadHelper.h ****  * \return The function returns the value read from the payload.
 159:../HostCommunication/src/PayloadHelper.h ****  */
 160:../HostCommunication/src/PayloadHelper.h **** static inline uint32_t rd_payload_u32(const uint8_t* payload,
 161:../HostCommunication/src/PayloadHelper.h ****                                       uint16_t offset);
 162:../HostCommunication/src/PayloadHelper.h **** 
 163:../HostCommunication/src/PayloadHelper.h **** /**
 164:../HostCommunication/src/PayloadHelper.h ****  * \internal
 165:../HostCommunication/src/PayloadHelper.h ****  * \brief The function extracts a signed 64 bit integer from a payload buffer.
 166:../HostCommunication/src/PayloadHelper.h ****  *
 167:../HostCommunication/src/PayloadHelper.h ****  * The function reads four bytes from the given payload buffer starting at the
 168:../HostCommunication/src/PayloadHelper.h ****  * requested position and interprets them as a signed 64 bit integer value,
 169:../HostCommunication/src/PayloadHelper.h ****  * which will be returned. If needed the byte order is swapped to convert from
 170:../HostCommunication/src/PayloadHelper.h ****  * the payload's little endian format to the CPU's endian format.
 171:../HostCommunication/src/PayloadHelper.h ****  *
 172:../HostCommunication/src/PayloadHelper.h ****  * \param[in] payload  A pointer to a block of payload data.
 173:../HostCommunication/src/PayloadHelper.h ****  * \param[in] offset   The byte position at which the requested data value
 174:../HostCommunication/src/PayloadHelper.h ****  *                     starts.
 175:../HostCommunication/src/PayloadHelper.h ****  *
 176:../HostCommunication/src/PayloadHelper.h ****  * \return The function returns the value read from the payload.
 177:../HostCommunication/src/PayloadHelper.h ****  */
 178:../HostCommunication/src/PayloadHelper.h **** static inline int64_t rd_payload_i64(const uint8_t* payload, uint16_t offset);
 179:../HostCommunication/src/PayloadHelper.h **** 
 180:../HostCommunication/src/PayloadHelper.h **** /**
 181:../HostCommunication/src/PayloadHelper.h ****  * \internal
 182:../HostCommunication/src/PayloadHelper.h ****  * \brief The function extracts an unsigned 64 bit integer from a payload
 183:../HostCommunication/src/PayloadHelper.h ****  *        buffer.
 184:../HostCommunication/src/PayloadHelper.h ****  *
 185:../HostCommunication/src/PayloadHelper.h ****  * The function reads four bytes from the given payload buffer starting at the
 186:../HostCommunication/src/PayloadHelper.h ****  * requested position and interprets them as an unsigned 64 bit integer value,
 187:../HostCommunication/src/PayloadHelper.h ****  * which will be returned. If needed the byte order is swapped to convert from
 188:../HostCommunication/src/PayloadHelper.h ****  * the payload's little endian format to the CPU's endian format.
 189:../HostCommunication/src/PayloadHelper.h ****  *
 190:../HostCommunication/src/PayloadHelper.h ****  * \param[in] payload  A pointer to a block of payload data.
 191:../HostCommunication/src/PayloadHelper.h ****  * \param[in] offset   The byte position at which the requested data value
 192:../HostCommunication/src/PayloadHelper.h ****  *                     starts.
 193:../HostCommunication/src/PayloadHelper.h ****  *
 194:../HostCommunication/src/PayloadHelper.h ****  * \return The function returns the value read from the payload.
 195:../HostCommunication/src/PayloadHelper.h ****  */
 196:../HostCommunication/src/PayloadHelper.h **** static inline uint64_t rd_payload_u64(const uint8_t* payload,
 197:../HostCommunication/src/PayloadHelper.h ****                                       uint16_t offset);
 198:../HostCommunication/src/PayloadHelper.h **** 
 199:../HostCommunication/src/PayloadHelper.h **** /**
 200:../HostCommunication/src/PayloadHelper.h ****  * \internal
 201:../HostCommunication/src/PayloadHelper.h ****  * \brief The function writes a signed 8 bit integer value to a payload
 202:../HostCommunication/src/PayloadHelper.h ****  *        buffer.
 203:../HostCommunication/src/PayloadHelper.h ****  *
 204:../HostCommunication/src/PayloadHelper.h ****  * The function writes the given value into the given payload buffer at the
 205:../HostCommunication/src/PayloadHelper.h ****  * requested position.
 206:../HostCommunication/src/PayloadHelper.h ****  *
 207:../HostCommunication/src/PayloadHelper.h ****  * \param[in] payload  A pointer to a block of payload data.
 208:../HostCommunication/src/PayloadHelper.h ****  * \param[in] offset   The byte position at which the value will be written
 209:../HostCommunication/src/PayloadHelper.h ****  *                     to.
 210:../HostCommunication/src/PayloadHelper.h ****  * \param[in] value    The value to be written into the payload buffer.
 211:../HostCommunication/src/PayloadHelper.h ****  */
 212:../HostCommunication/src/PayloadHelper.h **** static inline void wr_payload_i8(uint8_t* payload, uint16_t offset,
 213:../HostCommunication/src/PayloadHelper.h ****                                  int8_t value)
 214:../HostCommunication/src/PayloadHelper.h **** {
 215:../HostCommunication/src/PayloadHelper.h ****     payload[offset] = (uint8_t)value;
 216:../HostCommunication/src/PayloadHelper.h **** }
 217:../HostCommunication/src/PayloadHelper.h **** 
 218:../HostCommunication/src/PayloadHelper.h **** /**
 219:../HostCommunication/src/PayloadHelper.h ****  * \internal
 220:../HostCommunication/src/PayloadHelper.h ****  * \brief The function writes an unsigned 8 bit integer value to a payload
 221:../HostCommunication/src/PayloadHelper.h ****  *        buffer.
 222:../HostCommunication/src/PayloadHelper.h ****  *
 223:../HostCommunication/src/PayloadHelper.h ****  * The function writes the given value into the given payload buffer at the
 224:../HostCommunication/src/PayloadHelper.h ****  * requested position.
 225:../HostCommunication/src/PayloadHelper.h ****  *
 226:../HostCommunication/src/PayloadHelper.h ****  * \param[in] payload  A pointer to a block of payload data.
 227:../HostCommunication/src/PayloadHelper.h ****  * \param[in] offset   The byte position at which the value will be written
 228:../HostCommunication/src/PayloadHelper.h ****  *                     to.
 229:../HostCommunication/src/PayloadHelper.h ****  * \param[in] value    The value to be written into the payload buffer.
 230:../HostCommunication/src/PayloadHelper.h ****  */
 231:../HostCommunication/src/PayloadHelper.h **** static inline void wr_payload_u8(uint8_t* payload, uint16_t offset,
 232:../HostCommunication/src/PayloadHelper.h ****                                  uint8_t value)
 233:../HostCommunication/src/PayloadHelper.h **** {
 234:../HostCommunication/src/PayloadHelper.h ****     payload[offset] = value;
 191              	 .loc 2 234 0
 192 00de 8DF85190 	 strb r9,[sp,#81]
 193              	.LBE311:
 194              	.LBE310:
 235:../HostCommunication/src/EndpointRadarBase.c ****                       (frame_info.data_format == RADAR_RX_DATA_REAL ? 1 : 2);
 195              	 .loc 1 235 0
 196 00e2 BEF1000F 	 cmp lr,#0
 233:../HostCommunication/src/EndpointRadarBase.c ****                       frame_info.num_samples_per_chirp *
 197              	 .loc 1 233 0
 198 00e6 02FB03F6 	 mul r6,r2,r3
 235:../HostCommunication/src/EndpointRadarBase.c ****                       (frame_info.data_format == RADAR_RX_DATA_REAL ? 1 : 2);
 199              	 .loc 1 235 0
 200 00ea 0CBF     	 ite eq
 201 00ec 0120     	 moveq r0,#1
 202              	.LVL11:
 203 00ee 0220     	 movne r0,#2
 234:../HostCommunication/src/EndpointRadarBase.c ****                       num_used_ant *
 204              	 .loc 1 234 0
 205 00f0 01FB06F1 	 mul r1,r1,r6
 206              	.LVL12:
 233:../HostCommunication/src/EndpointRadarBase.c ****                       frame_info.num_samples_per_chirp *
 207              	 .loc 1 233 0
 208 00f4 00FB01F6 	 mul r6,r0,r1
 238:../HostCommunication/src/EndpointRadarBase.c ****         data_size = (data_size >> 3) + ((data_size & 0x07) ? 1 : 0);
 209              	 .loc 1 238 0
 210 00f8 04FB06F0 	 mul r0,r4,r6
 239:../HostCommunication/src/EndpointRadarBase.c **** 
 211              	 .loc 1 239 0
 212 00fc 10F00701 	 ands r1,r0,#7
 213 0100 18BF     	 it ne
 214 0102 0121     	 movne r1,#1
 215 0104 01EBD001 	 add r1,r1,r0,lsr#3
 221:../HostCommunication/src/EndpointRadarBase.c ****         wr_payload_u32(message_header,  5, frame_info.num_chirps);
 216              	 .loc 1 221 0
 217 0108 1898     	 ldr r0,[sp,#96]
 218              	.LVL13:
 219              	.LBB312:
 220              	.LBB313:
 221              	 .loc 2 234 0
 222 010a 8DF856C0 	 strb ip,[sp,#86]
 223              	.LBE313:
 224              	.LBE312:
 242:../HostCommunication/src/EndpointRadarBase.c ****         protocol_send_payload(message_header, sizeof(message_header));
 225              	 .loc 1 242 0
 226 010e 89B2     	 uxth r1,r1
 227              	.LBB314:
 228              	.LBB315:
 235:../HostCommunication/src/PayloadHelper.h **** }
 236:../HostCommunication/src/PayloadHelper.h **** 
 237:../HostCommunication/src/PayloadHelper.h **** /**
 238:../HostCommunication/src/PayloadHelper.h ****  * \internal
 239:../HostCommunication/src/PayloadHelper.h ****  * \brief The function writes a signed 16 bit integer value to a payload
 240:../HostCommunication/src/PayloadHelper.h ****  *        buffer.
 241:../HostCommunication/src/PayloadHelper.h ****  *
 242:../HostCommunication/src/PayloadHelper.h ****  * The function writes the given value into the given payload buffer at the
 243:../HostCommunication/src/PayloadHelper.h ****  * requested position. If needed the byte order is swapped to convert from the
 244:../HostCommunication/src/PayloadHelper.h ****  * payload's little endian format to the CPU's endian format.
 245:../HostCommunication/src/PayloadHelper.h ****  *
 246:../HostCommunication/src/PayloadHelper.h ****  * \param[in] payload  A pointer to a block of payload data.
 247:../HostCommunication/src/PayloadHelper.h ****  * \param[in] offset   The byte position at which the value will be written
 248:../HostCommunication/src/PayloadHelper.h ****  *                     to.
 249:../HostCommunication/src/PayloadHelper.h ****  * \param[in] value    The value to be written into the payload buffer.
 250:../HostCommunication/src/PayloadHelper.h ****  */
 251:../HostCommunication/src/PayloadHelper.h **** static inline void wr_payload_i16(uint8_t* payload, uint16_t offset,
 252:../HostCommunication/src/PayloadHelper.h ****                                   int16_t value);
 253:../HostCommunication/src/PayloadHelper.h **** 
 254:../HostCommunication/src/PayloadHelper.h **** /**
 255:../HostCommunication/src/PayloadHelper.h ****  * \internal
 256:../HostCommunication/src/PayloadHelper.h ****  * \brief The function writes an unsigned 16 bit integer value to a payload
 257:../HostCommunication/src/PayloadHelper.h ****  *        buffer.
 258:../HostCommunication/src/PayloadHelper.h ****  *
 259:../HostCommunication/src/PayloadHelper.h ****  * The function writes the given value into the given payload buffer at the
 260:../HostCommunication/src/PayloadHelper.h ****  * requested position. If needed the byte order is swapped to convert from the
 261:../HostCommunication/src/PayloadHelper.h ****  * payload's little endian format to the CPU's endian format.
 262:../HostCommunication/src/PayloadHelper.h ****  *
 263:../HostCommunication/src/PayloadHelper.h ****  * \param[in] payload  A pointer to a block of payload data.
 264:../HostCommunication/src/PayloadHelper.h ****  * \param[in] offset   The byte position at which the value will be written
 265:../HostCommunication/src/PayloadHelper.h ****  *                     to.
 266:../HostCommunication/src/PayloadHelper.h ****  * \param[in] value    The value to be written into the payload buffer.
 267:../HostCommunication/src/PayloadHelper.h ****  */
 268:../HostCommunication/src/PayloadHelper.h **** static inline void wr_payload_u16(uint8_t* payload, uint16_t offset,
 269:../HostCommunication/src/PayloadHelper.h ****                                   uint16_t value);
 270:../HostCommunication/src/PayloadHelper.h **** 
 271:../HostCommunication/src/PayloadHelper.h **** /**
 272:../HostCommunication/src/PayloadHelper.h ****  * \internal
 273:../HostCommunication/src/PayloadHelper.h ****  * \brief The function writes a signed 32 bit integer value to a payload
 274:../HostCommunication/src/PayloadHelper.h ****  *        buffer.
 275:../HostCommunication/src/PayloadHelper.h ****  *
 276:../HostCommunication/src/PayloadHelper.h ****  * The function writes the given value into the given payload buffer at the
 277:../HostCommunication/src/PayloadHelper.h ****  * requested position. If needed the byte order is swapped to convert from the
 278:../HostCommunication/src/PayloadHelper.h ****  * payload's little endian format to the CPU's endian format.
 279:../HostCommunication/src/PayloadHelper.h ****  *
 280:../HostCommunication/src/PayloadHelper.h ****  * \param[in] payload  A pointer to a block of payload data.
 281:../HostCommunication/src/PayloadHelper.h ****  * \param[in] offset   The byte position at which the value will be written
 282:../HostCommunication/src/PayloadHelper.h ****  *                     to.
 283:../HostCommunication/src/PayloadHelper.h ****  * \param[in] value    The value to be written into the payload buffer.
 284:../HostCommunication/src/PayloadHelper.h ****  */
 285:../HostCommunication/src/PayloadHelper.h **** static inline void wr_payload_i32(uint8_t* payload, uint16_t offset,
 286:../HostCommunication/src/PayloadHelper.h ****                                   int32_t value);
 287:../HostCommunication/src/PayloadHelper.h **** 
 288:../HostCommunication/src/PayloadHelper.h **** /**
 289:../HostCommunication/src/PayloadHelper.h ****  * \internal
 290:../HostCommunication/src/PayloadHelper.h ****  * \brief The function writes an unsigned 32 bit integer value to a payload
 291:../HostCommunication/src/PayloadHelper.h ****  *        buffer.
 292:../HostCommunication/src/PayloadHelper.h ****  *
 293:../HostCommunication/src/PayloadHelper.h ****  * The function writes the given value into the given payload buffer at the
 294:../HostCommunication/src/PayloadHelper.h ****  * requested position. If needed the byte order is swapped to convert from the
 295:../HostCommunication/src/PayloadHelper.h ****  * payload's little endian format to the CPU's endian format.
 296:../HostCommunication/src/PayloadHelper.h ****  *
 297:../HostCommunication/src/PayloadHelper.h ****  * \param[in] payload  A pointer to a block of payload data.
 298:../HostCommunication/src/PayloadHelper.h ****  * \param[in] offset   The byte position at which the value will be written
 299:../HostCommunication/src/PayloadHelper.h ****  *                     to.
 300:../HostCommunication/src/PayloadHelper.h ****  * \param[in] value    The value to be written into the payload buffer.
 301:../HostCommunication/src/PayloadHelper.h ****  */
 302:../HostCommunication/src/PayloadHelper.h **** static inline void wr_payload_u32(uint8_t* payload, uint16_t offset,
 303:../HostCommunication/src/PayloadHelper.h ****                                   uint32_t value);
 304:../HostCommunication/src/PayloadHelper.h **** 
 305:../HostCommunication/src/PayloadHelper.h **** /**
 306:../HostCommunication/src/PayloadHelper.h ****  * \internal
 307:../HostCommunication/src/PayloadHelper.h ****  * \brief The function writes a signed 64 bit integer value to a payload
 308:../HostCommunication/src/PayloadHelper.h ****  *        buffer.
 309:../HostCommunication/src/PayloadHelper.h ****  *
 310:../HostCommunication/src/PayloadHelper.h ****  * The function writes the given value into the given payload buffer at the
 311:../HostCommunication/src/PayloadHelper.h ****  * requested position. If needed the byte order is swapped to convert from the
 312:../HostCommunication/src/PayloadHelper.h ****  * payload's little endian format to the CPU's endian format.
 313:../HostCommunication/src/PayloadHelper.h ****  *
 314:../HostCommunication/src/PayloadHelper.h ****  * \param[in] payload  A pointer to a block of payload data.
 315:../HostCommunication/src/PayloadHelper.h ****  * \param[in] offset   The byte position at which the value will be written
 316:../HostCommunication/src/PayloadHelper.h ****  *                     to.
 317:../HostCommunication/src/PayloadHelper.h ****  * \param[in] value    The value to be written into the payload buffer.
 318:../HostCommunication/src/PayloadHelper.h ****  */
 319:../HostCommunication/src/PayloadHelper.h **** static inline void wr_payload_i64(uint8_t* payload, uint16_t offset,
 320:../HostCommunication/src/PayloadHelper.h ****                                   int64_t value);
 321:../HostCommunication/src/PayloadHelper.h **** 
 322:../HostCommunication/src/PayloadHelper.h **** /**
 323:../HostCommunication/src/PayloadHelper.h ****  * \internal
 324:../HostCommunication/src/PayloadHelper.h ****  * \brief The function writes an unsigned 64 bit integer value to a payload
 325:../HostCommunication/src/PayloadHelper.h ****  *        buffer.
 326:../HostCommunication/src/PayloadHelper.h ****  *
 327:../HostCommunication/src/PayloadHelper.h ****  * The function writes the given value into the given payload buffer at the
 328:../HostCommunication/src/PayloadHelper.h ****  * requested position. If needed the byte order is swapped to convert from the
 329:../HostCommunication/src/PayloadHelper.h ****  * payload's little endian format to the CPU's endian format.
 330:../HostCommunication/src/PayloadHelper.h ****  *
 331:../HostCommunication/src/PayloadHelper.h ****  * \param[in] payload  A pointer to a block of payload data.
 332:../HostCommunication/src/PayloadHelper.h ****  * \param[in] offset   The byte position at which the value will be written
 333:../HostCommunication/src/PayloadHelper.h ****  *                     to.
 334:../HostCommunication/src/PayloadHelper.h ****  * \param[in] value    The value to be written into the payload buffer.
 335:../HostCommunication/src/PayloadHelper.h ****  */
 336:../HostCommunication/src/PayloadHelper.h **** static inline void wr_payload_u64(uint8_t* payload, uint16_t offset,
 337:../HostCommunication/src/PayloadHelper.h ****                                   uint64_t value);
 338:../HostCommunication/src/PayloadHelper.h **** /*
 339:../HostCommunication/src/PayloadHelper.h **** ==============================================================================
 340:../HostCommunication/src/PayloadHelper.h ****    3. INLINE FUNCTIONS
 341:../HostCommunication/src/PayloadHelper.h **** ==============================================================================
 342:../HostCommunication/src/PayloadHelper.h **** */
 343:../HostCommunication/src/PayloadHelper.h **** #ifdef COMLIB_ALLOW_PAYLOAD_CASTS
 344:../HostCommunication/src/PayloadHelper.h **** /*
 345:../HostCommunication/src/PayloadHelper.h ****  * The following function implementations wan only be used on machines with
 346:../HostCommunication/src/PayloadHelper.h ****  * little endian CPUs, but are faster than the generic implementations.
 347:../HostCommunication/src/PayloadHelper.h ****  */
 348:../HostCommunication/src/PayloadHelper.h **** 
 349:../HostCommunication/src/PayloadHelper.h **** static inline int16_t rd_payload_i16(const uint8_t* payload, uint16_t offset)
 350:../HostCommunication/src/PayloadHelper.h **** {
 351:../HostCommunication/src/PayloadHelper.h ****     return *(int16_t*)(payload + offset);
 352:../HostCommunication/src/PayloadHelper.h **** }
 353:../HostCommunication/src/PayloadHelper.h **** 
 354:../HostCommunication/src/PayloadHelper.h **** static inline uint16_t rd_payload_u16(const uint8_t* payload, uint16_t offset)
 355:../HostCommunication/src/PayloadHelper.h **** {
 356:../HostCommunication/src/PayloadHelper.h ****     return *(uint16_t*)(payload + offset);
 357:../HostCommunication/src/PayloadHelper.h **** }
 358:../HostCommunication/src/PayloadHelper.h **** 
 359:../HostCommunication/src/PayloadHelper.h **** static inline int32_t rd_payload_i32(const uint8_t* payload, uint16_t offset)
 360:../HostCommunication/src/PayloadHelper.h **** {
 361:../HostCommunication/src/PayloadHelper.h ****     return *(int32_t*)(payload + offset);
 362:../HostCommunication/src/PayloadHelper.h **** }
 363:../HostCommunication/src/PayloadHelper.h **** 
 364:../HostCommunication/src/PayloadHelper.h **** static inline uint32_t rd_payload_u32(const uint8_t* payload, uint16_t offset)
 365:../HostCommunication/src/PayloadHelper.h **** {
 366:../HostCommunication/src/PayloadHelper.h ****     return *(uint32_t*)(payload + offset);
 367:../HostCommunication/src/PayloadHelper.h **** }
 368:../HostCommunication/src/PayloadHelper.h **** 
 369:../HostCommunication/src/PayloadHelper.h **** static inline int64_t rd_payload_i64(const uint8_t* payload, uint16_t offset)
 370:../HostCommunication/src/PayloadHelper.h **** {
 371:../HostCommunication/src/PayloadHelper.h ****     union
 372:../HostCommunication/src/PayloadHelper.h ****     {
 373:../HostCommunication/src/PayloadHelper.h ****         uint32_t u32[2];
 374:../HostCommunication/src/PayloadHelper.h ****         int64_t i64;
 375:../HostCommunication/src/PayloadHelper.h ****     } value;
 376:../HostCommunication/src/PayloadHelper.h ****     value.u32[0] = *(uint32_t*)(payload + offset);
 377:../HostCommunication/src/PayloadHelper.h ****     value.u32[1] = *(uint32_t*)(payload + offset + 4);
 378:../HostCommunication/src/PayloadHelper.h **** 
 379:../HostCommunication/src/PayloadHelper.h ****     return value.i64;
 380:../HostCommunication/src/PayloadHelper.h **** }
 381:../HostCommunication/src/PayloadHelper.h **** 
 382:../HostCommunication/src/PayloadHelper.h **** static inline uint64_t rd_payload_u64(const uint8_t* payload, uint16_t offset)
 383:../HostCommunication/src/PayloadHelper.h **** {
 384:../HostCommunication/src/PayloadHelper.h ****     union
 385:../HostCommunication/src/PayloadHelper.h ****     {
 386:../HostCommunication/src/PayloadHelper.h ****         uint32_t u32[2];
 387:../HostCommunication/src/PayloadHelper.h ****         uint64_t u64;
 388:../HostCommunication/src/PayloadHelper.h ****     } value;
 389:../HostCommunication/src/PayloadHelper.h ****     value.u32[0] = *(uint32_t*)(payload + offset);
 390:../HostCommunication/src/PayloadHelper.h ****     value.u32[1] = *(uint32_t*)(payload + offset + 4);
 391:../HostCommunication/src/PayloadHelper.h **** 
 392:../HostCommunication/src/PayloadHelper.h ****     return value.u64;
 393:../HostCommunication/src/PayloadHelper.h **** }
 394:../HostCommunication/src/PayloadHelper.h **** 
 395:../HostCommunication/src/PayloadHelper.h **** static inline void wr_payload_i16(uint8_t* payload, uint16_t offset,
 396:../HostCommunication/src/PayloadHelper.h ****                                   int16_t iValue)
 397:../HostCommunication/src/PayloadHelper.h **** {
 398:../HostCommunication/src/PayloadHelper.h ****     *(int16_t*)(payload + offset) = iValue;
 399:../HostCommunication/src/PayloadHelper.h **** }
 400:../HostCommunication/src/PayloadHelper.h **** 
 401:../HostCommunication/src/PayloadHelper.h **** static inline void wr_payload_u16(uint8_t* payload, uint16_t offset,
 402:../HostCommunication/src/PayloadHelper.h ****                                   uint16_t value)
 403:../HostCommunication/src/PayloadHelper.h **** {
 404:../HostCommunication/src/PayloadHelper.h ****     *(uint16_t*)(payload + offset) = value;
 405:../HostCommunication/src/PayloadHelper.h **** }
 406:../HostCommunication/src/PayloadHelper.h **** 
 407:../HostCommunication/src/PayloadHelper.h **** static inline void wr_payload_i32(uint8_t* payload, uint16_t offset,
 408:../HostCommunication/src/PayloadHelper.h ****                                   int32_t value)
 409:../HostCommunication/src/PayloadHelper.h **** {
 410:../HostCommunication/src/PayloadHelper.h ****     *(int32_t*)(payload + offset) = value;
 411:../HostCommunication/src/PayloadHelper.h **** }
 412:../HostCommunication/src/PayloadHelper.h **** 
 413:../HostCommunication/src/PayloadHelper.h **** static inline void wr_payload_u32(uint8_t* payload, uint16_t offset,
 414:../HostCommunication/src/PayloadHelper.h ****                                   uint32_t value)
 415:../HostCommunication/src/PayloadHelper.h **** {
 416:../HostCommunication/src/PayloadHelper.h ****     *(uint32_t*)(payload + offset) = value;
 417:../HostCommunication/src/PayloadHelper.h **** }
 418:../HostCommunication/src/PayloadHelper.h **** 
 419:../HostCommunication/src/PayloadHelper.h **** static inline void wr_payload_i64(uint8_t* payload, uint16_t offset,
 420:../HostCommunication/src/PayloadHelper.h ****                                   int64_t value)
 421:../HostCommunication/src/PayloadHelper.h **** {
 422:../HostCommunication/src/PayloadHelper.h ****     union
 423:../HostCommunication/src/PayloadHelper.h ****     {
 424:../HostCommunication/src/PayloadHelper.h ****         uint32_t u32[2];
 425:../HostCommunication/src/PayloadHelper.h ****         int64_t i64;
 426:../HostCommunication/src/PayloadHelper.h ****     } value_;
 427:../HostCommunication/src/PayloadHelper.h ****     value_.i64 = value;
 428:../HostCommunication/src/PayloadHelper.h ****     *(uint32_t*)(payload + offset)     = value_.u32[0];
 429:../HostCommunication/src/PayloadHelper.h ****     *(uint32_t*)(payload + offset + 4) = value_.u32[1];
 430:../HostCommunication/src/PayloadHelper.h **** }
 431:../HostCommunication/src/PayloadHelper.h **** 
 432:../HostCommunication/src/PayloadHelper.h **** static inline void wr_payload_u64(uint8_t* payload, uint16_t offset,
 433:../HostCommunication/src/PayloadHelper.h ****                                   uint64_t value)
 434:../HostCommunication/src/PayloadHelper.h **** {
 435:../HostCommunication/src/PayloadHelper.h ****     union
 436:../HostCommunication/src/PayloadHelper.h ****     {
 437:../HostCommunication/src/PayloadHelper.h ****         uint32_t u32[2];
 438:../HostCommunication/src/PayloadHelper.h ****         uint64_t u64;
 439:../HostCommunication/src/PayloadHelper.h ****     } value_;
 440:../HostCommunication/src/PayloadHelper.h ****     value_.u64 = value;
 441:../HostCommunication/src/PayloadHelper.h ****     *(uint32_t*)(payload + offset)     = value_.u32[0];
 442:../HostCommunication/src/PayloadHelper.h ****     *(uint32_t*)(payload + offset + 4) = value_.u32[1];
 443:../HostCommunication/src/PayloadHelper.h **** }
 444:../HostCommunication/src/PayloadHelper.h **** 
 445:../HostCommunication/src/PayloadHelper.h **** /*
 446:../HostCommunication/src/PayloadHelper.h **** ==============================================================================
 447:../HostCommunication/src/PayloadHelper.h ****    4. INLINE FUNCTIONS
 448:../HostCommunication/src/PayloadHelper.h **** ==============================================================================
 449:../HostCommunication/src/PayloadHelper.h **** */
 450:../HostCommunication/src/PayloadHelper.h **** #else
 451:../HostCommunication/src/PayloadHelper.h **** /*
 452:../HostCommunication/src/PayloadHelper.h ****  * The following function implementations are safe on any platform, but slower
 453:../HostCommunication/src/PayloadHelper.h ****  * than the native little endian implementations.
 454:../HostCommunication/src/PayloadHelper.h ****  */
 455:../HostCommunication/src/PayloadHelper.h **** 
 456:../HostCommunication/src/PayloadHelper.h **** static inline int16_t rd_payload_i16(const uint8_t* payload, uint16_t offset)
 457:../HostCommunication/src/PayloadHelper.h **** {
 458:../HostCommunication/src/PayloadHelper.h ****     return (int16_t)((((uint16_t)payload[offset + 1]) <<  8) |
 459:../HostCommunication/src/PayloadHelper.h ****                       ((uint16_t)payload[offset    ]));
 460:../HostCommunication/src/PayloadHelper.h **** }
 461:../HostCommunication/src/PayloadHelper.h **** 
 462:../HostCommunication/src/PayloadHelper.h **** static inline uint16_t rd_payload_u16(const uint8_t* payload, uint16_t offset)
 463:../HostCommunication/src/PayloadHelper.h **** {
 464:../HostCommunication/src/PayloadHelper.h ****     return (((uint16_t)payload[offset + 1]) <<  8) |
 465:../HostCommunication/src/PayloadHelper.h ****             ((uint16_t)payload[offset    ]);
 466:../HostCommunication/src/PayloadHelper.h **** }
 467:../HostCommunication/src/PayloadHelper.h **** 
 468:../HostCommunication/src/PayloadHelper.h **** static inline int32_t rd_payload_i32(const uint8_t* payload, uint16_t offset)
 469:../HostCommunication/src/PayloadHelper.h **** {
 470:../HostCommunication/src/PayloadHelper.h ****     return (int32_t)((((uint32_t)payload[offset + 3]) << 24) |
 471:../HostCommunication/src/PayloadHelper.h ****                      (((uint32_t)payload[offset + 2]) << 16) |
 472:../HostCommunication/src/PayloadHelper.h ****                      (((uint32_t)payload[offset + 1]) <<  8) |
 473:../HostCommunication/src/PayloadHelper.h ****                       ((uint32_t)payload[offset    ]));
 474:../HostCommunication/src/PayloadHelper.h **** }
 475:../HostCommunication/src/PayloadHelper.h **** 
 476:../HostCommunication/src/PayloadHelper.h **** static inline uint32_t rd_payload_u32(const uint8_t* payload, uint16_t offset)
 477:../HostCommunication/src/PayloadHelper.h **** {
 478:../HostCommunication/src/PayloadHelper.h ****     return (((uint32_t)payload[offset + 3]) << 24) |
 479:../HostCommunication/src/PayloadHelper.h ****            (((uint32_t)payload[offset + 2]) << 16) |
 480:../HostCommunication/src/PayloadHelper.h ****            (((uint32_t)payload[offset + 1]) <<  8) |
 481:../HostCommunication/src/PayloadHelper.h ****             ((uint32_t)payload[offset    ]);
 482:../HostCommunication/src/PayloadHelper.h **** }
 483:../HostCommunication/src/PayloadHelper.h **** 
 484:../HostCommunication/src/PayloadHelper.h **** static inline int64_t rd_payload_i64(const uint8_t* payload, uint16_t offset)
 485:../HostCommunication/src/PayloadHelper.h **** {
 486:../HostCommunication/src/PayloadHelper.h ****     return (int64_t)((((uint64_t)payload[offset + 7]) << 56) |
 487:../HostCommunication/src/PayloadHelper.h ****                      (((uint64_t)payload[offset + 6]) << 48) |
 488:../HostCommunication/src/PayloadHelper.h ****                      (((uint64_t)payload[offset + 5]) << 40) |
 489:../HostCommunication/src/PayloadHelper.h ****                      (((uint64_t)payload[offset + 4]) << 32) |
 490:../HostCommunication/src/PayloadHelper.h ****                      (((uint64_t)payload[offset + 3]) << 24) |
 491:../HostCommunication/src/PayloadHelper.h ****                      (((uint64_t)payload[offset + 2]) << 16) |
 492:../HostCommunication/src/PayloadHelper.h ****                      (((uint64_t)payload[offset + 1]) <<  8) |
 493:../HostCommunication/src/PayloadHelper.h ****                       ((uint64_t)payload[offset    ]));
 494:../HostCommunication/src/PayloadHelper.h **** }
 495:../HostCommunication/src/PayloadHelper.h **** 
 496:../HostCommunication/src/PayloadHelper.h **** static inline uint64_t rd_payload_u64(const uint8_t* payload, uint16_t offset)
 497:../HostCommunication/src/PayloadHelper.h **** {
 498:../HostCommunication/src/PayloadHelper.h ****     return (((uint64_t)payload[offset + 7]) << 56) |
 499:../HostCommunication/src/PayloadHelper.h ****            (((uint64_t)payload[offset + 6]) << 48) |
 500:../HostCommunication/src/PayloadHelper.h ****            (((uint64_t)payload[offset + 5]) << 40) |
 501:../HostCommunication/src/PayloadHelper.h ****            (((uint64_t)payload[offset + 4]) << 32) |
 502:../HostCommunication/src/PayloadHelper.h ****            (((uint64_t)payload[offset + 3]) << 24) |
 503:../HostCommunication/src/PayloadHelper.h ****            (((uint64_t)payload[offset + 2]) << 16) |
 504:../HostCommunication/src/PayloadHelper.h ****            (((uint64_t)payload[offset + 1]) <<  8) |
 505:../HostCommunication/src/PayloadHelper.h ****             ((uint64_t)payload[offset    ]);
 506:../HostCommunication/src/PayloadHelper.h **** }
 507:../HostCommunication/src/PayloadHelper.h **** 
 508:../HostCommunication/src/PayloadHelper.h **** static inline void wr_payload_i16(uint8_t* payload, uint16_t offset,
 509:../HostCommunication/src/PayloadHelper.h ****                                   int16_t value)
 510:../HostCommunication/src/PayloadHelper.h **** {
 511:../HostCommunication/src/PayloadHelper.h ****     payload[offset + 1] = (((uint16_t)value) >>  8) & 0xFF;
 512:../HostCommunication/src/PayloadHelper.h ****     payload[offset    ] =  ((uint16_t)value)        & 0xFF;
 513:../HostCommunication/src/PayloadHelper.h **** }
 514:../HostCommunication/src/PayloadHelper.h **** 
 515:../HostCommunication/src/PayloadHelper.h **** static inline void wr_payload_u16(uint8_t* payload, uint16_t offset,
 516:../HostCommunication/src/PayloadHelper.h ****                                   uint16_t value)
 517:../HostCommunication/src/PayloadHelper.h **** {
 518:../HostCommunication/src/PayloadHelper.h ****     payload[offset + 1] = (value >>  8) & 0xFF;
 519:../HostCommunication/src/PayloadHelper.h ****     payload[offset    ] =  value        & 0xFF;
 520:../HostCommunication/src/PayloadHelper.h **** }
 521:../HostCommunication/src/PayloadHelper.h **** 
 522:../HostCommunication/src/PayloadHelper.h **** static inline void wr_payload_i32(uint8_t* payload, uint16_t offset,
 523:../HostCommunication/src/PayloadHelper.h ****                                   int32_t value)
 524:../HostCommunication/src/PayloadHelper.h **** {
 525:../HostCommunication/src/PayloadHelper.h ****     payload[offset + 3] = (((uint32_t)value) >> 24) & 0xFF;
 526:../HostCommunication/src/PayloadHelper.h ****     payload[offset + 2] = (((uint32_t)value) >> 16) & 0xFF;
 527:../HostCommunication/src/PayloadHelper.h ****     payload[offset + 1] = (((uint32_t)value) >>  8) & 0xFF;
 528:../HostCommunication/src/PayloadHelper.h ****     payload[offset    ] =  ((uint32_t)value)        & 0xFF;
 529:../HostCommunication/src/PayloadHelper.h **** }
 530:../HostCommunication/src/PayloadHelper.h **** 
 531:../HostCommunication/src/PayloadHelper.h **** static inline void wr_payload_u32(uint8_t* payload, uint16_t offset,
 532:../HostCommunication/src/PayloadHelper.h ****                                   uint32_t value)
 533:../HostCommunication/src/PayloadHelper.h **** {
 534:../HostCommunication/src/PayloadHelper.h ****     payload[offset + 3] = (value >> 24) & 0xFF;
 229              	 .loc 2 534 0
 230 0110 4FEA1069 	 lsr r9,r0,#24
 535:../HostCommunication/src/PayloadHelper.h ****     payload[offset + 2] = (value >> 16) & 0xFF;
 231              	 .loc 2 535 0
 232 0114 4FEA104C 	 lsr ip,r0,#16
 233              	.LBE315:
 234              	.LBE314:
 242:../HostCommunication/src/EndpointRadarBase.c ****         protocol_send_payload(message_header, sizeof(message_header));
 235              	 .loc 1 242 0
 236 0118 0E91     	 str r1,[sp,#56]
 237              	.LBB319:
 238              	.LBB320:
 234:../HostCommunication/src/PayloadHelper.h **** }
 239              	 .loc 2 234 0
 240 011a 8DF857E0 	 strb lr,[sp,#87]
 241              	.LBE320:
 242              	.LBE319:
 243              	.LBB321:
 244              	.LBB316:
 536:../HostCommunication/src/PayloadHelper.h ****     payload[offset + 1] = (value >>  8) & 0xFF;
 537:../HostCommunication/src/PayloadHelper.h ****     payload[offset    ] =  value        & 0xFF;
 245              	 .loc 2 537 0
 246 011e 8DF84900 	 strb r0,[sp,#73]
 536:../HostCommunication/src/PayloadHelper.h ****     payload[offset + 1] = (value >>  8) & 0xFF;
 247              	 .loc 2 536 0
 248 0122 4FEA102E 	 lsr lr,r0,#8
 249              	.LBE316:
 250              	.LBE321:
 242:../HostCommunication/src/EndpointRadarBase.c ****         protocol_send_payload(message_header, sizeof(message_header));
 251              	 .loc 1 242 0
 252 0126 1231     	 adds r1,r1,#18
 253              	.LBB322:
 254              	.LBB323:
 534:../HostCommunication/src/PayloadHelper.h ****     payload[offset + 2] = (value >> 16) & 0xFF;
 255              	 .loc 2 534 0
 256 0128 100E     	 lsrs r0,r2,#24
 257              	.LVL14:
 258              	.LBE323:
 259              	.LBE322:
 260              	.LBB330:
 261              	.LBB331:
 234:../HostCommunication/src/PayloadHelper.h **** }
 262              	 .loc 2 234 0
 263 012a 9DF87670 	 ldrb r7,[sp,#118]
 264              	.LBE331:
 265              	.LBE330:
 266              	.LBB333:
 267              	.LBB324:
 268              	 .loc 2 537 0
 269 012e 8DF84D20 	 strb r2,[sp,#77]
 270              	.LBE324:
 271              	.LBE333:
 242:../HostCommunication/src/EndpointRadarBase.c ****         protocol_send_payload(message_header, sizeof(message_header));
 272              	 .loc 1 242 0
 273 0132 89B2     	 uxth r1,r1
 274              	.LVL15:
 275              	.LBB334:
 276              	.LBB335:
 277              	 .loc 2 537 0
 278 0134 8DF85230 	 strb r3,[sp,#82]
 279              	.LBE335:
 280              	.LBE334:
 281              	.LBB340:
 282              	.LBB341:
 234:../HostCommunication/src/PayloadHelper.h **** }
 283              	 .loc 2 234 0
 284 0138 8DF85840 	 strb r4,[sp,#88]
 285              	.LBE341:
 286              	.LBE340:
 287              	.LBB342:
 288              	.LBB317:
 534:../HostCommunication/src/PayloadHelper.h ****     payload[offset + 2] = (value >> 16) & 0xFF;
 289              	 .loc 2 534 0
 290 013c 8DF84C90 	 strb r9,[sp,#76]
 535:../HostCommunication/src/PayloadHelper.h ****     payload[offset + 1] = (value >>  8) & 0xFF;
 291              	 .loc 2 535 0
 292 0140 8DF84BC0 	 strb ip,[sp,#75]
 293              	.LBE317:
 294              	.LBE342:
 295              	.LBB343:
 296              	.LBB325:
 297 0144 4FEA1249 	 lsr r9,r2,#16
 298              	.LBE325:
 299              	.LBE343:
 300              	.LBB344:
 301              	.LBB336:
 534:../HostCommunication/src/PayloadHelper.h ****     payload[offset + 2] = (value >> 16) & 0xFF;
 302              	 .loc 2 534 0
 303 0148 4FEA136C 	 lsr ip,r3,#24
 304              	.LBE336:
 305              	.LBE344:
 306              	.LBB345:
 307              	.LBB326:
 536:../HostCommunication/src/PayloadHelper.h ****     payload[offset    ] =  value        & 0xFF;
 308              	 .loc 2 536 0
 309 014c 120A     	 lsrs r2,r2,#8
 310              	.LVL16:
 311              	.LBE326:
 312              	.LBE345:
 313              	.LBB346:
 314              	.LBB318:
 315 014e 8DF84AE0 	 strb lr,[sp,#74]
 316              	.LBE318:
 317              	.LBE346:
 318              	.LBB347:
 319              	.LBB327:
 534:../HostCommunication/src/PayloadHelper.h ****     payload[offset + 2] = (value >> 16) & 0xFF;
 320              	 .loc 2 534 0
 321 0152 8DF85000 	 strb r0,[sp,#80]
 322              	.LBE327:
 323              	.LBE347:
 324              	.LBB348:
 325              	.LBB337:
 535:../HostCommunication/src/PayloadHelper.h ****     payload[offset + 1] = (value >>  8) & 0xFF;
 326              	 .loc 2 535 0
 327 0156 4FEA134E 	 lsr lr,r3,#16
 328              	.LBE337:
 329              	.LBE348:
 242:../HostCommunication/src/EndpointRadarBase.c ****         protocol_send_payload(message_header, sizeof(message_header));
 330              	 .loc 1 242 0
 331 015a 4046     	 mov r0,r8
 332              	.LBB349:
 333              	.LBB338:
 536:../HostCommunication/src/PayloadHelper.h ****     payload[offset    ] =  value        & 0xFF;
 334              	 .loc 2 536 0
 335 015c 1B0A     	 lsrs r3,r3,#8
 336              	.LVL17:
 337              	.LBE338:
 338              	.LBE349:
 339              	.LBB350:
 340              	.LBB351:
 234:../HostCommunication/src/PayloadHelper.h **** }
 341              	 .loc 2 234 0
 342 015e 0024     	 movs r4,#0
 343              	.LVL18:
 344              	.LBE351:
 345              	.LBE350:
 346              	.LBB353:
 347              	.LBB328:
 536:../HostCommunication/src/PayloadHelper.h ****     payload[offset    ] =  value        & 0xFF;
 348              	 .loc 2 536 0
 349 0160 8DF84E20 	 strb r2,[sp,#78]
 350              	.LBE328:
 351              	.LBE353:
 352              	.LBB354:
 353              	.LBB339:
 534:../HostCommunication/src/PayloadHelper.h ****     payload[offset + 2] = (value >> 16) & 0xFF;
 354              	 .loc 2 534 0
 355 0164 8DF855C0 	 strb ip,[sp,#85]
 535:../HostCommunication/src/PayloadHelper.h ****     payload[offset + 1] = (value >>  8) & 0xFF;
 356              	 .loc 2 535 0
 357 0168 8DF854E0 	 strb lr,[sp,#84]
 536:../HostCommunication/src/PayloadHelper.h ****     payload[offset    ] =  value        & 0xFF;
 358              	 .loc 2 536 0
 359 016c 8DF85330 	 strb r3,[sp,#83]
 360              	.LBE339:
 361              	.LBE354:
 362              	.LBB355:
 363              	.LBB352:
 234:../HostCommunication/src/PayloadHelper.h **** }
 364              	 .loc 2 234 0
 365 0170 8DF84840 	 strb r4,[sp,#72]
 366              	.LBE352:
 367              	.LBE355:
 368              	.LBB356:
 369              	.LBB329:
 535:../HostCommunication/src/PayloadHelper.h ****     payload[offset + 1] = (value >>  8) & 0xFF;
 370              	 .loc 2 535 0
 371 0174 8DF84F90 	 strb r9,[sp,#79]
 372              	.LBE329:
 373              	.LBE356:
 374              	.LBB357:
 375              	.LBB332:
 234:../HostCommunication/src/PayloadHelper.h **** }
 376              	 .loc 2 234 0
 377 0178 8DF85970 	 strb r7,[sp,#89]
 378              	.LBE332:
 379              	.LBE357:
 242:../HostCommunication/src/EndpointRadarBase.c ****         protocol_send_payload(message_header, sizeof(message_header));
 380              	 .loc 1 242 0
 381 017c FFF7FEFF 	 bl protocol_send_header
 382              	.LVL19:
 243:../HostCommunication/src/EndpointRadarBase.c **** 
 383              	 .loc 1 243 0
 384 0180 12A8     	 add r0,sp,#72
 385              	.LVL20:
 386 0182 1221     	 movs r1,#18
 387 0184 FFF7FEFF 	 bl protocol_send_payload
 388              	.LVL21:
 245:../HostCommunication/src/EndpointRadarBase.c ****         {
 389              	 .loc 1 245 0
 390 0188 9DF875A0 	 ldrb r10,[sp,#117]
 391 018c BAF10C0F 	 cmp r10,#12
 392 0190 00F02382 	 beq .L89
 393              	.LBB358:
 280:../HostCommunication/src/EndpointRadarBase.c ****  			 uint16_t sample_bit_stream = 0;
 394              	 .loc 1 280 0
 395 0194 0127     	 movs r7,#1
 396              	.LVL22:
 397 0196 07FA0AF7 	 lsl r7,r7,r10
 398 019a 013F     	 subs r7,r7,#1
 281:../HostCommunication/src/EndpointRadarBase.c **** 			 uint16_t write_bit_position = 0;
 399              	 .loc 1 281 0
 400 019c ADF84040 	 strh r4,[sp,#64]
 280:../HostCommunication/src/EndpointRadarBase.c ****  			 uint16_t sample_bit_stream = 0;
 401              	 .loc 1 280 0
 402 01a0 BFB2     	 uxth r7,r7
 403              	.LVL23:
 404              	.LBB359:
 284:../HostCommunication/src/EndpointRadarBase.c **** 			 {
 405              	 .loc 1 284 0
 406 01a2 3EB3     	 cbz r6,.L32
 407 01a4 6D00     	 lsls r5,r5,#1
 408              	.LVL24:
 409 01a6 2246     	 mov r2,r4
 410 01a8 A146     	 mov r9,r4
 411 01aa 01E0     	 b .L36
 412              	.LVL25:
 413              	.L90:
 414 01ac 9DF875A0 	 ldrb r10,[sp,#117]
 415              	.LVL26:
 416              	.L36:
 417              	.LBB360:
 287:../HostCommunication/src/EndpointRadarBase.c **** 									   write_bit_position;
 418              	 .loc 1 287 0
 419 01b0 179B     	 ldr r3,[sp,#92]
 420 01b2 5B5B     	 ldrh r3,[r3,r5]
 421 01b4 3B40     	 ands r3,r3,r7
 289:../HostCommunication/src/EndpointRadarBase.c **** 
 422              	 .loc 1 289 0
 423 01b6 9244     	 add r10,r10,r2
 424              	.LVL27:
 287:../HostCommunication/src/EndpointRadarBase.c **** 									   write_bit_position;
 425              	 .loc 1 287 0
 426 01b8 9340     	 lsls r3,r3,r2
 427 01ba 1C43     	 orrs r4,r4,r3
 291:../HostCommunication/src/EndpointRadarBase.c **** 									   write_bit_position >> 3);
 428              	 .loc 1 291 0
 429 01bc CAF3CF01 	 ubfx r1,r10,#3,#16
 430 01c0 10A8     	 add r0,sp,#64
 287:../HostCommunication/src/EndpointRadarBase.c **** 									   write_bit_position;
 431              	 .loc 1 287 0
 432 01c2 ADF84040 	 strh r4,[sp,#64]
 291:../HostCommunication/src/EndpointRadarBase.c **** 									   write_bit_position >> 3);
 433              	 .loc 1 291 0
 434 01c6 FFF7FEFF 	 bl protocol_send_payload
 435              	.LVL28:
 293:../HostCommunication/src/EndpointRadarBase.c **** 				 write_bit_position &= 0x07;
 436              	 .loc 1 293 0
 437 01ca BDF84040 	 ldrh r4,[sp,#64]
 438 01ce 0AF0F803 	 and r3,r10,#248
 439 01d2 1C41     	 asrs r4,r4,r3
 440              	.LBE360:
 284:../HostCommunication/src/EndpointRadarBase.c **** 			 {
 441              	 .loc 1 284 0
 442 01d4 09F10109 	 add r9,r9,#1
 443              	.LVL29:
 444              	.LBB361:
 293:../HostCommunication/src/EndpointRadarBase.c **** 				 write_bit_position &= 0x07;
 445              	 .loc 1 293 0
 446 01d8 A4B2     	 uxth r4,r4
 447              	.LBE361:
 284:../HostCommunication/src/EndpointRadarBase.c **** 			 {
 448              	 .loc 1 284 0
 449 01da B145     	 cmp r9,r6
 450 01dc 05F10205 	 add r5,r5,#2
 451              	.LBB362:
 294:../HostCommunication/src/EndpointRadarBase.c **** 			 }
 452              	 .loc 1 294 0
 453 01e0 0AF00702 	 and r2,r10,#7
 454              	.LVL30:
 293:../HostCommunication/src/EndpointRadarBase.c **** 				 write_bit_position &= 0x07;
 455              	 .loc 1 293 0
 456 01e4 ADF84040 	 strh r4,[sp,#64]
 457              	.LBE362:
 284:../HostCommunication/src/EndpointRadarBase.c **** 			 {
 458              	 .loc 1 284 0
 459 01e8 E0D1     	 bne .L90
 460              	.LBE359:
 296:../HostCommunication/src/EndpointRadarBase.c **** 				 protocol_send_payload((uint8_t*)&sample_bit_stream, 1);
 461              	 .loc 1 296 0
 462 01ea 1AB1     	 cbz r2,.L32
 297:../HostCommunication/src/EndpointRadarBase.c ****         }
 463              	 .loc 1 297 0
 464 01ec 10A8     	 add r0,sp,#64
 465 01ee 0121     	 movs r1,#1
 466 01f0 FFF7FEFF 	 bl protocol_send_payload
 467              	.LVL31:
 468              	.L32:
 469              	.LBE358:
 470              	.LBB363:
 307:../HostCommunication/src/EndpointRadarBase.c ****             {
 471              	 .loc 1 307 0
 472 01f4 C44C     	 ldr r4,.L93
 473              	.LBE363:
 301:../HostCommunication/src/EndpointRadarBase.c **** 
 474              	 .loc 1 301 0
 475 01f6 FFF7FEFF 	 bl protocol_send_tail
 476              	.LVL32:
 477              	.LBB381:
 307:../HostCommunication/src/EndpointRadarBase.c ****             {
 478              	 .loc 1 307 0
 479 01fa 2268     	 ldr r2,[r4]
 480 01fc 1C9B     	 ldr r3,[sp,#112]
 481 01fe 9342     	 cmp r3,r2
 482 0200 1DD0     	 beq .L16
 483              	.LVL33:
 484              	.LBB364:
 485              	.LBB365:
 486              	.LBB366:
 525:../HostCommunication/src/PayloadHelper.h ****     payload[offset + 2] = (((uint32_t)value) >> 16) & 0xFF;
 487              	 .loc 2 525 0
 488 0202 1E0E     	 lsrs r6,r3,#24
 526:../HostCommunication/src/PayloadHelper.h ****     payload[offset + 1] = (((uint32_t)value) >>  8) & 0xFF;
 489              	 .loc 2 526 0
 490 0204 1D0C     	 lsrs r5,r3,#16
 527:../HostCommunication/src/PayloadHelper.h ****     payload[offset    ] =  ((uint32_t)value)        & 0xFF;
 491              	 .loc 2 527 0
 492 0206 1A0A     	 lsrs r2,r3,#8
 493              	.LBE366:
 494              	.LBE365:
 495              	.LBB370:
 496              	.LBB371:
 234:../HostCommunication/src/PayloadHelper.h **** }
 497              	 .loc 2 234 0
 498 0208 4FF0310E 	 mov lr,#49
 499              	.LBE371:
 500              	.LBE370:
 318:../HostCommunication/src/EndpointRadarBase.c **** 				protocol_send_payload(message, sizeof(message));
 501              	 .loc 1 318 0
 502 020c 4046     	 mov r0,r8
 503 020e 0621     	 movs r1,#6
 504              	.LBB373:
 505              	.LBB374:
 234:../HostCommunication/src/PayloadHelper.h **** }
 506              	 .loc 2 234 0
 507 0210 0027     	 movs r7,#0
 508              	.LBE374:
 509              	.LBE373:
 510              	.LBB376:
 511              	.LBB367:
 528:../HostCommunication/src/PayloadHelper.h **** }
 512              	 .loc 2 528 0
 513 0212 8DF84230 	 strb r3,[sp,#66]
 514              	.LBE367:
 515              	.LBE376:
 516              	.LBB377:
 517              	.LBB372:
 234:../HostCommunication/src/PayloadHelper.h **** }
 518              	 .loc 2 234 0
 519 0216 8DF840E0 	 strb lr,[sp,#64]
 520              	.LVL34:
 521              	.LBE372:
 522              	.LBE377:
 523              	.LBB378:
 524              	.LBB368:
 527:../HostCommunication/src/PayloadHelper.h ****     payload[offset    ] =  ((uint32_t)value)        & 0xFF;
 525              	 .loc 2 527 0
 526 021a 8DF84320 	 strb r2,[sp,#67]
 527              	.LBE368:
 528              	.LBE378:
 529              	.LBB379:
 530              	.LBB375:
 234:../HostCommunication/src/PayloadHelper.h **** }
 531              	 .loc 2 234 0
 532 021e 8DF84170 	 strb r7,[sp,#65]
 533              	.LVL35:
 534              	.LBE375:
 535              	.LBE379:
 536              	.LBB380:
 537              	.LBB369:
 525:../HostCommunication/src/PayloadHelper.h ****     payload[offset + 2] = (((uint32_t)value) >> 16) & 0xFF;
 538              	 .loc 2 525 0
 539 0222 8DF84560 	 strb r6,[sp,#69]
 526:../HostCommunication/src/PayloadHelper.h ****     payload[offset + 1] = (((uint32_t)value) >>  8) & 0xFF;
 540              	 .loc 2 526 0
 541 0226 8DF84450 	 strb r5,[sp,#68]
 542              	.LBE369:
 543              	.LBE380:
 318:../HostCommunication/src/EndpointRadarBase.c **** 				protocol_send_payload(message, sizeof(message));
 544              	 .loc 1 318 0
 545 022a FFF7FEFF 	 bl protocol_send_header
 546              	.LVL36:
 319:../HostCommunication/src/EndpointRadarBase.c **** 				protocol_send_tail();
 547              	 .loc 1 319 0
 548 022e 10A8     	 add r0,sp,#64
 549              	.LVL37:
 550 0230 0621     	 movs r1,#6
 551 0232 FFF7FEFF 	 bl protocol_send_payload
 552              	.LVL38:
 320:../HostCommunication/src/EndpointRadarBase.c **** 				previous_temp = frame_info.temperature_001C;
 553              	 .loc 1 320 0
 554 0236 FFF7FEFF 	 bl protocol_send_tail
 555              	.LVL39:
 321:../HostCommunication/src/EndpointRadarBase.c ****             }
 556              	 .loc 1 321 0
 557 023a 1C9B     	 ldr r3,[sp,#112]
 558 023c 2360     	 str r3,[r4]
 559              	.LVL40:
 560              	.L16:
 561              	.LBE364:
 562              	.LBE381:
 563              	.LBE309:
 185:../HostCommunication/src/EndpointRadarBase.c **** 
 564              	 .loc 1 185 0
 565 023e 0B9C     	 ldr r4,[sp,#44]
 566              	.LBE308:
 567              	.LBE307:
 554:../HostCommunication/src/EndpointRadarBase.c ****         }
 568              	 .loc 1 554 0
 569 0240 30E7     	 b .L2
 570              	.LVL41:
 571              	.L5:
 572              	.LBE306:
 559:../HostCommunication/src/EndpointRadarBase.c ****         {
 573              	 .loc 1 559 0
 574 0242 052D     	 cmp r5,#5
 575 0244 7FF42CAF 	 bne .L68
 576              	.LVL42:
 577              	.LBB408:
 578              	.LBB409:
 579              	.LBB410:
 479:../HostCommunication/src/PayloadHelper.h ****            (((uint32_t)payload[offset + 1]) <<  8) |
 580              	 .loc 2 479 0
 581 0248 CA78     	 ldrb r2,[r1,#3]
 478:../HostCommunication/src/PayloadHelper.h ****            (((uint32_t)payload[offset + 2]) << 16) |
 582              	 .loc 2 478 0
 583 024a 0C79     	 ldrb r4,[r1,#4]
 481:../HostCommunication/src/PayloadHelper.h **** }
 584              	 .loc 2 481 0
 585 024c 4878     	 ldrb r0,[r1,#1]
 480:../HostCommunication/src/PayloadHelper.h ****             ((uint32_t)payload[offset    ]);
 586              	 .loc 2 480 0
 587 024e 8978     	 ldrb r1,[r1,#2]
 588              	.LVL43:
 479:../HostCommunication/src/PayloadHelper.h ****            (((uint32_t)payload[offset + 1]) <<  8) |
 589              	 .loc 2 479 0
 590 0250 1204     	 lsls r2,r2,#16
 478:../HostCommunication/src/PayloadHelper.h ****            (((uint32_t)payload[offset + 2]) << 16) |
 591              	 .loc 2 478 0
 592 0252 42EA0462 	 orr r2,r2,r4,lsl#24
 593 0256 0243     	 orrs r2,r2,r0
 594              	.LBE410:
 595              	.LBE409:
 568:../HostCommunication/src/EndpointRadarBase.c ****                                                            frame_interval);
 596              	 .loc 1 568 0
 597 0258 42EA0121 	 orr r1,r2,r1,lsl#8
 598 025c 1846     	 mov r0,r3
 599 025e FFF7FEFF 	 bl radar_set_automatic_frame_trigger
 600              	.LVL44:
 601 0262 0446     	 mov r4,r0
 602              	.LVL45:
 571:../HostCommunication/src/EndpointRadarBase.c ****         }
 603              	 .loc 1 571 0
 604 0264 1EE7     	 b .L2
 605              	.LVL46:
 606              	.L6:
 607              	.LBE408:
 576:../HostCommunication/src/EndpointRadarBase.c ****         {
 608              	 .loc 1 576 0
 609 0266 082D     	 cmp r5,#8
 610 0268 7FF41AAF 	 bne .L68
 611              	.LVL47:
 612              	.LBB411:
 613              	.LBB412:
 614              	.LBB413:
 479:../HostCommunication/src/PayloadHelper.h ****            (((uint32_t)payload[offset + 1]) <<  8) |
 615              	 .loc 2 479 0
 616 026c 4879     	 ldrb r0,[r1,#5]
 478:../HostCommunication/src/PayloadHelper.h ****            (((uint32_t)payload[offset + 2]) << 16) |
 617              	 .loc 2 478 0
 618 026e 8F79     	 ldrb r7,[r1,#6]
 481:../HostCommunication/src/PayloadHelper.h **** }
 619              	 .loc 2 481 0
 620 0270 CC78     	 ldrb r4,[r1,#3]
 480:../HostCommunication/src/PayloadHelper.h ****             ((uint32_t)payload[offset    ]);
 621              	 .loc 2 480 0
 622 0272 0E79     	 ldrb r6,[r1,#4]
 623              	.LBE413:
 624              	.LBE412:
 591:../HostCommunication/src/EndpointRadarBase.c ****                                              frequency, tx_power);
 625              	 .loc 1 591 0
 626 0274 4D78     	 ldrb r5,[r1,#1]
 627 0276 8A78     	 ldrb r2,[r1,#2]
 628 0278 C979     	 ldrb r1,[r1,#7]
 629              	.LVL48:
 630 027a 0091     	 str r1,[sp]
 631              	.LBB415:
 632              	.LBB414:
 479:../HostCommunication/src/PayloadHelper.h ****            (((uint32_t)payload[offset + 1]) <<  8) |
 633              	 .loc 2 479 0
 634 027c 0004     	 lsls r0,r0,#16
 478:../HostCommunication/src/PayloadHelper.h ****            (((uint32_t)payload[offset + 2]) << 16) |
 635              	 .loc 2 478 0
 636 027e 40EA0760 	 orr r0,r0,r7,lsl#24
 637 0282 0443     	 orrs r4,r4,r0
 638              	.LBE414:
 639              	.LBE415:
 591:../HostCommunication/src/EndpointRadarBase.c ****                                              frequency, tx_power);
 640              	 .loc 1 591 0
 641 0284 2946     	 mov r1,r5
 642 0286 1846     	 mov r0,r3
 643 0288 44EA0623 	 orr r3,r4,r6,lsl#8
 644              	.LVL49:
 645 028c FFF7FEFF 	 bl radar_test_antennas
 646              	.LVL50:
 647 0290 0446     	 mov r4,r0
 648              	.LVL51:
 594:../HostCommunication/src/EndpointRadarBase.c ****         }
 649              	 .loc 1 594 0
 650 0292 07E7     	 b .L2
 651              	.LVL52:
 652              	.L7:
 653              	.LBE411:
 599:../HostCommunication/src/EndpointRadarBase.c ****         {
 654              	 .loc 1 599 0
 655 0294 012D     	 cmp r5,#1
 656 0296 7FF403AF 	 bne .L68
 657              	.LVL53:
 658              	.LBB416:
 659              	.LBB417:
 131:../HostCommunication/src/EndpointRadarBase.c **** 
 660              	 .loc 1 131 0
 661 029a FFF7FEFF 	 bl radar_get_driver_version
 662              	.LVL54:
 663              	.LBB418:
 664              	.LBB419:
 234:../HostCommunication/src/PayloadHelper.h **** }
 665              	 .loc 2 234 0
 666 029e 2122     	 movs r2,#33
 667 02a0 8DF85C20 	 strb r2,[sp,#92]
 668              	.LBE419:
 669              	.LBE418:
 137:../HostCommunication/src/EndpointRadarBase.c ****     wr_payload_u8(message, 2, driver_version->minor);
 670              	 .loc 1 137 0
 671 02a4 0278     	 ldrb r2,[r0]
 672              	.LBB420:
 673              	.LBB421:
 234:../HostCommunication/src/PayloadHelper.h **** }
 674              	 .loc 2 234 0
 675 02a6 8DF85D20 	 strb r2,[sp,#93]
 676              	.LBE421:
 677              	.LBE420:
 138:../HostCommunication/src/EndpointRadarBase.c ****     wr_payload_u8(message, 3, driver_version->revision);
 678              	 .loc 1 138 0
 679 02aa 4278     	 ldrb r2,[r0,#1]
 680              	.LBB422:
 681              	.LBB423:
 234:../HostCommunication/src/PayloadHelper.h **** }
 682              	 .loc 2 234 0
 683 02ac 8DF85E20 	 strb r2,[sp,#94]
 684              	.LBE423:
 685              	.LBE422:
 131:../HostCommunication/src/EndpointRadarBase.c **** 
 686              	 .loc 1 131 0
 687 02b0 0346     	 mov r3,r0
 688              	.LVL55:
 142:../HostCommunication/src/EndpointRadarBase.c ****     protocol_send_payload(message, sizeof(message));
 689              	 .loc 1 142 0
 690 02b2 0421     	 movs r1,#4
 139:../HostCommunication/src/EndpointRadarBase.c **** 
 691              	 .loc 1 139 0
 692 02b4 9B78     	 ldrb r3,[r3,#2]
 693              	.LVL56:
 694              	.LBB424:
 695              	.LBB425:
 234:../HostCommunication/src/PayloadHelper.h **** }
 696              	 .loc 2 234 0
 697 02b6 8DF85F30 	 strb r3,[sp,#95]
 698              	.LBE425:
 699              	.LBE424:
 142:../HostCommunication/src/EndpointRadarBase.c ****     protocol_send_payload(message, sizeof(message));
 700              	 .loc 1 142 0
 701 02ba 4046     	 mov r0,r8
 702              	.LVL57:
 703 02bc FFF7FEFF 	 bl protocol_send_header
 704              	.LVL58:
 143:../HostCommunication/src/EndpointRadarBase.c ****     protocol_send_tail();
 705              	 .loc 1 143 0
 706 02c0 17A8     	 add r0,sp,#92
 707              	.LVL59:
 708 02c2 0421     	 movs r1,#4
 709 02c4 FFF7FEFF 	 bl protocol_send_payload
 710              	.LVL60:
 711              	.LBE417:
 712              	.LBE416:
 604:../HostCommunication/src/EndpointRadarBase.c ****         }
 713              	 .loc 1 604 0
 714 02c8 0024     	 movs r4,#0
 715              	.LBB427:
 716              	.LBB426:
 144:../HostCommunication/src/EndpointRadarBase.c **** }
 717              	 .loc 1 144 0
 718 02ca FFF7FEFF 	 bl protocol_send_tail
 719              	.LVL61:
 720 02ce E9E6     	 b .L2
 721              	.LVL62:
 722              	.L8:
 723              	.LBE426:
 724              	.LBE427:
 609:../HostCommunication/src/EndpointRadarBase.c ****         {
 725              	 .loc 1 609 0
 726 02d0 012D     	 cmp r5,#1
 727 02d2 7FF4E5AE 	 bne .L68
 728              	.LVL63:
 729              	.LBB428:
 730              	.LBB429:
 335:../HostCommunication/src/EndpointRadarBase.c **** 
 731              	 .loc 1 335 0
 732 02d6 1846     	 mov r0,r3
 733 02d8 17A9     	 add r1,sp,#92
 734              	.LVL64:
 735 02da FFF7FEFF 	 bl radar_get_device_info
 736              	.LVL65:
 337:../HostCommunication/src/EndpointRadarBase.c ****     {
 737              	 .loc 1 337 0
 738 02de 0446     	 mov r4,r0
 739 02e0 0028     	 cmp r0,#0
 740 02e2 7FF4DFAE 	 bne .L2
 741              	.LVL66:
 742              	.LBB430:
 344:../HostCommunication/src/EndpointRadarBase.c ****         wr_payload_u32(message,  5, device_info.max_rf_frequency_kHz);
 743              	 .loc 1 344 0
 744 02e6 1899     	 ldr r1,[sp,#96]
 745              	.LVL67:
 345:../HostCommunication/src/EndpointRadarBase.c ****         wr_payload_u8 (message,  9, device_info.num_tx_antennas);
 746              	 .loc 1 345 0
 747 02e8 199B     	 ldr r3,[sp,#100]
 748              	.LVL68:
 749              	.LBB431:
 750              	.LBB432:
 751              	 .loc 2 537 0
 752 02ea 8DF84910 	 strb r1,[sp,#73]
 534:../HostCommunication/src/PayloadHelper.h ****     payload[offset + 2] = (value >> 16) & 0xFF;
 753              	 .loc 2 534 0
 754 02ee 4FEA116B 	 lsr fp,r1,#24
 755 02f2 8DF84CB0 	 strb fp,[sp,#76]
 535:../HostCommunication/src/PayloadHelper.h ****     payload[offset + 1] = (value >>  8) & 0xFF;
 756              	 .loc 2 535 0
 757 02f6 4FEA114B 	 lsr fp,r1,#16
 758 02fa 8DF84BB0 	 strb fp,[sp,#75]
 536:../HostCommunication/src/PayloadHelper.h ****     payload[offset    ] =  value        & 0xFF;
 759              	 .loc 2 536 0
 760 02fe 090A     	 lsrs r1,r1,#8
 761              	.LVL69:
 762              	.LBE432:
 763              	.LBE431:
 764              	.LBB434:
 765              	.LBB435:
 534:../HostCommunication/src/PayloadHelper.h ****     payload[offset + 2] = (value >> 16) & 0xFF;
 766              	 .loc 2 534 0
 767 0300 4FEA136B 	 lsr fp,r3,#24
 768              	.LBE435:
 769              	.LBE434:
 770              	.LBB438:
 771              	.LBB439:
 234:../HostCommunication/src/PayloadHelper.h **** }
 772              	 .loc 2 234 0
 773 0304 9DF86E50 	 ldrb r5,[sp,#110]
 774              	.LBE439:
 775              	.LBE438:
 776              	.LBB441:
 777              	.LBB433:
 536:../HostCommunication/src/PayloadHelper.h ****     payload[offset    ] =  value        & 0xFF;
 778              	 .loc 2 536 0
 779 0308 8DF84A10 	 strb r1,[sp,#74]
 780              	.LBE433:
 781              	.LBE441:
 782              	.LBB442:
 783              	.LBB436:
 784              	 .loc 2 537 0
 785 030c 8DF84D30 	 strb r3,[sp,#77]
 786              	.LVL70:
 535:../HostCommunication/src/PayloadHelper.h ****     payload[offset + 1] = (value >>  8) & 0xFF;
 787              	 .loc 2 535 0
 788 0310 190C     	 lsrs r1,r3,#16
 534:../HostCommunication/src/PayloadHelper.h ****     payload[offset + 2] = (value >> 16) & 0xFF;
 789              	 .loc 2 534 0
 790 0312 8DF850B0 	 strb fp,[sp,#80]
 536:../HostCommunication/src/PayloadHelper.h ****     payload[offset    ] =  value        & 0xFF;
 791              	 .loc 2 536 0
 792 0316 1B0A     	 lsrs r3,r3,#8
 793              	.LVL71:
 794              	.LBE436:
 795              	.LBE442:
 796              	.LBB443:
 797              	.LBB444:
 234:../HostCommunication/src/PayloadHelper.h **** }
 798              	 .loc 2 234 0
 799 0318 9DF868A0 	 ldrb r10,[sp,#104]
 800              	.LBE444:
 801              	.LBE443:
 802              	.LBB446:
 803              	.LBB447:
 804 031c 9DF86990 	 ldrb r9,[sp,#105]
 805              	.LBE447:
 806              	.LBE446:
 807              	.LBB449:
 808              	.LBB450:
 809 0320 9DF86AC0 	 ldrb ip,[sp,#106]
 810              	.LBE450:
 811              	.LBE449:
 812              	.LBB452:
 813              	.LBB453:
 814 0324 9DF86BE0 	 ldrb lr,[sp,#107]
 815              	.LBE453:
 816              	.LBE452:
 817              	.LBB455:
 818              	.LBB456:
 819 0328 9DF86C70 	 ldrb r7,[sp,#108]
 820              	.LBE456:
 821              	.LBE455:
 822              	.LBB458:
 823              	.LBB459:
 824 032c 9DF86D60 	 ldrb r6,[sp,#109]
 825              	.LBE459:
 826              	.LBE458:
 827              	.LBB461:
 828              	.LBB462:
 829 0330 9DF86F00 	 ldrb r0,[sp,#111]
 830              	.LVL72:
 831              	.LBE462:
 832              	.LBE461:
 357:../HostCommunication/src/EndpointRadarBase.c ****             ++string_length;
 833              	 .loc 1 357 0
 834 0334 179A     	 ldr r2,[sp,#92]
 835              	.LBB464:
 836              	.LBB440:
 234:../HostCommunication/src/PayloadHelper.h **** }
 837              	 .loc 2 234 0
 838 0336 8DF85750 	 strb r5,[sp,#87]
 839              	.LBE440:
 840              	.LBE464:
 841              	.LBB465:
 842              	.LBB466:
 843 033a 4FF0230B 	 mov fp,#35
 844              	.LBE466:
 845              	.LBE465:
 846              	.LBB468:
 847              	.LBB437:
 535:../HostCommunication/src/PayloadHelper.h ****     payload[offset + 1] = (value >>  8) & 0xFF;
 848              	 .loc 2 535 0
 849 033e 8DF84F10 	 strb r1,[sp,#79]
 536:../HostCommunication/src/PayloadHelper.h ****     payload[offset    ] =  value        & 0xFF;
 850              	 .loc 2 536 0
 851 0342 8DF84E30 	 strb r3,[sp,#78]
 852              	.LBE437:
 853              	.LBE468:
 854              	.LBB469:
 855              	.LBB467:
 234:../HostCommunication/src/PayloadHelper.h **** }
 856              	 .loc 2 234 0
 857 0346 8DF848B0 	 strb fp,[sp,#72]
 858              	.LBE467:
 859              	.LBE469:
 860              	.LBB470:
 861              	.LBB445:
 862 034a 8DF851A0 	 strb r10,[sp,#81]
 863              	.LVL73:
 864              	.LBE445:
 865              	.LBE470:
 866              	.LBB471:
 867              	.LBB448:
 868 034e 8DF85290 	 strb r9,[sp,#82]
 869              	.LVL74:
 870              	.LBE448:
 871              	.LBE471:
 872              	.LBB472:
 873              	.LBB451:
 874 0352 8DF853C0 	 strb ip,[sp,#83]
 875              	.LVL75:
 876              	.LBE451:
 877              	.LBE472:
 878              	.LBB473:
 879              	.LBB454:
 880 0356 8DF854E0 	 strb lr,[sp,#84]
 881              	.LVL76:
 882              	.LBE454:
 883              	.LBE473:
 884              	.LBB474:
 885              	.LBB457:
 886 035a 8DF85570 	 strb r7,[sp,#85]
 887              	.LVL77:
 888              	.LBE457:
 889              	.LBE474:
 890              	.LBB475:
 891              	.LBB460:
 892 035e 8DF85660 	 strb r6,[sp,#86]
 893              	.LVL78:
 894              	.LBE460:
 895              	.LBE475:
 896              	.LBB476:
 897              	.LBB463:
 898 0362 8DF85800 	 strb r0,[sp,#88]
 899              	.LVL79:
 900              	.LBE463:
 901              	.LBE476:
 357:../HostCommunication/src/EndpointRadarBase.c ****             ++string_length;
 902              	 .loc 1 357 0
 903 0366 1378     	 ldrb r3,[r2]
 904 0368 2546     	 mov r5,r4
 905 036a 23B1     	 cbz r3,.L40
 906              	.LVL80:
 907              	.L41:
 358:../HostCommunication/src/EndpointRadarBase.c ****         ++string_length;
 908              	 .loc 1 358 0
 909 036c 0135     	 adds r5,r5,#1
 910              	.LVL81:
 911 036e ADB2     	 uxth r5,r5
 912              	.LVL82:
 357:../HostCommunication/src/EndpointRadarBase.c ****             ++string_length;
 913              	 .loc 1 357 0
 914 0370 535D     	 ldrb r3,[r2,r5]
 915 0372 002B     	 cmp r3,#0
 916 0374 FAD1     	 bne .L41
 917              	.LVL83:
 918              	.L40:
 362:../HostCommunication/src/EndpointRadarBase.c ****         protocol_send_payload(message, sizeof(message));
 919              	 .loc 1 362 0
 920 0376 05F11201 	 add r1,r5,#18
 921 037a 4046     	 mov r0,r8
 922 037c 89B2     	 uxth r1,r1
 923 037e FFF7FEFF 	 bl protocol_send_header
 924              	.LVL84:
 363:../HostCommunication/src/EndpointRadarBase.c ****         protocol_send_payload((const uint8_t*)device_info.description,
 925              	 .loc 1 363 0
 926 0382 12A8     	 add r0,sp,#72
 927              	.LVL85:
 928 0384 1121     	 movs r1,#17
 929 0386 FFF7FEFF 	 bl protocol_send_payload
 930              	.LVL86:
 359:../HostCommunication/src/EndpointRadarBase.c **** 
 931              	 .loc 1 359 0
 932 038a 691C     	 adds r1,r5,#1
 364:../HostCommunication/src/EndpointRadarBase.c ****                               string_length);
 933              	 .loc 1 364 0
 934 038c 89B2     	 uxth r1,r1
 935 038e 1798     	 ldr r0,[sp,#92]
 936 0390 FFF7FEFF 	 bl protocol_send_payload
 937              	.LVL87:
 366:../HostCommunication/src/EndpointRadarBase.c ****     }
 938              	 .loc 1 366 0
 939 0394 FFF7FEFF 	 bl protocol_send_tail
 940              	.LVL88:
 941              	.LBE430:
 942              	.LBE429:
 943              	.LBE428:
 611:../HostCommunication/src/EndpointRadarBase.c ****         }
 944              	 .loc 1 611 0
 945 0398 84E6     	 b .L2
 946              	.LVL89:
 947              	.L9:
 616:../HostCommunication/src/EndpointRadarBase.c ****         {
 948              	 .loc 1 616 0
 949 039a 022D     	 cmp r5,#2
 950 039c 7FF480AE 	 bne .L68
 951              	.LVL90:
 952              	.LBB477:
 953              	.LBB478:
 954              	.LBB479:
  88:../HostCommunication/src/PayloadHelper.h **** }
 955              	 .loc 2 88 0
 956 03a0 4D78     	 ldrb r5,[r1,#1]
 957              	.LVL91:
 958              	.LBE479:
 959              	.LBE478:
 960              	.LBB480:
 961              	.LBB481:
 379:../HostCommunication/src/EndpointRadarBase.c ****                                        &temperature);
 962              	 .loc 1 379 0
 963 03a2 1846     	 mov r0,r3
 964 03a4 2946     	 mov r1,r5
 965              	.LVL92:
 966 03a6 12AA     	 add r2,sp,#72
 967 03a8 FFF7FEFF 	 bl radar_get_temperature
 968              	.LVL93:
 382:../HostCommunication/src/EndpointRadarBase.c ****     {
 969              	 .loc 1 382 0
 970 03ac 0446     	 mov r4,r0
 971 03ae 0028     	 cmp r0,#0
 972 03b0 7FF478AE 	 bne .L2
 973              	.LVL94:
 974              	.LBB482:
 389:../HostCommunication/src/EndpointRadarBase.c **** 
 975              	 .loc 1 389 0
 976 03b4 129B     	 ldr r3,[sp,#72]
 977              	.LBB483:
 978              	.LBB484:
 234:../HostCommunication/src/PayloadHelper.h **** }
 979              	 .loc 2 234 0
 980 03b6 8DF85D50 	 strb r5,[sp,#93]
 981              	.LBE484:
 982              	.LBE483:
 392:../HostCommunication/src/EndpointRadarBase.c ****         protocol_send_payload(message, sizeof(message));
 983              	 .loc 1 392 0
 984 03ba 4046     	 mov r0,r8
 985              	.LVL95:
 986              	.LBB485:
 987              	.LBB486:
 525:../HostCommunication/src/PayloadHelper.h ****     payload[offset + 2] = (((uint32_t)value) >> 16) & 0xFF;
 988              	 .loc 2 525 0
 989 03bc 1F0E     	 lsrs r7,r3,#24
 526:../HostCommunication/src/PayloadHelper.h ****     payload[offset + 1] = (((uint32_t)value) >>  8) & 0xFF;
 990              	 .loc 2 526 0
 991 03be 1E0C     	 lsrs r6,r3,#16
 527:../HostCommunication/src/PayloadHelper.h ****     payload[offset    ] =  ((uint32_t)value)        & 0xFF;
 992              	 .loc 2 527 0
 993 03c0 1D0A     	 lsrs r5,r3,#8
 994              	.LVL96:
 995              	.LBE486:
 996              	.LBE485:
 997              	.LBB487:
 998              	.LBB488:
 234:../HostCommunication/src/PayloadHelper.h **** }
 999              	 .loc 2 234 0
 1000 03c2 3122     	 movs r2,#49
 1001 03c4 14E0     	 b .L84
 1002              	.LVL97:
 1003              	.L10:
 1004              	.LBE488:
 1005              	.LBE487:
 1006              	.LBE482:
 1007              	.LBE481:
 1008              	.LBE480:
 1009              	.LBE477:
 629:../HostCommunication/src/EndpointRadarBase.c ****         {
 1010              	 .loc 1 629 0
 1011 03c6 022D     	 cmp r5,#2
 1012 03c8 7FF46AAE 	 bne .L68
 1013              	.LVL98:
 1014              	.LBB489:
 1015              	.LBB490:
 1016              	.LBB491:
  88:../HostCommunication/src/PayloadHelper.h **** }
 1017              	 .loc 2 88 0
 1018 03cc 4D78     	 ldrb r5,[r1,#1]
 1019              	.LVL99:
 1020              	.LBE491:
 1021              	.LBE490:
 1022              	.LBB492:
 1023              	.LBB493:
 406:../HostCommunication/src/EndpointRadarBase.c **** 
 1024              	 .loc 1 406 0
 1025 03ce 1846     	 mov r0,r3
 1026 03d0 2946     	 mov r1,r5
 1027              	.LVL100:
 1028 03d2 12AA     	 add r2,sp,#72
 1029 03d4 FFF7FEFF 	 bl radar_get_tx_power
 1030              	.LVL101:
 408:../HostCommunication/src/EndpointRadarBase.c ****     {
 1031              	 .loc 1 408 0
 1032 03d8 0446     	 mov r4,r0
 1033 03da 0028     	 cmp r0,#0
 1034 03dc 7FF462AE 	 bne .L2
 1035              	.LVL102:
 1036              	.LBB494:
 415:../HostCommunication/src/EndpointRadarBase.c **** 
 1037              	 .loc 1 415 0
 1038 03e0 129B     	 ldr r3,[sp,#72]
 1039              	.LBB495:
 1040              	.LBB496:
 234:../HostCommunication/src/PayloadHelper.h **** }
 1041              	 .loc 2 234 0
 1042 03e2 8DF85D50 	 strb r5,[sp,#93]
 1043              	.LBE496:
 1044              	.LBE495:
 418:../HostCommunication/src/EndpointRadarBase.c ****         protocol_send_payload(message, sizeof(message));
 1045              	 .loc 1 418 0
 1046 03e6 4046     	 mov r0,r8
 1047              	.LVL103:
 1048              	.LBB497:
 1049              	.LBB498:
 525:../HostCommunication/src/PayloadHelper.h ****     payload[offset + 2] = (((uint32_t)value) >> 16) & 0xFF;
 1050              	 .loc 2 525 0
 1051 03e8 1F0E     	 lsrs r7,r3,#24
 526:../HostCommunication/src/PayloadHelper.h ****     payload[offset + 1] = (((uint32_t)value) >>  8) & 0xFF;
 1052              	 .loc 2 526 0
 1053 03ea 1E0C     	 lsrs r6,r3,#16
 527:../HostCommunication/src/PayloadHelper.h ****     payload[offset    ] =  ((uint32_t)value)        & 0xFF;
 1054              	 .loc 2 527 0
 1055 03ec 1D0A     	 lsrs r5,r3,#8
 1056              	.LVL104:
 1057              	.LBE498:
 1058              	.LBE497:
 1059              	.LBB501:
 1060              	.LBB502:
 234:../HostCommunication/src/PayloadHelper.h **** }
 1061              	 .loc 2 234 0
 1062 03ee 3322     	 movs r2,#51
 1063              	.LVL105:
 1064              	.L84:
 1065              	.LBE502:
 1066              	.LBE501:
 418:../HostCommunication/src/EndpointRadarBase.c ****         protocol_send_payload(message, sizeof(message));
 1067              	 .loc 1 418 0
 1068 03f0 0621     	 movs r1,#6
 1069              	.LBB504:
 1070              	.LBB499:
 528:../HostCommunication/src/PayloadHelper.h **** }
 1071              	 .loc 2 528 0
 1072 03f2 8DF85E30 	 strb r3,[sp,#94]
 1073              	.LBE499:
 1074              	.LBE504:
 1075              	.LBB505:
 1076              	.LBB503:
 234:../HostCommunication/src/PayloadHelper.h **** }
 1077              	 .loc 2 234 0
 1078 03f6 8DF85C20 	 strb r2,[sp,#92]
 1079              	.LVL106:
 1080              	.LBE503:
 1081              	.LBE505:
 1082              	.LBB506:
 1083              	.LBB500:
 525:../HostCommunication/src/PayloadHelper.h ****     payload[offset + 2] = (((uint32_t)value) >> 16) & 0xFF;
 1084              	 .loc 2 525 0
 1085 03fa 8DF86170 	 strb r7,[sp,#97]
 526:../HostCommunication/src/PayloadHelper.h ****     payload[offset + 1] = (((uint32_t)value) >>  8) & 0xFF;
 1086              	 .loc 2 526 0
 1087 03fe 8DF86060 	 strb r6,[sp,#96]
 527:../HostCommunication/src/PayloadHelper.h ****     payload[offset    ] =  ((uint32_t)value)        & 0xFF;
 1088              	 .loc 2 527 0
 1089 0402 8DF85F50 	 strb r5,[sp,#95]
 1090              	.LBE500:
 1091              	.LBE506:
 418:../HostCommunication/src/EndpointRadarBase.c ****         protocol_send_payload(message, sizeof(message));
 1092              	 .loc 1 418 0
 1093 0406 FFF7FEFF 	 bl protocol_send_header
 1094              	.LVL107:
 419:../HostCommunication/src/EndpointRadarBase.c ****         protocol_send_tail();
 1095              	 .loc 1 419 0
 1096 040a 17A8     	 add r0,sp,#92
 1097              	.LVL108:
 1098 040c 0621     	 movs r1,#6
 1099 040e FFF7FEFF 	 bl protocol_send_payload
 1100              	.LVL109:
 420:../HostCommunication/src/EndpointRadarBase.c ****     }
 1101              	 .loc 1 420 0
 1102 0412 FFF7FEFF 	 bl protocol_send_tail
 1103              	.LVL110:
 1104              	.LBE494:
 1105              	.LBE493:
 1106              	.LBE492:
 636:../HostCommunication/src/EndpointRadarBase.c ****         }
 1107              	 .loc 1 636 0
 1108 0416 45E6     	 b .L2
 1109              	.LVL111:
 1110              	.L11:
 1111              	.LBE489:
 641:../HostCommunication/src/EndpointRadarBase.c ****         {
 1112              	 .loc 1 641 0
 1113 0418 012D     	 cmp r5,#1
 1114 041a 7FF441AE 	 bne .L68
 1115              	.LVL112:
 1116              	.LBB507:
 1117              	.LBB508:
 432:../HostCommunication/src/EndpointRadarBase.c **** 
 1118              	 .loc 1 432 0
 1119 041e 1846     	 mov r0,r3
 1120 0420 12A9     	 add r1,sp,#72
 1121              	.LVL113:
 1122 0422 FFF7FEFF 	 bl radar_get_chirp_duration
 1123              	.LVL114:
 434:../HostCommunication/src/EndpointRadarBase.c ****     {
 1124              	 .loc 1 434 0
 1125 0426 0446     	 mov r4,r0
 1126 0428 0028     	 cmp r0,#0
 1127 042a 7FF43BAE 	 bne .L2
 1128              	.LVL115:
 1129              	.LBB509:
 440:../HostCommunication/src/EndpointRadarBase.c **** 
 1130              	 .loc 1 440 0
 1131 042e 129B     	 ldr r3,[sp,#72]
 1132              	.LVL116:
 1133              	.LBB510:
 1134              	.LBB511:
 1135              	 .loc 2 537 0
 1136 0430 8DF85D30 	 strb r3,[sp,#93]
 534:../HostCommunication/src/PayloadHelper.h ****     payload[offset + 2] = (value >> 16) & 0xFF;
 1137              	 .loc 2 534 0
 1138 0434 1E0E     	 lsrs r6,r3,#24
 535:../HostCommunication/src/PayloadHelper.h ****     payload[offset + 1] = (value >>  8) & 0xFF;
 1139              	 .loc 2 535 0
 1140 0436 1D0C     	 lsrs r5,r3,#16
 1141              	.LBE511:
 1142              	.LBE510:
 443:../HostCommunication/src/EndpointRadarBase.c ****         protocol_send_payload(message, sizeof(message));
 1143              	 .loc 1 443 0
 1144 0438 4046     	 mov r0,r8
 1145              	.LVL117:
 1146              	.LBB513:
 1147              	.LBB512:
 536:../HostCommunication/src/PayloadHelper.h ****     payload[offset    ] =  value        & 0xFF;
 1148              	 .loc 2 536 0
 1149 043a 1B0A     	 lsrs r3,r3,#8
 1150              	.LVL118:
 1151              	.LBE512:
 1152              	.LBE513:
 1153              	.LBB514:
 1154              	.LBB515:
 234:../HostCommunication/src/PayloadHelper.h **** }
 1155              	 .loc 2 234 0
 1156 043c 3522     	 movs r2,#53
 1157 043e 12E0     	 b .L85
 1158              	.LVL119:
 1159              	.L12:
 1160              	.LBE515:
 1161              	.LBE514:
 1162              	.LBE509:
 1163              	.LBE508:
 1164              	.LBE507:
 648:../HostCommunication/src/EndpointRadarBase.c ****         {
 1165              	 .loc 1 648 0
 1166 0440 012D     	 cmp r5,#1
 1167 0442 7FF42DAE 	 bne .L68
 1168              	.LVL120:
 1169              	.LBB516:
 1170              	.LBB517:
 457:../HostCommunication/src/EndpointRadarBase.c ****                                               &min_frame_interval);
 1171              	 .loc 1 457 0
 1172 0446 1846     	 mov r0,r3
 1173 0448 12A9     	 add r1,sp,#72
 1174              	.LVL121:
 1175 044a FFF7FEFF 	 bl radar_get_min_frame_interval
 1176              	.LVL122:
 460:../HostCommunication/src/EndpointRadarBase.c ****     {
 1177              	 .loc 1 460 0
 1178 044e 0446     	 mov r4,r0
 1179 0450 0028     	 cmp r0,#0
 1180 0452 7FF427AE 	 bne .L2
 1181              	.LVL123:
 1182              	.LBB518:
 466:../HostCommunication/src/EndpointRadarBase.c **** 
 1183              	 .loc 1 466 0
 1184 0456 129B     	 ldr r3,[sp,#72]
 1185              	.LVL124:
 1186              	.LBB519:
 1187              	.LBB520:
 1188              	 .loc 2 537 0
 1189 0458 8DF85D30 	 strb r3,[sp,#93]
 534:../HostCommunication/src/PayloadHelper.h ****     payload[offset + 2] = (value >> 16) & 0xFF;
 1190              	 .loc 2 534 0
 1191 045c 1E0E     	 lsrs r6,r3,#24
 535:../HostCommunication/src/PayloadHelper.h ****     payload[offset + 1] = (value >>  8) & 0xFF;
 1192              	 .loc 2 535 0
 1193 045e 1D0C     	 lsrs r5,r3,#16
 1194              	.LBE520:
 1195              	.LBE519:
 469:../HostCommunication/src/EndpointRadarBase.c ****         protocol_send_payload(message, sizeof(message));
 1196              	 .loc 1 469 0
 1197 0460 4046     	 mov r0,r8
 1198              	.LVL125:
 1199              	.LBB524:
 1200              	.LBB521:
 536:../HostCommunication/src/PayloadHelper.h ****     payload[offset    ] =  value        & 0xFF;
 1201              	 .loc 2 536 0
 1202 0462 1B0A     	 lsrs r3,r3,#8
 1203              	.LVL126:
 1204              	.LBE521:
 1205              	.LBE524:
 1206              	.LBB525:
 1207              	.LBB526:
 234:../HostCommunication/src/PayloadHelper.h **** }
 1208              	 .loc 2 234 0
 1209 0464 3722     	 movs r2,#55
 1210              	.LVL127:
 1211              	.L85:
 1212              	.LBE526:
 1213              	.LBE525:
 469:../HostCommunication/src/EndpointRadarBase.c ****         protocol_send_payload(message, sizeof(message));
 1214              	 .loc 1 469 0
 1215 0466 0521     	 movs r1,#5
 1216              	.LBB528:
 1217              	.LBB522:
 536:../HostCommunication/src/PayloadHelper.h ****     payload[offset    ] =  value        & 0xFF;
 1218              	 .loc 2 536 0
 1219 0468 8DF85E30 	 strb r3,[sp,#94]
 1220              	.LBE522:
 1221              	.LBE528:
 1222              	.LBB529:
 1223              	.LBB527:
 234:../HostCommunication/src/PayloadHelper.h **** }
 1224              	 .loc 2 234 0
 1225 046c 8DF85C20 	 strb r2,[sp,#92]
 1226              	.LBE527:
 1227              	.LBE529:
 1228              	.LBB530:
 1229              	.LBB523:
 534:../HostCommunication/src/PayloadHelper.h ****     payload[offset + 2] = (value >> 16) & 0xFF;
 1230              	 .loc 2 534 0
 1231 0470 8DF86060 	 strb r6,[sp,#96]
 535:../HostCommunication/src/PayloadHelper.h ****     payload[offset + 1] = (value >>  8) & 0xFF;
 1232              	 .loc 2 535 0
 1233 0474 8DF85F50 	 strb r5,[sp,#95]
 1234              	.LBE523:
 1235              	.LBE530:
 469:../HostCommunication/src/EndpointRadarBase.c ****         protocol_send_payload(message, sizeof(message));
 1236              	 .loc 1 469 0
 1237 0478 FFF7FEFF 	 bl protocol_send_header
 1238              	.LVL128:
 470:../HostCommunication/src/EndpointRadarBase.c ****         protocol_send_tail();
 1239              	 .loc 1 470 0
 1240 047c 17A8     	 add r0,sp,#92
 1241 047e 0521     	 movs r1,#5
 1242 0480 FFF7FEFF 	 bl protocol_send_payload
 1243              	.LVL129:
 471:../HostCommunication/src/EndpointRadarBase.c ****     }
 1244              	 .loc 1 471 0
 1245 0484 FFF7FEFF 	 bl protocol_send_tail
 1246              	.LVL130:
 1247              	.LBE518:
 1248              	.LBE517:
 1249              	.LBE516:
 650:../HostCommunication/src/EndpointRadarBase.c ****         }
 1250              	 .loc 1 650 0
 1251 0488 0CE6     	 b .L2
 1252              	.LVL131:
 1253              	.L13:
 655:../HostCommunication/src/EndpointRadarBase.c ****         {
 1254              	 .loc 1 655 0
 1255 048a 012D     	 cmp r5,#1
 1256 048c 7FF408AE 	 bne .L68
 1257              	.LVL132:
 1258              	.LBB531:
 1259              	.LBB532:
 483:../HostCommunication/src/EndpointRadarBase.c **** 
 1260              	 .loc 1 483 0
 1261 0490 1846     	 mov r0,r3
 1262 0492 17A9     	 add r1,sp,#92
 1263              	.LVL133:
 1264 0494 FFF7FEFF 	 bl radar_get_frame_format
 1265              	.LVL134:
 485:../HostCommunication/src/EndpointRadarBase.c ****     {
 1266              	 .loc 1 485 0
 1267 0498 0446     	 mov r4,r0
 1268 049a 0028     	 cmp r0,#0
 1269 049c 7FF402AE 	 bne .L2
 1270              	.LVL135:
 1271              	.LBB533:
 492:../HostCommunication/src/EndpointRadarBase.c ****         wr_payload_u8 (message,  9, frame_format.rx_mask);
 1272              	 .loc 1 492 0
 1273 04a0 189A     	 ldr r2,[sp,#96]
 491:../HostCommunication/src/EndpointRadarBase.c ****         wr_payload_u32(message,  5, frame_format.num_chirps_per_frame);
 1274              	 .loc 1 491 0
 1275 04a2 179B     	 ldr r3,[sp,#92]
 1276              	.LVL136:
 1277              	.LBB534:
 1278              	.LBB535:
 234:../HostCommunication/src/PayloadHelper.h **** }
 1279              	 .loc 2 234 0
 1280 04a4 9DF86460 	 ldrb r6,[sp,#100]
 1281              	.LBE535:
 1282              	.LBE534:
 1283              	.LBB537:
 1284              	.LBB538:
 1285 04a8 9DF86550 	 ldrb r5,[sp,#101]
 1286              	.LBE538:
 1287              	.LBE537:
 1288              	.LBB540:
 1289              	.LBB541:
 1290              	 .loc 2 537 0
 1291 04ac 8DF84930 	 strb r3,[sp,#73]
 1292              	.LBE541:
 1293              	.LBE540:
 1294              	.LBB547:
 1295              	.LBB548:
 535:../HostCommunication/src/PayloadHelper.h ****     payload[offset + 1] = (value >>  8) & 0xFF;
 1296              	 .loc 2 535 0
 1297 04b0 4FEA124C 	 lsr ip,r2,#16
 536:../HostCommunication/src/PayloadHelper.h ****     payload[offset    ] =  value        & 0xFF;
 1298              	 .loc 2 536 0
 1299 04b4 4FEA122E 	 lsr lr,r2,#8
 1300              	.LBE548:
 1301              	.LBE547:
 497:../HostCommunication/src/EndpointRadarBase.c ****         protocol_send_payload(message, sizeof(message));
 1302              	 .loc 1 497 0
 1303 04b8 4046     	 mov r0,r8
 1304              	.LVL137:
 1305              	.LBB552:
 1306              	.LBB542:
 534:../HostCommunication/src/PayloadHelper.h ****     payload[offset + 2] = (value >> 16) & 0xFF;
 1307              	 .loc 2 534 0
 1308 04ba 4FEA136A 	 lsr r10,r3,#24
 1309              	.LBE542:
 1310              	.LBE552:
 1311              	.LBB553:
 1312              	.LBB549:
 1313 04be 4FEA1268 	 lsr r8,r2,#24
 1314              	.LVL138:
 1315              	.LBE549:
 1316              	.LBE553:
 1317              	.LBB554:
 1318              	.LBB543:
 535:../HostCommunication/src/PayloadHelper.h ****     payload[offset + 1] = (value >>  8) & 0xFF;
 1319              	 .loc 2 535 0
 1320 04c2 4FEA1349 	 lsr r9,r3,#16
 1321              	.LBE543:
 1322              	.LBE554:
 1323              	.LBB555:
 1324              	.LBB556:
 234:../HostCommunication/src/PayloadHelper.h **** }
 1325              	 .loc 2 234 0
 1326 04c6 4127     	 movs r7,#65
 1327              	.LBE556:
 1328              	.LBE555:
 1329              	.LBB558:
 1330              	.LBB544:
 536:../HostCommunication/src/PayloadHelper.h ****     payload[offset    ] =  value        & 0xFF;
 1331              	 .loc 2 536 0
 1332 04c8 1B0A     	 lsrs r3,r3,#8
 1333              	.LVL139:
 1334              	.LBE544:
 1335              	.LBE558:
 497:../HostCommunication/src/EndpointRadarBase.c ****         protocol_send_payload(message, sizeof(message));
 1336              	 .loc 1 497 0
 1337 04ca 0B21     	 movs r1,#11
 1338              	.LBB559:
 1339              	.LBB545:
 536:../HostCommunication/src/PayloadHelper.h ****     payload[offset    ] =  value        & 0xFF;
 1340              	 .loc 2 536 0
 1341 04cc 8DF84A30 	 strb r3,[sp,#74]
 1342              	.LBE545:
 1343              	.LBE559:
 1344              	.LBB560:
 1345              	.LBB550:
 1346              	 .loc 2 537 0
 1347 04d0 8DF84D20 	 strb r2,[sp,#77]
 1348              	.LVL140:
 535:../HostCommunication/src/PayloadHelper.h ****     payload[offset + 1] = (value >>  8) & 0xFF;
 1349              	 .loc 2 535 0
 1350 04d4 8DF84FC0 	 strb ip,[sp,#79]
 536:../HostCommunication/src/PayloadHelper.h ****     payload[offset    ] =  value        & 0xFF;
 1351              	 .loc 2 536 0
 1352 04d8 8DF84EE0 	 strb lr,[sp,#78]
 1353              	.LBE550:
 1354              	.LBE560:
 1355              	.LBB561:
 1356              	.LBB546:
 534:../HostCommunication/src/PayloadHelper.h ****     payload[offset + 2] = (value >> 16) & 0xFF;
 1357              	 .loc 2 534 0
 1358 04dc 8DF84CA0 	 strb r10,[sp,#76]
 535:../HostCommunication/src/PayloadHelper.h ****     payload[offset + 1] = (value >>  8) & 0xFF;
 1359              	 .loc 2 535 0
 1360 04e0 8DF84B90 	 strb r9,[sp,#75]
 1361              	.LBE546:
 1362              	.LBE561:
 1363              	.LBB562:
 1364              	.LBB551:
 534:../HostCommunication/src/PayloadHelper.h ****     payload[offset + 2] = (value >> 16) & 0xFF;
 1365              	 .loc 2 534 0
 1366 04e4 8DF85080 	 strb r8,[sp,#80]
 1367              	.LBE551:
 1368              	.LBE562:
 1369              	.LBB563:
 1370              	.LBB557:
 234:../HostCommunication/src/PayloadHelper.h **** }
 1371              	 .loc 2 234 0
 1372 04e8 8DF84870 	 strb r7,[sp,#72]
 1373              	.LBE557:
 1374              	.LBE563:
 1375              	.LBB564:
 1376              	.LBB536:
 1377 04ec 8DF85160 	 strb r6,[sp,#81]
 1378              	.LVL141:
 1379              	.LBE536:
 1380              	.LBE564:
 1381              	.LBB565:
 1382              	.LBB539:
 1383 04f0 8DF85250 	 strb r5,[sp,#82]
 1384              	.LBE539:
 1385              	.LBE565:
 497:../HostCommunication/src/EndpointRadarBase.c ****         protocol_send_payload(message, sizeof(message));
 1386              	 .loc 1 497 0
 1387 04f4 FFF7FEFF 	 bl protocol_send_header
 1388              	.LVL142:
 498:../HostCommunication/src/EndpointRadarBase.c ****         protocol_send_tail();
 1389              	 .loc 1 498 0
 1390 04f8 12A8     	 add r0,sp,#72
 1391              	.LVL143:
 1392 04fa 0B21     	 movs r1,#11
 1393 04fc FFF7FEFF 	 bl protocol_send_payload
 1394              	.LVL144:
 499:../HostCommunication/src/EndpointRadarBase.c ****     }
 1395              	 .loc 1 499 0
 1396 0500 FFF7FEFF 	 bl protocol_send_tail
 1397              	.LVL145:
 1398              	.LBE533:
 1399              	.LBE532:
 1400              	.LBE531:
 657:../HostCommunication/src/EndpointRadarBase.c ****         }
 1401              	 .loc 1 657 0
 1402 0504 CEE5     	 b .L2
 1403              	.L94:
 1404 0506 00BF     	 .align 2
 1405              	.L93:
 1406 0508 00000000 	 .word .LANCHOR1
 1407              	.LVL146:
 1408              	.L14:
 662:../HostCommunication/src/EndpointRadarBase.c ****         {
 1409              	 .loc 1 662 0
 1410 050c 0B2D     	 cmp r5,#11
 1411 050e 7FF4C7AD 	 bne .L68
 1412              	.LVL147:
 1413              	.LBB566:
 1414              	.LBB567:
 1415              	.LBB568:
 479:../HostCommunication/src/PayloadHelper.h ****            (((uint32_t)payload[offset + 1]) <<  8) |
 1416              	 .loc 2 479 0
 1417 0512 91F803C0 	 ldrb ip,[r1,#3]
 1418              	.LBE568:
 1419              	.LBE567:
 1420              	.LBB575:
 1421              	.LBB576:
 1422 0516 CE79     	 ldrb r6,[r1,#7]
 1423              	.LBE576:
 1424              	.LBE575:
 1425              	.LBB582:
 1426              	.LBB569:
 478:../HostCommunication/src/PayloadHelper.h ****            (((uint32_t)payload[offset + 2]) << 16) |
 1427              	 .loc 2 478 0
 1428 0518 91F80480 	 ldrb r8,[r1,#4]
 1429              	.LBE569:
 1430              	.LBE582:
 1431              	.LBB583:
 1432              	.LBB577:
 1433 051c 0A7A     	 ldrb r2,[r1,#8]
 1434              	.LBE577:
 1435              	.LBE583:
 1436              	.LBB584:
 1437              	.LBB570:
 481:../HostCommunication/src/PayloadHelper.h **** }
 1438              	 .loc 2 481 0
 1439 051e 4D78     	 ldrb r5,[r1,#1]
 1440              	.LBE570:
 1441              	.LBE584:
 1442              	.LBB585:
 1443              	.LBB578:
 1444 0520 4879     	 ldrb r0,[r1,#5]
 480:../HostCommunication/src/PayloadHelper.h ****             ((uint32_t)payload[offset    ]);
 1445              	 .loc 2 480 0
 1446 0522 91F806E0 	 ldrb lr,[r1,#6]
 1447              	.LBE578:
 1448              	.LBE585:
 670:../HostCommunication/src/EndpointRadarBase.c ****             format.signal_part           = rd_payload_u8 (message_data, 10);
 1449              	 .loc 1 670 0
 1450 0526 91F80990 	 ldrb r9,[r1,#9]
 671:../HostCommunication/src/EndpointRadarBase.c **** 
 1451              	 .loc 1 671 0
 1452 052a 8F7A     	 ldrb r7,[r1,#10]
 1453              	.LBB586:
 1454              	.LBB571:
 480:../HostCommunication/src/PayloadHelper.h ****             ((uint32_t)payload[offset    ]);
 1455              	 .loc 2 480 0
 1456 052c 8C78     	 ldrb r4,[r1,#2]
 1457              	.LBE571:
 1458              	.LBE586:
 674:../HostCommunication/src/EndpointRadarBase.c **** 
 1459              	 .loc 1 674 0
 1460 052e 0293     	 str r3,[sp,#8]
 1461              	.LBB587:
 1462              	.LBB572:
 479:../HostCommunication/src/PayloadHelper.h ****            (((uint32_t)payload[offset + 1]) <<  8) |
 1463              	 .loc 2 479 0
 1464 0530 4FEA0C41 	 lsl r1,ip,#16
 1465              	.LVL148:
 1466              	.LBE572:
 1467              	.LBE587:
 1468              	.LBB588:
 1469              	.LBB579:
 1470 0534 3604     	 lsls r6,r6,#16
 1471              	.LBE579:
 1472              	.LBE588:
 1473              	.LBB589:
 1474              	.LBB573:
 478:../HostCommunication/src/PayloadHelper.h ****            (((uint32_t)payload[offset + 2]) << 16) |
 1475              	 .loc 2 478 0
 1476 0536 41EA0861 	 orr r1,r1,r8,lsl#24
 1477              	.LBE573:
 1478              	.LBE589:
 1479              	.LBB590:
 1480              	.LBB580:
 1481 053a 46EA0262 	 orr r2,r6,r2,lsl#24
 1482 053e 2943     	 orrs r1,r1,r5
 1483 0540 0243     	 orrs r2,r2,r0
 1484              	.LBE580:
 1485              	.LBE590:
 1486              	.LBB591:
 1487              	.LBB574:
 1488 0542 41EA0424 	 orr r4,r1,r4,lsl#8
 1489              	.LBE574:
 1490              	.LBE591:
 1491              	.LBB592:
 1492              	.LBB581:
 1493 0546 42EA0E22 	 orr r2,r2,lr,lsl#8
 1494              	.LBE581:
 1495              	.LBE592:
 674:../HostCommunication/src/EndpointRadarBase.c **** 
 1496              	 .loc 1 674 0
 1497 054a 17A9     	 add r1,sp,#92
 1498 054c 1846     	 mov r0,r3
 668:../HostCommunication/src/EndpointRadarBase.c ****             format.num_chirps_per_frame  = rd_payload_u32(message_data,  5);
 1499              	 .loc 1 668 0
 1500 054e 1794     	 str r4,[sp,#92]
 1501              	.LVL149:
 670:../HostCommunication/src/EndpointRadarBase.c ****             format.signal_part           = rd_payload_u8 (message_data, 10);
 1502              	 .loc 1 670 0
 1503 0550 8DF86490 	 strb r9,[sp,#100]
 669:../HostCommunication/src/EndpointRadarBase.c ****             format.rx_mask               = rd_payload_u8 (message_data,  9);
 1504              	 .loc 1 669 0
 1505 0554 1892     	 str r2,[sp,#96]
 1506              	.LVL150:
 671:../HostCommunication/src/EndpointRadarBase.c **** 
 1507              	 .loc 1 671 0
 1508 0556 8DF86570 	 strb r7,[sp,#101]
 674:../HostCommunication/src/EndpointRadarBase.c **** 
 1509              	 .loc 1 674 0
 1510 055a FFF7FEFF 	 bl radar_set_frame_format
 1511              	.LVL151:
 677:../HostCommunication/src/EndpointRadarBase.c ****                                       EP_RADAR_CHNG_FRAME_FORMAT);
 1512              	 .loc 1 677 0
 1513 055e 029B     	 ldr r3,[sp,#8]
 674:../HostCommunication/src/EndpointRadarBase.c **** 
 1514              	 .loc 1 674 0
 1515 0560 0446     	 mov r4,r0
 1516              	.LVL152:
 677:../HostCommunication/src/EndpointRadarBase.c ****                                       EP_RADAR_CHNG_FRAME_FORMAT);
 1517              	 .loc 1 677 0
 1518 0562 0121     	 movs r1,#1
 1519 0564 1846     	 mov r0,r3
 1520 0566 FFF7FEFF 	 bl protocol_broadcast_change
 1521              	.LVL153:
 1522 056a 9BE5     	 b .L2
 1523              	.LVL154:
 1524              	.L87:
 1525              	.LBE566:
 1526              	.LBB593:
 1527              	.LBB594:
 509:../HostCommunication/src/EndpointRadarBase.c **** 
 1528              	 .loc 1 509 0
 1529 056c 1846     	 mov r0,r3
 1530 056e 17A9     	 add r1,sp,#92
 1531              	.LVL155:
 1532 0570 FFF7FEFF 	 bl radar_get_fft_configuration
 1533              	.LVL156:
 515:../HostCommunication/src/EndpointRadarBase.c **** 
 1534              	 .loc 1 515 0
 1535 0574 199A     	 ldr r2,[sp,#100]
 1536              	.LVL157:
 521:../HostCommunication/src/EndpointRadarBase.c **** 	wr_payload_u8(message,   5, (uint8_t)fft_conf.window_type);
 1537              	 .loc 1 521 0
 1538 0576 179B     	 ldr r3,[sp,#92]
 1539              	.LVL158:
 1540              	.LBB595:
 1541              	.LBB596:
 234:../HostCommunication/src/PayloadHelper.h **** }
 1542              	 .loc 2 234 0
 1543 0578 9DF86140 	 ldrb r4,[sp,#97]
 1544              	.LBE596:
 1545              	.LBE595:
 1546              	.LBB598:
 1547              	.LBB599:
 1548 057c 9DF86050 	 ldrb r5,[sp,#96]
 1549              	.LBE599:
 1550              	.LBE598:
 1551              	.LBB601:
 1552              	.LBB602:
 1553              	 .loc 2 537 0
 1554 0580 8DF84930 	 strb r3,[sp,#73]
 1555              	.LVL159:
 534:../HostCommunication/src/PayloadHelper.h ****     payload[offset + 2] = (value >> 16) & 0xFF;
 1556              	 .loc 2 534 0
 1557 0584 4FEA136E 	 lsr lr,r3,#24
 1558              	.LBE602:
 1559              	.LBE601:
 1560              	.LBB607:
 1561              	.LBB608:
 1562 0588 4FEA1269 	 lsr r9,r2,#24
 536:../HostCommunication/src/PayloadHelper.h ****     payload[offset    ] =  value        & 0xFF;
 1563              	 .loc 2 536 0
 1564 058c 4FEA122C 	 lsr ip,r2,#8
 1565              	.LBE608:
 1566              	.LBE607:
 527:../HostCommunication/src/EndpointRadarBase.c **** 	protocol_send_payload(message, sizeof(message));
 1567              	 .loc 1 527 0
 1568 0590 4046     	 mov r0,r8
 1569              	.LBB612:
 1570              	.LBB603:
 535:../HostCommunication/src/PayloadHelper.h ****     payload[offset + 1] = (value >>  8) & 0xFF;
 1571              	 .loc 2 535 0
 1572 0592 1F0C     	 lsrs r7,r3,#16
 1573              	.LBE603:
 1574              	.LBE612:
 1575              	.LBB613:
 1576              	.LBB609:
 1577 0594 4FEA1248 	 lsr r8,r2,#16
 1578              	.LVL160:
 1579              	.LBE609:
 1580              	.LBE613:
 1581              	.LBB614:
 1582              	.LBB604:
 536:../HostCommunication/src/PayloadHelper.h ****     payload[offset    ] =  value        & 0xFF;
 1583              	 .loc 2 536 0
 1584 0598 1B0A     	 lsrs r3,r3,#8
 1585              	.LVL161:
 1586              	.LBE604:
 1587              	.LBE614:
 1588              	.LBB615:
 1589              	.LBB616:
 234:../HostCommunication/src/PayloadHelper.h **** }
 1590              	 .loc 2 234 0
 1591 059a 4326     	 movs r6,#67
 1592              	.LBE616:
 1593              	.LBE615:
 527:../HostCommunication/src/EndpointRadarBase.c **** 	protocol_send_payload(message, sizeof(message));
 1594              	 .loc 1 527 0
 1595 059c 0B21     	 movs r1,#11
 1596              	.LBB618:
 1597              	.LBB610:
 1598              	 .loc 2 537 0
 1599 059e 8DF84F20 	 strb r2,[sp,#79]
 536:../HostCommunication/src/PayloadHelper.h ****     payload[offset    ] =  value        & 0xFF;
 1600              	 .loc 2 536 0
 1601 05a2 8DF850C0 	 strb ip,[sp,#80]
 1602              	.LBE610:
 1603              	.LBE618:
 1604              	.LBB619:
 1605              	.LBB605:
 534:../HostCommunication/src/PayloadHelper.h ****     payload[offset + 2] = (value >> 16) & 0xFF;
 1606              	 .loc 2 534 0
 1607 05a6 8DF84CE0 	 strb lr,[sp,#76]
 536:../HostCommunication/src/PayloadHelper.h ****     payload[offset    ] =  value        & 0xFF;
 1608              	 .loc 2 536 0
 1609 05aa 8DF84A30 	 strb r3,[sp,#74]
 1610              	.LBE605:
 1611              	.LBE619:
 1612              	.LBB620:
 1613              	.LBB597:
 234:../HostCommunication/src/PayloadHelper.h **** }
 1614              	 .loc 2 234 0
 1615 05ae 8DF84E40 	 strb r4,[sp,#78]
 1616              	.LBE597:
 1617              	.LBE620:
 1618              	.LBB621:
 1619              	.LBB611:
 534:../HostCommunication/src/PayloadHelper.h ****     payload[offset + 2] = (value >> 16) & 0xFF;
 1620              	 .loc 2 534 0
 1621 05b2 8DF85290 	 strb r9,[sp,#82]
 535:../HostCommunication/src/PayloadHelper.h ****     payload[offset + 1] = (value >>  8) & 0xFF;
 1622              	 .loc 2 535 0
 1623 05b6 8DF85180 	 strb r8,[sp,#81]
 1624              	.LBE611:
 1625              	.LBE621:
 1626              	.LBB622:
 1627              	.LBB606:
 1628 05ba 8DF84B70 	 strb r7,[sp,#75]
 1629              	.LBE606:
 1630              	.LBE622:
 1631              	.LBB623:
 1632              	.LBB617:
 234:../HostCommunication/src/PayloadHelper.h **** }
 1633              	 .loc 2 234 0
 1634 05be 8DF84860 	 strb r6,[sp,#72]
 1635              	.LBE617:
 1636              	.LBE623:
 1637              	.LBB624:
 1638              	.LBB600:
 1639 05c2 8DF84D50 	 strb r5,[sp,#77]
 1640              	.LVL162:
 1641              	.LBE600:
 1642              	.LBE624:
 527:../HostCommunication/src/EndpointRadarBase.c **** 	protocol_send_payload(message, sizeof(message));
 1643              	 .loc 1 527 0
 1644 05c6 FFF7FEFF 	 bl protocol_send_header
 1645              	.LVL163:
 528:../HostCommunication/src/EndpointRadarBase.c **** 	protocol_send_tail();
 1646              	 .loc 1 528 0
 1647 05ca 12A8     	 add r0,sp,#72
 1648              	.LVL164:
 1649 05cc 0B21     	 movs r1,#11
 1650 05ce FFF7FEFF 	 bl protocol_send_payload
 1651              	.LVL165:
 1652              	.LBE594:
 1653              	.LBE593:
 686:../HostCommunication/src/EndpointRadarBase.c **** 		}
 1654              	 .loc 1 686 0
 1655 05d2 0024     	 movs r4,#0
 1656              	.LVL166:
 1657              	.LBB626:
 1658              	.LBB625:
 529:../HostCommunication/src/EndpointRadarBase.c **** 
 1659              	 .loc 1 529 0
 1660 05d4 FFF7FEFF 	 bl protocol_send_tail
 1661              	.LVL167:
 1662              	.LBE625:
 1663              	.LBE626:
 686:../HostCommunication/src/EndpointRadarBase.c **** 		}
 1664              	 .loc 1 686 0
 1665 05d8 64E5     	 b .L2
 1666              	.LVL168:
 1667              	.L89:
 1668              	.LBB627:
 1669              	.LBB407:
 1670              	.LBB406:
 1671              	.LBB405:
 1672              	.LBB382:
 250:../HostCommunication/src/EndpointRadarBase.c **** 			uint32_t chirp_inc   = channel_inc * frame_info.num_rx_antennas * (frame_info.data_format == RAD
 1673              	 .loc 1 250 0
 1674 05da 1B9B     	 ldr r3,[sp,#108]
 1675 05dc 0293     	 str r3,[sp,#8]
 1676 05de 1946     	 mov r1,r3
 251:../HostCommunication/src/EndpointRadarBase.c **** 
 1677              	 .loc 1 251 0
 1678 05e0 9DF87730 	 ldrb r3,[sp,#119]
 1679 05e4 0893     	 str r3,[sp,#32]
 1680 05e6 1846     	 mov r0,r3
 1681 05e8 9DF86830 	 ldrb r3,[sp,#104]
 1682 05ec 0493     	 str r3,[sp,#16]
 1683 05ee 1D46     	 mov r5,r3
 1684              	.LVL169:
 1685              	.LBB383:
 255:../HostCommunication/src/EndpointRadarBase.c **** 			{
 1686              	 .loc 1 255 0
 1687 05f0 199B     	 ldr r3,[sp,#100]
 1688 05f2 0D93     	 str r3,[sp,#52]
 1689              	.LBE383:
 251:../HostCommunication/src/EndpointRadarBase.c **** 
 1690              	 .loc 1 251 0
 1691 05f4 A042     	 cmp r0,r4
 1692              	.LBB402:
 255:../HostCommunication/src/EndpointRadarBase.c **** 			{
 1693              	 .loc 1 255 0
 1694 05f6 1E46     	 mov r6,r3
 1695              	.LVL170:
 1696              	.LBE402:
 250:../HostCommunication/src/EndpointRadarBase.c **** 			uint32_t chirp_inc   = channel_inc * frame_info.num_rx_antennas * (frame_info.data_format == RAD
 1697              	 .loc 1 250 0
 1698 05f8 4FEA4109 	 lsl r9,r1,#1
 248:../HostCommunication/src/EndpointRadarBase.c **** 
 1699              	 .loc 1 248 0
 1700 05fc 179B     	 ldr r3,[sp,#92]
 1701 05fe 0793     	 str r3,[sp,#28]
 1702              	.LVL171:
 251:../HostCommunication/src/EndpointRadarBase.c **** 
 1703              	 .loc 1 251 0
 1704 0600 08BF     	 it eq
 1705 0602 0122     	 moveq r2,#1
 1706 0604 09FB05F3 	 mul r3,r9,r5
 1707              	.LVL172:
 1708 0608 18BF     	 it ne
 1709 060a 0222     	 movne r2,#2
 1710 060c 02FB03F3 	 mul r3,r2,r3
 1711 0610 0C93     	 str r3,[sp,#48]
 1712              	.LVL173:
 1713              	.LBB403:
 255:../HostCommunication/src/EndpointRadarBase.c **** 			{
 1714              	 .loc 1 255 0
 1715 0612 002E     	 cmp r6,#0
 1716 0614 4ED0     	 beq .L22
 1717 0616 8B1E     	 subs r3,r1,#2
 1718              	.LVL174:
 1719 0618 5B08     	 lsrs r3,r3,#1
 1720 061a 0133     	 adds r3,r3,#1
 1721 061c 03EB4303 	 add r3,r3,r3,lsl#1
 1722 0620 0129     	 cmp r1,#1
 1723 0622 0393     	 str r3,[sp,#12]
 1724 0624 98BF     	 it ls
 1725 0626 2346     	 movls r3,r4
 1726 0628 11F00102 	 ands r2,r1,#1
 1727 062c 08BF     	 it eq
 1728 062e 9B46     	 moveq fp,r3
 1729 0630 DFF810E1 	 ldr lr,.L95
 1730 0634 9DF87430 	 ldrb r3,[sp,#116]
 1731 0638 CDF83C80 	 str r8,[sp,#60]
 1732 063c 0994     	 str r4,[sp,#36]
 1733 063e 18BF     	 it ne
 1734 0640 4FF0FF3B 	 movne fp,#-1
 1735 0644 0A94     	 str r4,[sp,#40]
 1736 0646 0593     	 str r3,[sp,#20]
 1737 0648 9046     	 mov r8,r2
 1738              	.LVL175:
 1739              	.L23:
 1740              	.LBB384:
 257:../HostCommunication/src/EndpointRadarBase.c **** 				{
 1741              	 .loc 1 257 0
 1742 064a 049B     	 ldr r3,[sp,#16]
 1743 064c 33B3     	 cbz r3,.L31
 1744 064e 099B     	 ldr r3,[sp,#36]
 1745 0650 0433     	 adds r3,r3,#4
 1746 0652 4FF0000A 	 mov r10,#0
 1747 0656 0693     	 str r3,[sp,#24]
 1748              	.LVL176:
 1749              	.L30:
 1750              	.LBB385:
 259:../HostCommunication/src/EndpointRadarBase.c **** 					if( (mask & frame_info.rx_mask) != 0 )
 1751              	 .loc 1 259 0
 1752 0658 0123     	 movs r3,#1
 260:../HostCommunication/src/EndpointRadarBase.c **** 					{
 1753              	 .loc 1 260 0
 1754 065a 059A     	 ldr r2,[sp,#20]
 259:../HostCommunication/src/EndpointRadarBase.c **** 					if( (mask & frame_info.rx_mask) != 0 )
 1755              	 .loc 1 259 0
 1756 065c 03FA0AF3 	 lsl r3,r3,r10
 260:../HostCommunication/src/EndpointRadarBase.c **** 					{
 1757              	 .loc 1 260 0
 1758 0660 1A42     	 tst r2,r3
 1759 0662 16D0     	 beq .L24
 1760              	.LBB386:
 262:../HostCommunication/src/EndpointRadarBase.c **** 						for(uint32_t ch_idx = 0; ch_idx < num_chan_per_ant; ch_idx++)
 1761              	 .loc 1 262 0
 1762 0664 089B     	 ldr r3,[sp,#32]
 1763 0666 002B     	 cmp r3,#0
 1764 0668 069B     	 ldr r3,[sp,#24]
 1765 066a 0CBF     	 ite eq
 1766 066c 4FF0010C 	 moveq ip,#1
 1767 0670 4FF0020C 	 movne ip,#2
 1768              	.LVL177:
 1769 0674 09FB0AF7 	 mul r7,r9,r10
 1770 0678 0CFB0737 	 mla r7,ip,r7,r3
 1771 067c 079B     	 ldr r3,[sp,#28]
 1772              	.LBB387:
 263:../HostCommunication/src/EndpointRadarBase.c **** 						{
 1773              	 .loc 1 263 0
 1774 067e 0026     	 movs r6,#0
 1775 0680 1F44     	 add r7,r7,r3
 1776              	.LVL178:
 1777              	.L29:
 1778              	.LBB388:
 1779              	.LBB389:
 1780              	.LBB390:
 152:../HostCommunication/src/EndpointRadarBase.c **** 		return -1;
 1781              	 .loc 1 152 0
 1782 0682 B8F1000F 	 cmp r8,#0
 1783 0686 1AD0     	 beq .L91
 1784              	.LVL179:
 1785              	.L26:
 1786              	.LBE390:
 1787              	.LBE389:
 1788              	.LBE388:
 263:../HostCommunication/src/EndpointRadarBase.c **** 						{
 1789              	 .loc 1 263 0
 1790 0688 0136     	 adds r6,r6,#1
 1791              	.LVL180:
 1792 068a 6645     	 cmp r6,ip
 1793              	.LBB396:
 268:../HostCommunication/src/EndpointRadarBase.c **** 							processed_out_bytes += out_offset;
 1794              	 .loc 1 268 0
 1795 068c DE44     	 add lr,lr,fp
 1796              	.LVL181:
 1797 068e 4F44     	 add r7,r7,r9
 1798              	.LBE396:
 263:../HostCommunication/src/EndpointRadarBase.c **** 						{
 1799              	 .loc 1 263 0
 1800 0690 F7D1     	 bne .L29
 1801              	.LVL182:
 1802              	.L24:
 1803              	.LBE387:
 1804              	.LBE386:
 1805              	.LBE385:
 257:../HostCommunication/src/EndpointRadarBase.c **** 				{
 1806              	 .loc 1 257 0
 1807 0692 049B     	 ldr r3,[sp,#16]
 1808 0694 0AF1010A 	 add r10,r10,#1
 1809              	.LVL183:
 1810 0698 5345     	 cmp r3,r10
 1811 069a DDD1     	 bne .L30
 1812              	.LVL184:
 1813              	.L31:
 1814 069c 099A     	 ldr r2,[sp,#36]
 1815 069e 0C99     	 ldr r1,[sp,#48]
 1816              	.LBE384:
 255:../HostCommunication/src/EndpointRadarBase.c **** 			{
 1817              	 .loc 1 255 0
 1818 06a0 0A9B     	 ldr r3,[sp,#40]
 1819 06a2 0A44     	 add r2,r2,r1
 1820 06a4 0992     	 str r2,[sp,#36]
 1821 06a6 0D9A     	 ldr r2,[sp,#52]
 1822 06a8 0133     	 adds r3,r3,#1
 1823 06aa 9342     	 cmp r3,r2
 1824 06ac 0A93     	 str r3,[sp,#40]
 1825              	.LVL185:
 1826 06ae CCD1     	 bne .L23
 1827 06b0 DDF83C80 	 ldr r8,[sp,#60]
 1828              	.LVL186:
 1829              	.L22:
 1830              	.LBE403:
 275:../HostCommunication/src/EndpointRadarBase.c ****         }
 1831              	 .loc 1 275 0
 1832 06b4 0E99     	 ldr r1,[sp,#56]
 1833 06b6 2348     	 ldr r0,.L95
 1834 06b8 FFF7FEFF 	 bl protocol_send_payload
 1835              	.LVL187:
 1836 06bc 9AE5     	 b .L32
 1837              	.LVL188:
 1838              	.L91:
 1839              	.LBB404:
 1840              	.LBB401:
 1841              	.LBB400:
 1842              	.LBB399:
 1843              	.LBB398:
 1844              	.LBB397:
 1845              	.LBB395:
 1846              	.LBB394:
 157:../HostCommunication/src/EndpointRadarBase.c **** 	{
 1847              	 .loc 1 157 0
 1848 06be 029B     	 ldr r3,[sp,#8]
 1849 06c0 012B     	 cmp r3,#1
 1850 06c2 E1D9     	 bls .L26
 1851 06c4 039B     	 ldr r3,[sp,#12]
 1852 06c6 3946     	 mov r1,r7
 1853 06c8 0EEB0305 	 add r5,lr,r3
 1854 06cc 7246     	 mov r2,lr
 1855              	.LVL189:
 1856              	.L28:
 1857              	.LBB391:
 162:../HostCommunication/src/EndpointRadarBase.c **** 
 1858              	 .loc 1 162 0
 1859 06ce 31F8020C 	 ldrh r0,[r1,#-2]
 161:../HostCommunication/src/EndpointRadarBase.c **** 		packed_word |= *p_src++ << 12;
 1860              	 .loc 1 161 0
 1861 06d2 31F8043C 	 ldrh r3,[r1,#-4]
 1862              	.LVL190:
 162:../HostCommunication/src/EndpointRadarBase.c **** 
 1863              	 .loc 1 162 0
 1864 06d6 43EA0033 	 orr r3,r3,r0,lsl#12
 1865              	.LVL191:
 1866              	.LBB392:
 1867              	.LBB393:
 534:../HostCommunication/src/PayloadHelper.h ****     payload[offset + 2] = (value >> 16) & 0xFF;
 1868              	 .loc 2 534 0
 1869 06da 180E     	 lsrs r0,r3,#24
 1870 06dc D070     	 strb r0,[r2,#3]
 535:../HostCommunication/src/PayloadHelper.h ****     payload[offset + 1] = (value >>  8) & 0xFF;
 1871              	 .loc 2 535 0
 1872 06de 1C0C     	 lsrs r4,r3,#16
 536:../HostCommunication/src/PayloadHelper.h ****     payload[offset    ] =  value        & 0xFF;
 1873              	 .loc 2 536 0
 1874 06e0 180A     	 lsrs r0,r3,#8
 535:../HostCommunication/src/PayloadHelper.h ****     payload[offset + 1] = (value >>  8) & 0xFF;
 1875              	 .loc 2 535 0
 1876 06e2 9470     	 strb r4,[r2,#2]
 536:../HostCommunication/src/PayloadHelper.h ****     payload[offset    ] =  value        & 0xFF;
 1877              	 .loc 2 536 0
 1878 06e4 5070     	 strb r0,[r2,#1]
 1879              	 .loc 2 537 0
 1880 06e6 02F8033B 	 strb r3,[r2],#3
 1881              	.LVL192:
 1882              	.LBE393:
 1883              	.LBE392:
 1884              	.LBE391:
 157:../HostCommunication/src/EndpointRadarBase.c **** 	{
 1885              	 .loc 1 157 0
 1886 06ea AA42     	 cmp r2,r5
 1887 06ec 01F10401 	 add r1,r1,#4
 1888              	.LVL193:
 1889 06f0 EDD1     	 bne .L28
 1890 06f2 C9E7     	 b .L26
 1891              	.LVL194:
 1892              	.L88:
 1893              	.LBE394:
 1894              	.LBE395:
 1895              	.LBE397:
 1896              	.LBE398:
 1897              	.LBE399:
 1898              	.LBE400:
 1899              	.LBE401:
 1900              	.LBE404:
 1901              	.LBE382:
 204:../HostCommunication/src/EndpointRadarBase.c **** 			{
 1902              	 .loc 1 204 0
 1903 06f4 9DF874C0 	 ldrb ip,[sp,#116]
 1904 06f8 BCF1010F 	 cmp ip,#1
 1905 06fc E146     	 mov r9,ip
 1906 06fe 0AD0     	 beq .L50
 210:../HostCommunication/src/EndpointRadarBase.c **** 			{
 1907              	 .loc 1 210 0
 1908 0700 BCF1020F 	 cmp ip,#2
 1909 0704 0ED0     	 beq .L92
 1910 0706 A946     	 mov r9,r5
 199:../HostCommunication/src/EndpointRadarBase.c **** 
 1911              	 .loc 1 199 0
 1912 0708 2946     	 mov r1,r5
 1913 070a 1B9B     	 ldr r3,[sp,#108]
 1914 070c 199A     	 ldr r2,[sp,#100]
 1915 070e 9DF877E0 	 ldrb lr,[sp,#119]
 197:../HostCommunication/src/EndpointRadarBase.c **** 
 1916              	 .loc 1 197 0
 1917 0712 0B9D     	 ldr r5,[sp,#44]
 1918 0714 E3E4     	 b .L17
 1919              	.L50:
 207:../HostCommunication/src/EndpointRadarBase.c **** 
 1920              	 .loc 1 207 0
 1921 0716 6146     	 mov r1,ip
 206:../HostCommunication/src/EndpointRadarBase.c **** 				num_used_ant = 1;
 1922              	 .loc 1 206 0
 1923 0718 0B9D     	 ldr r5,[sp,#44]
 1924 071a 1B9B     	 ldr r3,[sp,#108]
 1925 071c 199A     	 ldr r2,[sp,#100]
 1926 071e 9DF877E0 	 ldrb lr,[sp,#119]
 1927 0722 DCE4     	 b .L17
 1928              	.L92:
 1929              	.LVL195:
 215:../HostCommunication/src/EndpointRadarBase.c **** 						(frame_info.data_format == RADAR_RX_DATA_REAL ? 1 : 2);
 1930              	 .loc 1 215 0
 1931 0724 9DF877E0 	 ldrb lr,[sp,#119]
 213:../HostCommunication/src/EndpointRadarBase.c **** 						frame_info.num_samples_per_chirp *
 1932              	 .loc 1 213 0
 1933 0728 1B9B     	 ldr r3,[sp,#108]
 1934 072a 199A     	 ldr r2,[sp,#100]
 215:../HostCommunication/src/EndpointRadarBase.c **** 						(frame_info.data_format == RADAR_RX_DATA_REAL ? 1 : 2);
 1935              	 .loc 1 215 0
 1936 072c BEF1000F 	 cmp lr,#0
 213:../HostCommunication/src/EndpointRadarBase.c **** 						frame_info.num_samples_per_chirp *
 1937              	 .loc 1 213 0
 1938 0730 02FB03F1 	 mul r1,r2,r3
 215:../HostCommunication/src/EndpointRadarBase.c **** 						(frame_info.data_format == RADAR_RX_DATA_REAL ? 1 : 2);
 1939              	 .loc 1 215 0
 1940 0734 0CBF     	 ite eq
 1941 0736 0125     	 moveq r5,#1
 1942 0738 0225     	 movne r5,#2
 213:../HostCommunication/src/EndpointRadarBase.c **** 						frame_info.num_samples_per_chirp *
 1943              	 .loc 1 213 0
 1944 073a 05FB01F5 	 mul r5,r5,r1
 1945              	.LVL196:
 1946 073e B146     	 mov r9,r6
 212:../HostCommunication/src/EndpointRadarBase.c **** 				sample_start = frame_info.num_chirps *
 1947              	 .loc 1 212 0
 1948 0740 0121     	 movs r1,#1
 1949 0742 CCE4     	 b .L17
 1950              	.L96:
 1951              	 .align 2
 1952              	.L95:
 1953 0744 00000000 	 .word .LANCHOR0
 1954              	.LBE405:
 1955              	.LBE406:
 1956              	.LBE407:
 1957              	.LBE627:
 1958              	 .cfi_endproc
 1959              	.LFE496:
 1961              	 .section .text.ep_radar_base_handle_change,"ax",%progbits
 1962              	 .align 2
 1963              	 .global ep_radar_base_handle_change
 1964              	 .thumb
 1965              	 .thumb_func
 1967              	ep_radar_base_handle_change:
 1968              	.LFB497:
 695:../HostCommunication/src/EndpointRadarBase.c **** 
 696:../HostCommunication/src/EndpointRadarBase.c **** void ep_radar_base_handle_change(uint8_t endpoint, void* context,
 697:../HostCommunication/src/EndpointRadarBase.c ****                                  uint32_t what)
 698:../HostCommunication/src/EndpointRadarBase.c **** {
 1969              	 .loc 1 698 0
 1970              	 .cfi_startproc
 1971              	 
 1972              	 
 1973              	.LVL197:
 1974 0000 2DE9F047 	 push {r4,r5,r6,r7,r8,r9,r10,lr}
 1975              	.LCFI4:
 1976              	 .cfi_def_cfa_offset 32
 1977              	 .cfi_offset 4,-32
 1978              	 .cfi_offset 5,-28
 1979              	 .cfi_offset 6,-24
 1980              	 .cfi_offset 7,-20
 1981              	 .cfi_offset 8,-16
 1982              	 .cfi_offset 9,-12
 1983              	 .cfi_offset 10,-8
 1984              	 .cfi_offset 14,-4
 699:../HostCommunication/src/EndpointRadarBase.c ****     Radar_Handle_t radar_driver = (Radar_Handle_t)context;
 700:../HostCommunication/src/EndpointRadarBase.c **** 
 701:../HostCommunication/src/EndpointRadarBase.c ****     switch (what)
 1985              	 .loc 1 701 0
 1986 0004 013A     	 subs r2,r2,#1
 1987              	.LVL198:
 698:../HostCommunication/src/EndpointRadarBase.c ****     Radar_Handle_t radar_driver = (Radar_Handle_t)context;
 1988              	 .loc 1 698 0
 1989 0006 86B0     	 sub sp,sp,#24
 1990              	.LCFI5:
 1991              	 .cfi_def_cfa_offset 56
 698:../HostCommunication/src/EndpointRadarBase.c ****     Radar_Handle_t radar_driver = (Radar_Handle_t)context;
 1992              	 .loc 1 698 0
 1993 0008 8046     	 mov r8,r0
 1994 000a 0D46     	 mov r5,r1
 1995              	.LVL199:
 1996              	 .loc 1 701 0
 1997 000c 042A     	 cmp r2,#4
 1998 000e 4ED8     	 bhi .L97
 1999 0010 DFE802F0 	 tbb [pc,r2]
 2000              	.L100:
 2001 0014 03       	 .byte (.L99-.L100)/2
 2002 0015 50       	 .byte (.L110-.L100)/2
 2003 0016 50       	 .byte (.L110-.L100)/2
 2004 0017 84       	 .byte (.L102-.L100)/2
 2005 0018 50       	 .byte (.L110-.L100)/2
 2006 0019 00       	 .p2align 1
 2007              	.L99:
 2008              	.LVL200:
 2009              	.LBB680:
 2010              	.LBB681:
 483:../HostCommunication/src/EndpointRadarBase.c **** 
 2011              	 .loc 1 483 0
 2012 001a 03A9     	 add r1,sp,#12
 2013              	.LVL201:
 2014 001c 2846     	 mov r0,r5
 2015              	.LVL202:
 2016 001e FFF7FEFF 	 bl radar_get_frame_format
 2017              	.LVL203:
 485:../HostCommunication/src/EndpointRadarBase.c ****     {
 2018              	 .loc 1 485 0
 2019 0022 0028     	 cmp r0,#0
 2020 0024 00F0A180 	 beq .L115
 2021 0028 6F46     	 mov r7,sp
 2022              	.LVL204:
 2023              	.L103:
 2024              	.LBE681:
 2025              	.LBE680:
 2026              	.LBB710:
 2027              	.LBB711:
 432:../HostCommunication/src/EndpointRadarBase.c **** 
 2028              	 .loc 1 432 0
 2029 002a 2846     	 mov r0,r5
 2030 002c 3946     	 mov r1,r7
 2031 002e FFF7FEFF 	 bl radar_get_chirp_duration
 2032              	.LVL205:
 434:../HostCommunication/src/EndpointRadarBase.c ****     {
 2033              	 .loc 1 434 0
 2034 0032 C0B9     	 cbnz r0,.L104
 2035              	.LVL206:
 2036              	.LBB712:
 440:../HostCommunication/src/EndpointRadarBase.c **** 
 2037              	 .loc 1 440 0
 2038 0034 009B     	 ldr r3,[sp]
 2039              	.LVL207:
 2040              	.LBB713:
 2041              	.LBB714:
 2042              	 .loc 2 537 0
 2043 0036 8DF80D30 	 strb r3,[sp,#13]
 2044              	.LBE714:
 2045              	.LBE713:
 2046              	.LBB719:
 2047              	.LBB720:
 234:../HostCommunication/src/PayloadHelper.h **** }
 2048              	 .loc 2 234 0
 2049 003a 3522     	 movs r2,#53
 2050              	.LBE720:
 2051              	.LBE719:
 2052              	.LBB722:
 2053              	.LBB715:
 534:../HostCommunication/src/PayloadHelper.h ****     payload[offset + 2] = (value >> 16) & 0xFF;
 2054              	 .loc 2 534 0
 2055 003c 1E0E     	 lsrs r6,r3,#24
 535:../HostCommunication/src/PayloadHelper.h ****     payload[offset + 1] = (value >>  8) & 0xFF;
 2056              	 .loc 2 535 0
 2057 003e 1C0C     	 lsrs r4,r3,#16
 2058              	.LBE715:
 2059              	.LBE722:
 443:../HostCommunication/src/EndpointRadarBase.c ****         protocol_send_payload(message, sizeof(message));
 2060              	 .loc 1 443 0
 2061 0040 4046     	 mov r0,r8
 2062              	.LVL208:
 2063              	.LBB723:
 2064              	.LBB716:
 536:../HostCommunication/src/PayloadHelper.h ****     payload[offset    ] =  value        & 0xFF;
 2065              	 .loc 2 536 0
 2066 0042 1B0A     	 lsrs r3,r3,#8
 2067              	.LVL209:
 2068              	.LBE716:
 2069              	.LBE723:
 443:../HostCommunication/src/EndpointRadarBase.c ****         protocol_send_payload(message, sizeof(message));
 2070              	 .loc 1 443 0
 2071 0044 0521     	 movs r1,#5
 2072              	.LBB724:
 2073              	.LBB717:
 536:../HostCommunication/src/PayloadHelper.h ****     payload[offset    ] =  value        & 0xFF;
 2074              	 .loc 2 536 0
 2075 0046 8DF80E30 	 strb r3,[sp,#14]
 2076              	.LBE717:
 2077              	.LBE724:
 2078              	.LBB725:
 2079              	.LBB721:
 234:../HostCommunication/src/PayloadHelper.h **** }
 2080              	 .loc 2 234 0
 2081 004a 8DF80C20 	 strb r2,[sp,#12]
 2082              	.LBE721:
 2083              	.LBE725:
 2084              	.LBB726:
 2085              	.LBB718:
 534:../HostCommunication/src/PayloadHelper.h ****     payload[offset + 2] = (value >> 16) & 0xFF;
 2086              	 .loc 2 534 0
 2087 004e 8DF81060 	 strb r6,[sp,#16]
 535:../HostCommunication/src/PayloadHelper.h ****     payload[offset + 1] = (value >>  8) & 0xFF;
 2088              	 .loc 2 535 0
 2089 0052 8DF80F40 	 strb r4,[sp,#15]
 2090              	.LBE718:
 2091              	.LBE726:
 443:../HostCommunication/src/EndpointRadarBase.c ****         protocol_send_payload(message, sizeof(message));
 2092              	 .loc 1 443 0
 2093 0056 FFF7FEFF 	 bl protocol_send_header
 2094              	.LVL210:
 444:../HostCommunication/src/EndpointRadarBase.c ****         protocol_send_tail();
 2095              	 .loc 1 444 0
 2096 005a 03A8     	 add r0,sp,#12
 2097              	.LVL211:
 2098 005c 0521     	 movs r1,#5
 2099 005e FFF7FEFF 	 bl protocol_send_payload
 2100              	.LVL212:
 445:../HostCommunication/src/EndpointRadarBase.c ****     }
 2101              	 .loc 1 445 0
 2102 0062 FFF7FEFF 	 bl protocol_send_tail
 2103              	.LVL213:
 2104              	.L104:
 2105              	.LBE712:
 2106              	.LBE711:
 2107              	.LBE710:
 2108              	.LBB727:
 2109              	.LBB728:
 457:../HostCommunication/src/EndpointRadarBase.c ****                                               &min_frame_interval);
 2110              	 .loc 1 457 0
 2111 0066 3946     	 mov r1,r7
 2112 0068 2846     	 mov r0,r5
 2113 006a FFF7FEFF 	 bl radar_get_min_frame_interval
 2114              	.LVL214:
 460:../HostCommunication/src/EndpointRadarBase.c ****     {
 2115              	 .loc 1 460 0
 2116 006e C0B9     	 cbnz r0,.L105
 2117              	.LVL215:
 2118              	.LBB729:
 466:../HostCommunication/src/EndpointRadarBase.c **** 
 2119              	 .loc 1 466 0
 2120 0070 009B     	 ldr r3,[sp]
 2121              	.LVL216:
 2122              	.LBB730:
 2123              	.LBB731:
 2124              	 .loc 2 537 0
 2125 0072 8DF80D30 	 strb r3,[sp,#13]
 2126              	.LBE731:
 2127              	.LBE730:
 2128              	.LBB735:
 2129              	.LBB736:
 234:../HostCommunication/src/PayloadHelper.h **** }
 2130              	 .loc 2 234 0
 2131 0076 3722     	 movs r2,#55
 2132              	.LBE736:
 2133              	.LBE735:
 469:../HostCommunication/src/EndpointRadarBase.c ****         protocol_send_payload(message, sizeof(message));
 2134              	 .loc 1 469 0
 2135 0078 4046     	 mov r0,r8
 2136              	.LVL217:
 2137              	.LBB738:
 2138              	.LBB732:
 534:../HostCommunication/src/PayloadHelper.h ****     payload[offset + 2] = (value >> 16) & 0xFF;
 2139              	 .loc 2 534 0
 2140 007a 1E0E     	 lsrs r6,r3,#24
 535:../HostCommunication/src/PayloadHelper.h ****     payload[offset + 1] = (value >>  8) & 0xFF;
 2141              	 .loc 2 535 0
 2142 007c 1C0C     	 lsrs r4,r3,#16
 2143              	.LBE732:
 2144              	.LBE738:
 469:../HostCommunication/src/EndpointRadarBase.c ****         protocol_send_payload(message, sizeof(message));
 2145              	 .loc 1 469 0
 2146 007e 0521     	 movs r1,#5
 2147              	.LBB739:
 2148              	.LBB733:
 536:../HostCommunication/src/PayloadHelper.h ****     payload[offset    ] =  value        & 0xFF;
 2149              	 .loc 2 536 0
 2150 0080 1B0A     	 lsrs r3,r3,#8
 2151              	.LVL218:
 2152 0082 8DF80E30 	 strb r3,[sp,#14]
 2153              	.LBE733:
 2154              	.LBE739:
 2155              	.LBB740:
 2156              	.LBB737:
 234:../HostCommunication/src/PayloadHelper.h **** }
 2157              	 .loc 2 234 0
 2158 0086 8DF80C20 	 strb r2,[sp,#12]
 2159              	.LBE737:
 2160              	.LBE740:
 2161              	.LBB741:
 2162              	.LBB734:
 534:../HostCommunication/src/PayloadHelper.h ****     payload[offset + 2] = (value >> 16) & 0xFF;
 2163              	 .loc 2 534 0
 2164 008a 8DF81060 	 strb r6,[sp,#16]
 535:../HostCommunication/src/PayloadHelper.h ****     payload[offset + 1] = (value >>  8) & 0xFF;
 2165              	 .loc 2 535 0
 2166 008e 8DF80F40 	 strb r4,[sp,#15]
 2167              	.LBE734:
 2168              	.LBE741:
 469:../HostCommunication/src/EndpointRadarBase.c ****         protocol_send_payload(message, sizeof(message));
 2169              	 .loc 1 469 0
 2170 0092 FFF7FEFF 	 bl protocol_send_header
 2171              	.LVL219:
 470:../HostCommunication/src/EndpointRadarBase.c ****         protocol_send_tail();
 2172              	 .loc 1 470 0
 2173 0096 03A8     	 add r0,sp,#12
 2174              	.LVL220:
 2175 0098 0521     	 movs r1,#5
 2176 009a FFF7FEFF 	 bl protocol_send_payload
 2177              	.LVL221:
 471:../HostCommunication/src/EndpointRadarBase.c ****     }
 2178              	 .loc 1 471 0
 2179 009e FFF7FEFF 	 bl protocol_send_tail
 2180              	.LVL222:
 2181              	.L105:
 2182              	.LBE729:
 2183              	.LBE728:
 2184              	.LBE727:
 2185              	.LBB742:
 702:../HostCommunication/src/EndpointRadarBase.c ****     {
 703:../HostCommunication/src/EndpointRadarBase.c ****     case EP_RADAR_CHNG_FRAME_FORMAT:
 704:../HostCommunication/src/EndpointRadarBase.c ****         send_frame_format(endpoint, radar_driver);
 705:../HostCommunication/src/EndpointRadarBase.c ****         send_chirp_duration(endpoint, radar_driver);
 706:../HostCommunication/src/EndpointRadarBase.c ****         send_min_frame_interval(endpoint, radar_driver);
 707:../HostCommunication/src/EndpointRadarBase.c **** 
 708:../HostCommunication/src/EndpointRadarBase.c ****         {
 709:../HostCommunication/src/EndpointRadarBase.c ****         	extern uint8_t adc_endpoint;
 710:../HostCommunication/src/EndpointRadarBase.c **** 
 711:../HostCommunication/src/EndpointRadarBase.c ****         	if( adc_endpoint != 0)
 2186              	 .loc 1 711 0
 2187 00a2 584B     	 ldr r3,.L120
 2188 00a4 1878     	 ldrb r0,[r3]
 2189 00a6 10B1     	 cbz r0,.L97
 712:../HostCommunication/src/EndpointRadarBase.c ****         		send_adc_configuration(adc_endpoint,radar_driver); // change
 2190              	 .loc 1 712 0
 2191 00a8 2946     	 mov r1,r5
 2192 00aa FFF7FEFF 	 bl send_adc_configuration
 2193              	.LVL223:
 2194              	.L97:
 2195              	.LBE742:
 713:../HostCommunication/src/EndpointRadarBase.c ****         }
 714:../HostCommunication/src/EndpointRadarBase.c ****         break;
 715:../HostCommunication/src/EndpointRadarBase.c **** 
 716:../HostCommunication/src/EndpointRadarBase.c ****     case EP_RADAR_CHNG_FMCW_SETTINGS:
 717:../HostCommunication/src/EndpointRadarBase.c ****     case EP_RADAR_CHNG_DOPPLER_SETTINGS:
 718:../HostCommunication/src/EndpointRadarBase.c ****     case EP_RADAR_CHNG_TX_MODE:
 719:../HostCommunication/src/EndpointRadarBase.c ****         {
 720:../HostCommunication/src/EndpointRadarBase.c ****             uint8_t tx_antenna = 0;
 721:../HostCommunication/src/EndpointRadarBase.c ****             uint16_t error_code = RADAR_ERR_OK;
 722:../HostCommunication/src/EndpointRadarBase.c **** 
 723:../HostCommunication/src/EndpointRadarBase.c ****             while (error_code == RADAR_ERR_OK)
 724:../HostCommunication/src/EndpointRadarBase.c ****             {
 725:../HostCommunication/src/EndpointRadarBase.c ****                 error_code = send_tx_power(endpoint, radar_driver,
 726:../HostCommunication/src/EndpointRadarBase.c ****                                            tx_antenna++);
 727:../HostCommunication/src/EndpointRadarBase.c ****             }
 728:../HostCommunication/src/EndpointRadarBase.c ****         }
 729:../HostCommunication/src/EndpointRadarBase.c ****         break;
 730:../HostCommunication/src/EndpointRadarBase.c **** 
 731:../HostCommunication/src/EndpointRadarBase.c ****     case EP_RADAR_CHNG_ADC_SETTINGS:
 732:../HostCommunication/src/EndpointRadarBase.c ****         send_chirp_duration(endpoint, radar_driver);
 733:../HostCommunication/src/EndpointRadarBase.c ****         send_min_frame_interval(endpoint, radar_driver);
 734:../HostCommunication/src/EndpointRadarBase.c ****         break;
 735:../HostCommunication/src/EndpointRadarBase.c **** 
 736:../HostCommunication/src/EndpointRadarBase.c ****     default:
 737:../HostCommunication/src/EndpointRadarBase.c ****         break;
 738:../HostCommunication/src/EndpointRadarBase.c ****     }
 739:../HostCommunication/src/EndpointRadarBase.c **** }
 2196              	 .loc 1 739 0
 2197 00ae 06B0     	 add sp,sp,#24
 2198              	.LCFI6:
 2199              	 .cfi_remember_state
 2200              	 .cfi_def_cfa_offset 32
 2201              	 
 2202 00b0 BDE8F087 	 pop {r4,r5,r6,r7,r8,r9,r10,pc}
 2203              	.LVL224:
 2204              	.L110:
 2205              	.LCFI7:
 2206              	 .cfi_restore_state
 701:../HostCommunication/src/EndpointRadarBase.c ****     {
 2207              	 .loc 1 701 0
 2208 00b4 0026     	 movs r6,#0
 2209 00b6 6F46     	 mov r7,sp
 2210 00b8 F4B2     	 uxtb r4,r6
 2211              	.LVL225:
 2212              	.LBB743:
 2213              	.LBB744:
 2214              	.LBB745:
 406:../HostCommunication/src/EndpointRadarBase.c **** 
 2215              	 .loc 1 406 0
 2216 00ba 2146     	 mov r1,r4
 2217              	.LVL226:
 2218 00bc 2846     	 mov r0,r5
 2219              	.LVL227:
 2220 00be 3A46     	 mov r2,r7
 2221              	.LBB746:
 2222              	.LBB747:
 2223              	.LBB748:
 234:../HostCommunication/src/PayloadHelper.h **** }
 2224              	 .loc 2 234 0
 2225 00c0 4FF03309 	 mov r9,#51
 2226              	.LBE748:
 2227              	.LBE747:
 2228              	.LBE746:
 406:../HostCommunication/src/EndpointRadarBase.c **** 
 2229              	 .loc 1 406 0
 2230 00c4 FFF7FEFF 	 bl radar_get_tx_power
 2231              	.LVL228:
 408:../HostCommunication/src/EndpointRadarBase.c ****     {
 2232              	 .loc 1 408 0
 2233 00c8 0028     	 cmp r0,#0
 2234 00ca F0D1     	 bne .L97
 2235              	.LVL229:
 2236              	.L118:
 2237              	.LBB757:
 415:../HostCommunication/src/EndpointRadarBase.c **** 
 2238              	 .loc 1 415 0
 2239 00cc 009B     	 ldr r3,[sp]
 2240              	.LBB750:
 2241              	.LBB751:
 528:../HostCommunication/src/PayloadHelper.h **** }
 2242              	 .loc 2 528 0
 2243 00ce 8DF80E30 	 strb r3,[sp,#14]
 527:../HostCommunication/src/PayloadHelper.h ****     payload[offset    ] =  ((uint32_t)value)        & 0xFF;
 2244              	 .loc 2 527 0
 2245 00d2 1A0A     	 lsrs r2,r3,#8
 525:../HostCommunication/src/PayloadHelper.h ****     payload[offset + 2] = (((uint32_t)value) >> 16) & 0xFF;
 2246              	 .loc 2 525 0
 2247 00d4 4FEA136C 	 lsr ip,r3,#24
 526:../HostCommunication/src/PayloadHelper.h ****     payload[offset + 1] = (((uint32_t)value) >>  8) & 0xFF;
 2248              	 .loc 2 526 0
 2249 00d8 4FEA134E 	 lsr lr,r3,#16
 2250              	.LBE751:
 2251              	.LBE750:
 418:../HostCommunication/src/EndpointRadarBase.c ****         protocol_send_payload(message, sizeof(message));
 2252              	 .loc 1 418 0
 2253 00dc 4046     	 mov r0,r8
 2254              	.LVL230:
 2255 00de 0621     	 movs r1,#6
 2256 00e0 0136     	 adds r6,r6,#1
 2257              	.LBB753:
 2258              	.LBB752:
 527:../HostCommunication/src/PayloadHelper.h ****     payload[offset    ] =  ((uint32_t)value)        & 0xFF;
 2259              	 .loc 2 527 0
 2260 00e2 8DF80F20 	 strb r2,[sp,#15]
 525:../HostCommunication/src/PayloadHelper.h ****     payload[offset + 2] = (((uint32_t)value) >> 16) & 0xFF;
 2261              	 .loc 2 525 0
 2262 00e6 8DF811C0 	 strb ip,[sp,#17]
 526:../HostCommunication/src/PayloadHelper.h ****     payload[offset + 1] = (((uint32_t)value) >>  8) & 0xFF;
 2263              	 .loc 2 526 0
 2264 00ea 8DF810E0 	 strb lr,[sp,#16]
 2265              	.LBE752:
 2266              	.LBE753:
 2267              	.LBB754:
 2268              	.LBB755:
 234:../HostCommunication/src/PayloadHelper.h **** }
 2269              	 .loc 2 234 0
 2270 00ee 8DF80D40 	 strb r4,[sp,#13]
 2271              	.LBE755:
 2272              	.LBE754:
 2273              	.LBB756:
 2274              	.LBB749:
 2275 00f2 8DF80C90 	 strb r9,[sp,#12]
 2276              	.LVL231:
 2277 00f6 F4B2     	 uxtb r4,r6
 2278              	.LVL232:
 2279              	.LBE749:
 2280              	.LBE756:
 418:../HostCommunication/src/EndpointRadarBase.c ****         protocol_send_payload(message, sizeof(message));
 2281              	 .loc 1 418 0
 2282 00f8 FFF7FEFF 	 bl protocol_send_header
 2283              	.LVL233:
 419:../HostCommunication/src/EndpointRadarBase.c ****         protocol_send_tail();
 2284              	 .loc 1 419 0
 2285 00fc 03A8     	 add r0,sp,#12
 2286              	.LVL234:
 2287 00fe 0621     	 movs r1,#6
 2288 0100 FFF7FEFF 	 bl protocol_send_payload
 2289              	.LVL235:
 420:../HostCommunication/src/EndpointRadarBase.c ****     }
 2290              	 .loc 1 420 0
 2291 0104 FFF7FEFF 	 bl protocol_send_tail
 2292              	.LVL236:
 2293              	.LBE757:
 406:../HostCommunication/src/EndpointRadarBase.c **** 
 2294              	 .loc 1 406 0
 2295 0108 2146     	 mov r1,r4
 2296 010a 2846     	 mov r0,r5
 2297 010c 3A46     	 mov r2,r7
 2298 010e FFF7FEFF 	 bl radar_get_tx_power
 2299              	.LVL237:
 408:../HostCommunication/src/EndpointRadarBase.c ****     {
 2300              	 .loc 1 408 0
 2301 0112 0028     	 cmp r0,#0
 2302 0114 DAD0     	 beq .L118
 2303              	.LBE745:
 2304              	.LBE744:
 2305              	.LBE743:
 2306              	 .loc 1 739 0
 2307 0116 06B0     	 add sp,sp,#24
 2308              	.LCFI8:
 2309              	 .cfi_remember_state
 2310              	 .cfi_def_cfa_offset 32
 2311              	 
 2312 0118 BDE8F087 	 pop {r4,r5,r6,r7,r8,r9,r10,pc}
 2313              	.LVL238:
 2314              	.L102:
 2315              	.LCFI9:
 2316              	 .cfi_restore_state
 2317              	.LBB758:
 2318              	.LBB759:
 432:../HostCommunication/src/EndpointRadarBase.c **** 
 2319              	 .loc 1 432 0
 2320 011c 6946     	 mov r1,sp
 2321              	.LVL239:
 2322 011e 2846     	 mov r0,r5
 2323              	.LVL240:
 2324 0120 6F46     	 mov r7,sp
 2325 0122 FFF7FEFF 	 bl radar_get_chirp_duration
 2326              	.LVL241:
 434:../HostCommunication/src/EndpointRadarBase.c ****     {
 2327              	 .loc 1 434 0
 2328 0126 0028     	 cmp r0,#0
 2329 0128 52D0     	 beq .L119
 2330              	.LVL242:
 2331              	.L108:
 2332              	.LBE759:
 2333              	.LBE758:
 2334              	.LBB776:
 2335              	.LBB777:
 457:../HostCommunication/src/EndpointRadarBase.c ****                                               &min_frame_interval);
 2336              	 .loc 1 457 0
 2337 012a 2846     	 mov r0,r5
 2338 012c 3946     	 mov r1,r7
 2339 012e FFF7FEFF 	 bl radar_get_min_frame_interval
 2340              	.LVL243:
 460:../HostCommunication/src/EndpointRadarBase.c ****     {
 2341              	 .loc 1 460 0
 2342 0132 0028     	 cmp r0,#0
 2343 0134 BBD1     	 bne .L97
 2344              	.LVL244:
 2345              	.LBB778:
 466:../HostCommunication/src/EndpointRadarBase.c **** 
 2346              	 .loc 1 466 0
 2347 0136 009B     	 ldr r3,[sp]
 2348              	.LVL245:
 2349              	.LBB779:
 2350              	.LBB780:
 2351              	 .loc 2 537 0
 2352 0138 8DF80D30 	 strb r3,[sp,#13]
 2353              	.LBE780:
 2354              	.LBE779:
 2355              	.LBB784:
 2356              	.LBB785:
 234:../HostCommunication/src/PayloadHelper.h **** }
 2357              	 .loc 2 234 0
 2358 013c 3722     	 movs r2,#55
 2359              	.LBE785:
 2360              	.LBE784:
 469:../HostCommunication/src/EndpointRadarBase.c ****         protocol_send_payload(message, sizeof(message));
 2361              	 .loc 1 469 0
 2362 013e 4046     	 mov r0,r8
 2363              	.LVL246:
 2364              	.LBB787:
 2365              	.LBB781:
 534:../HostCommunication/src/PayloadHelper.h ****     payload[offset + 2] = (value >> 16) & 0xFF;
 2366              	 .loc 2 534 0
 2367 0140 1D0E     	 lsrs r5,r3,#24
 2368              	.LVL247:
 535:../HostCommunication/src/PayloadHelper.h ****     payload[offset + 1] = (value >>  8) & 0xFF;
 2369              	 .loc 2 535 0
 2370 0142 1C0C     	 lsrs r4,r3,#16
 2371              	.LBE781:
 2372              	.LBE787:
 469:../HostCommunication/src/EndpointRadarBase.c ****         protocol_send_payload(message, sizeof(message));
 2373              	 .loc 1 469 0
 2374 0144 0521     	 movs r1,#5
 2375              	.LBB788:
 2376              	.LBB782:
 536:../HostCommunication/src/PayloadHelper.h ****     payload[offset    ] =  value        & 0xFF;
 2377              	 .loc 2 536 0
 2378 0146 1B0A     	 lsrs r3,r3,#8
 2379              	.LVL248:
 2380 0148 8DF80E30 	 strb r3,[sp,#14]
 2381              	.LBE782:
 2382              	.LBE788:
 2383              	.LBB789:
 2384              	.LBB786:
 234:../HostCommunication/src/PayloadHelper.h **** }
 2385              	 .loc 2 234 0
 2386 014c 8DF80C20 	 strb r2,[sp,#12]
 2387              	.LBE786:
 2388              	.LBE789:
 2389              	.LBB790:
 2390              	.LBB783:
 534:../HostCommunication/src/PayloadHelper.h ****     payload[offset + 2] = (value >> 16) & 0xFF;
 2391              	 .loc 2 534 0
 2392 0150 8DF81050 	 strb r5,[sp,#16]
 535:../HostCommunication/src/PayloadHelper.h ****     payload[offset + 1] = (value >>  8) & 0xFF;
 2393              	 .loc 2 535 0
 2394 0154 8DF80F40 	 strb r4,[sp,#15]
 2395              	.LBE783:
 2396              	.LBE790:
 469:../HostCommunication/src/EndpointRadarBase.c ****         protocol_send_payload(message, sizeof(message));
 2397              	 .loc 1 469 0
 2398 0158 FFF7FEFF 	 bl protocol_send_header
 2399              	.LVL249:
 470:../HostCommunication/src/EndpointRadarBase.c ****         protocol_send_tail();
 2400              	 .loc 1 470 0
 2401 015c 03A8     	 add r0,sp,#12
 2402              	.LVL250:
 2403 015e 0521     	 movs r1,#5
 2404 0160 FFF7FEFF 	 bl protocol_send_payload
 2405              	.LVL251:
 471:../HostCommunication/src/EndpointRadarBase.c ****     }
 2406              	 .loc 1 471 0
 2407 0164 FFF7FEFF 	 bl protocol_send_tail
 2408              	.LVL252:
 2409 0168 A1E7     	 b .L97
 2410              	.LVL253:
 2411              	.L115:
 2412              	.LBE778:
 2413              	.LBE777:
 2414              	.LBE776:
 2415              	.LBB791:
 2416              	.LBB709:
 2417              	.LBB682:
 491:../HostCommunication/src/EndpointRadarBase.c ****         wr_payload_u32(message,  5, frame_format.num_chirps_per_frame);
 2418              	 .loc 1 491 0
 2419 016a 039B     	 ldr r3,[sp,#12]
 2420              	.LVL254:
 492:../HostCommunication/src/EndpointRadarBase.c ****         wr_payload_u8 (message,  9, frame_format.rx_mask);
 2421              	 .loc 1 492 0
 2422 016c 049A     	 ldr r2,[sp,#16]
 2423              	.LVL255:
 2424              	.LBB683:
 2425              	.LBB684:
 234:../HostCommunication/src/PayloadHelper.h **** }
 2426              	 .loc 2 234 0
 2427 016e 9DF81460 	 ldrb r6,[sp,#20]
 2428              	.LBE684:
 2429              	.LBE683:
 2430              	.LBB686:
 2431              	.LBB687:
 2432 0172 9DF81540 	 ldrb r4,[sp,#21]
 2433              	.LBE687:
 2434              	.LBE686:
 2435              	.LBB689:
 2436              	.LBB690:
 2437              	 .loc 2 537 0
 2438 0176 8DF80130 	 strb r3,[sp,#1]
 534:../HostCommunication/src/PayloadHelper.h ****     payload[offset + 2] = (value >> 16) & 0xFF;
 2439              	 .loc 2 534 0
 2440 017a 190E     	 lsrs r1,r3,#24
 2441              	.LBE690:
 2442              	.LBE689:
 2443              	.LBB694:
 2444              	.LBB695:
 2445 017c 4FEA126A 	 lsr r10,r2,#24
 535:../HostCommunication/src/PayloadHelper.h ****     payload[offset + 1] = (value >>  8) & 0xFF;
 2446              	 .loc 2 535 0
 2447 0180 4FEA1249 	 lsr r9,r2,#16
 536:../HostCommunication/src/PayloadHelper.h ****     payload[offset    ] =  value        & 0xFF;
 2448              	 .loc 2 536 0
 2449 0184 4FEA122C 	 lsr ip,r2,#8
 2450              	.LBE695:
 2451              	.LBE694:
 2452              	.LBB698:
 2453              	.LBB699:
 234:../HostCommunication/src/PayloadHelper.h **** }
 2454              	 .loc 2 234 0
 2455 0188 4FF0410E 	 mov lr,#65
 2456              	.LBE699:
 2457              	.LBE698:
 2458              	.LBB701:
 2459              	.LBB691:
 535:../HostCommunication/src/PayloadHelper.h ****     payload[offset + 1] = (value >>  8) & 0xFF;
 2460              	 .loc 2 535 0
 2461 018c 1F0C     	 lsrs r7,r3,#16
 2462              	.LBE691:
 2463              	.LBE701:
 497:../HostCommunication/src/EndpointRadarBase.c ****         protocol_send_payload(message, sizeof(message));
 2464              	 .loc 1 497 0
 2465 018e 4046     	 mov r0,r8
 2466              	.LVL256:
 2467              	.LBB702:
 2468              	.LBB692:
 536:../HostCommunication/src/PayloadHelper.h ****     payload[offset    ] =  value        & 0xFF;
 2469              	 .loc 2 536 0
 2470 0190 1B0A     	 lsrs r3,r3,#8
 2471              	.LVL257:
 534:../HostCommunication/src/PayloadHelper.h ****     payload[offset + 2] = (value >> 16) & 0xFF;
 2472              	 .loc 2 534 0
 2473 0192 8DF80410 	 strb r1,[sp,#4]
 2474              	.LBE692:
 2475              	.LBE702:
 497:../HostCommunication/src/EndpointRadarBase.c ****         protocol_send_payload(message, sizeof(message));
 2476              	 .loc 1 497 0
 2477 0196 0B21     	 movs r1,#11
 2478              	.LBB703:
 2479              	.LBB693:
 535:../HostCommunication/src/PayloadHelper.h ****     payload[offset + 1] = (value >>  8) & 0xFF;
 2480              	 .loc 2 535 0
 2481 0198 8DF80370 	 strb r7,[sp,#3]
 536:../HostCommunication/src/PayloadHelper.h ****     payload[offset    ] =  value        & 0xFF;
 2482              	 .loc 2 536 0
 2483 019c 8DF80230 	 strb r3,[sp,#2]
 2484              	.LBE693:
 2485              	.LBE703:
 2486              	.LBB704:
 2487              	.LBB696:
 2488              	 .loc 2 537 0
 2489 01a0 8DF80520 	 strb r2,[sp,#5]
 2490              	.LVL258:
 536:../HostCommunication/src/PayloadHelper.h ****     payload[offset    ] =  value        & 0xFF;
 2491              	 .loc 2 536 0
 2492 01a4 8DF806C0 	 strb ip,[sp,#6]
 2493              	.LBE696:
 2494              	.LBE704:
 2495              	.LBB705:
 2496              	.LBB700:
 234:../HostCommunication/src/PayloadHelper.h **** }
 2497              	 .loc 2 234 0
 2498 01a8 8DF800E0 	 strb lr,[sp]
 2499              	.LBE700:
 2500              	.LBE705:
 2501              	.LBB706:
 2502              	.LBB697:
 534:../HostCommunication/src/PayloadHelper.h ****     payload[offset + 2] = (value >> 16) & 0xFF;
 2503              	 .loc 2 534 0
 2504 01ac 8DF808A0 	 strb r10,[sp,#8]
 535:../HostCommunication/src/PayloadHelper.h ****     payload[offset + 1] = (value >>  8) & 0xFF;
 2505              	 .loc 2 535 0
 2506 01b0 8DF80790 	 strb r9,[sp,#7]
 2507              	.LBE697:
 2508              	.LBE706:
 2509              	.LBB707:
 2510              	.LBB685:
 234:../HostCommunication/src/PayloadHelper.h **** }
 2511              	 .loc 2 234 0
 2512 01b4 8DF80960 	 strb r6,[sp,#9]
 2513              	.LVL259:
 2514              	.LBE685:
 2515              	.LBE707:
 2516              	.LBB708:
 2517              	.LBB688:
 2518 01b8 8DF80A40 	 strb r4,[sp,#10]
 2519              	.LBE688:
 2520              	.LBE708:
 497:../HostCommunication/src/EndpointRadarBase.c ****         protocol_send_payload(message, sizeof(message));
 2521              	 .loc 1 497 0
 2522 01bc FFF7FEFF 	 bl protocol_send_header
 2523              	.LVL260:
 498:../HostCommunication/src/EndpointRadarBase.c ****         protocol_send_tail();
 2524              	 .loc 1 498 0
 2525 01c0 6846     	 mov r0,sp
 2526 01c2 0B21     	 movs r1,#11
 2527 01c4 6F46     	 mov r7,sp
 2528 01c6 FFF7FEFF 	 bl protocol_send_payload
 2529              	.LVL261:
 499:../HostCommunication/src/EndpointRadarBase.c ****     }
 2530              	 .loc 1 499 0
 2531 01ca FFF7FEFF 	 bl protocol_send_tail
 2532              	.LVL262:
 2533 01ce 2CE7     	 b .L103
 2534              	.LVL263:
 2535              	.L119:
 2536              	.LBE682:
 2537              	.LBE709:
 2538              	.LBE791:
 2539              	.LBB792:
 2540              	.LBB775:
 2541              	.LBB760:
 440:../HostCommunication/src/EndpointRadarBase.c **** 
 2542              	 .loc 1 440 0
 2543 01d0 009B     	 ldr r3,[sp]
 2544              	.LVL264:
 2545              	.LBB761:
 2546              	.LBB762:
 2547              	 .loc 2 537 0
 2548 01d2 8DF80D30 	 strb r3,[sp,#13]
 2549              	.LBE762:
 2550              	.LBE761:
 2551              	.LBB767:
 2552              	.LBB768:
 234:../HostCommunication/src/PayloadHelper.h **** }
 2553              	 .loc 2 234 0
 2554 01d6 3522     	 movs r2,#53
 2555              	.LBE768:
 2556              	.LBE767:
 2557              	.LBB770:
 2558              	.LBB763:
 534:../HostCommunication/src/PayloadHelper.h ****     payload[offset + 2] = (value >> 16) & 0xFF;
 2559              	 .loc 2 534 0
 2560 01d8 1E0E     	 lsrs r6,r3,#24
 535:../HostCommunication/src/PayloadHelper.h ****     payload[offset + 1] = (value >>  8) & 0xFF;
 2561              	 .loc 2 535 0
 2562 01da 1C0C     	 lsrs r4,r3,#16
 2563              	.LBE763:
 2564              	.LBE770:
 443:../HostCommunication/src/EndpointRadarBase.c ****         protocol_send_payload(message, sizeof(message));
 2565              	 .loc 1 443 0
 2566 01dc 4046     	 mov r0,r8
 2567              	.LVL265:
 2568              	.LBB771:
 2569              	.LBB764:
 536:../HostCommunication/src/PayloadHelper.h ****     payload[offset    ] =  value        & 0xFF;
 2570              	 .loc 2 536 0
 2571 01de 1B0A     	 lsrs r3,r3,#8
 2572              	.LVL266:
 2573              	.LBE764:
 2574              	.LBE771:
 443:../HostCommunication/src/EndpointRadarBase.c ****         protocol_send_payload(message, sizeof(message));
 2575              	 .loc 1 443 0
 2576 01e0 0521     	 movs r1,#5
 2577              	.LBB772:
 2578              	.LBB765:
 536:../HostCommunication/src/PayloadHelper.h ****     payload[offset    ] =  value        & 0xFF;
 2579              	 .loc 2 536 0
 2580 01e2 8DF80E30 	 strb r3,[sp,#14]
 2581              	.LBE765:
 2582              	.LBE772:
 2583              	.LBB773:
 2584              	.LBB769:
 234:../HostCommunication/src/PayloadHelper.h **** }
 2585              	 .loc 2 234 0
 2586 01e6 8DF80C20 	 strb r2,[sp,#12]
 2587              	.LBE769:
 2588              	.LBE773:
 2589              	.LBB774:
 2590              	.LBB766:
 534:../HostCommunication/src/PayloadHelper.h ****     payload[offset + 2] = (value >> 16) & 0xFF;
 2591              	 .loc 2 534 0
 2592 01ea 8DF81060 	 strb r6,[sp,#16]
 535:../HostCommunication/src/PayloadHelper.h ****     payload[offset + 1] = (value >>  8) & 0xFF;
 2593              	 .loc 2 535 0
 2594 01ee 8DF80F40 	 strb r4,[sp,#15]
 2595              	.LBE766:
 2596              	.LBE774:
 443:../HostCommunication/src/EndpointRadarBase.c ****         protocol_send_payload(message, sizeof(message));
 2597              	 .loc 1 443 0
 2598 01f2 FFF7FEFF 	 bl protocol_send_header
 2599              	.LVL267:
 444:../HostCommunication/src/EndpointRadarBase.c ****         protocol_send_tail();
 2600              	 .loc 1 444 0
 2601 01f6 03A8     	 add r0,sp,#12
 2602              	.LVL268:
 2603 01f8 0521     	 movs r1,#5
 2604 01fa FFF7FEFF 	 bl protocol_send_payload
 2605              	.LVL269:
 445:../HostCommunication/src/EndpointRadarBase.c ****     }
 2606              	 .loc 1 445 0
 2607 01fe FFF7FEFF 	 bl protocol_send_tail
 2608              	.LVL270:
 2609 0202 92E7     	 b .L108
 2610              	.L121:
 2611              	 .align 2
 2612              	.L120:
 2613 0204 00000000 	 .word adc_endpoint
 2614              	.LBE760:
 2615              	.LBE775:
 2616              	.LBE792:
 2617              	 .cfi_endproc
 2618              	.LFE497:
 2620              	 .section .bss.previous_temp.18299,"aw",%nobits
 2621              	 .align 2
 2622              	 .set .LANCHOR1,.+0
 2625              	previous_temp.18299:
 2626 0000 00000000 	 .space 4
 2627              	 .section .bss.transport_buffer.18264,"aw",%nobits
 2628              	 .align 2
 2629              	 .set .LANCHOR0,.+0
 2632              	transport_buffer.18264:
 2633 0000 00000000 	 .space 32768
 2633      00000000 
 2633      00000000 
 2633      00000000 
 2633      00000000 
 2634              	 .text
 2635              	.Letext0:
 2636              	 .file 3 "c:\\infineon\\tools\\dave ide\\4.5.0.202105191637\\eclipse\\arm-gcc-49\\arm-none-eabi\\include\\machine\\_default_types.h"
 2637              	 .file 4 "c:\\infineon\\tools\\dave ide\\4.5.0.202105191637\\eclipse\\arm-gcc-49\\arm-none-eabi\\include\\stdint.h"
 2638              	 .file 5 "c:\\infineon\\tools\\dave ide\\4.5.0.202105191637\\eclipse\\arm-gcc-49\\lib\\gcc\\arm-none-eabi\\4.9.3\\include\\stddef.h"
 2639              	 .file 6 "E:/NOVA/Assets/IFX_P2G-HW-SW_V1.0.4/Firmware_Software/DAVE project/P2G_FW/Radar_Control/inc/radar_control.h"
 2640              	 .file 7 "E:/NOVA/Assets/IFX_P2G-HW-SW_V1.0.4/Firmware_Software/DAVE project/P2G_FW/Libraries/CMSIS/Infineon/XMC4700_series/Include/XMC4700.h"
 2641              	 .file 8 "E:/NOVA/Assets/IFX_P2G-HW-SW_V1.0.4/Firmware_Software/DAVE project/P2G_FW/Libraries/XMCLib/inc/xmc_vadc.h"
 2642              	 .file 9 "E:/NOVA/Assets/IFX_P2G-HW-SW_V1.0.4/Firmware_Software/DAVE project/P2G_FW/Libraries/XMCLib/inc/xmc_usbd_regs.h"
 2643              	 .file 10 "E:/NOVA/Assets/IFX_P2G-HW-SW_V1.0.4/Firmware_Software/DAVE project/P2G_FW/Libraries/XMCLib/inc/xmc_usbd.h"
 2644              	 .file 11 "E:/NOVA/Assets/IFX_P2G-HW-SW_V1.0.4/Firmware_Software/DAVE project/P2G_FW/Dave/Generated/USBD/usbd.h"
 2645              	 .file 12 "E:/NOVA/Assets/IFX_P2G-HW-SW_V1.0.4/Firmware_Software/DAVE project/P2G_FW/Radar_Control/inc/radar_api.h"
 2646              	 .file 13 "E:/NOVA/Assets/IFX_P2G-HW-SW_V1.0.4/Firmware_Software/DAVE project/P2G_FW/Libraries/CMSIS/Include/core_cm4.h"
 2647              	 .file 14 "E:/NOVA/Assets/IFX_P2G-HW-SW_V1.0.4/Firmware_Software/DAVE project/P2G_FW/Libraries/CMSIS/Infineon/XMC4700_series/Include/system_XMC4700.h"
 2648              	 .file 15 "E:/NOVA/Assets/IFX_P2G-HW-SW_V1.0.4/Firmware_Software/DAVE project/P2G_FW/Dave/Generated/ADC_MEASUREMENT_ADV/adc_measurement_adv.h"
 2649              	 .file 16 "E:/NOVA/Assets/IFX_P2G-HW-SW_V1.0.4/Firmware_Software/DAVE project/P2G_FW/Dave/Generated/USBD/usbd_extern.h"
 2650              	 .file 17 "E:/NOVA/Assets/IFX_P2G-HW-SW_V1.0.4/Firmware_Software/DAVE project/P2G_FW/HostCommunication/include/Protocol.h"
 2651              	 .file 18 "E:/NOVA/Assets/IFX_P2G-HW-SW_V1.0.4/Firmware_Software/DAVE project/P2G_FW/HostCommunication/include/EndpointRadarADCXMC.h"