   1              	 .syntax unified
   2              	 .cpu cortex-m4
   3              	 .eabi_attribute 27,3
   4              	 .fpu fpv4-sp-d16
   5              	 .eabi_attribute 20,1
   6              	 .eabi_attribute 21,1
   7              	 .eabi_attribute 23,3
   8              	 .eabi_attribute 24,1
   9              	 .eabi_attribute 25,1
  10              	 .eabi_attribute 26,1
  11              	 .eabi_attribute 30,2
  12              	 .eabi_attribute 34,1
  13              	 .eabi_attribute 18,4
  14              	 .thumb
  15              	 .file "EndpointRadarP2G.c"
  16              	 .text
  17              	.Ltext0:
  18              	 .cfi_sections .debug_frame
  19              	 .section .text.ep_radar_p2g_handle_message,"ax",%progbits
  20              	 .align 2
  21              	 .global ep_radar_p2g_handle_message
  22              	 .thumb
  23              	 .thumb_func
  25              	ep_radar_p2g_handle_message:
  26              	.LFB487:
  27              	 .file 1 "../HostCommunication/src/EndpointRadarP2G.c"
   1:../HostCommunication/src/EndpointRadarP2G.c **** /**
   2:../HostCommunication/src/EndpointRadarP2G.c ****  * \file EndpointRadarP2G.c
   3:../HostCommunication/src/EndpointRadarP2G.c ****  *
   4:../HostCommunication/src/EndpointRadarP2G.c ****  * \brief Extension of radar endpoint for Position2Go demo board functionality
   5:../HostCommunication/src/EndpointRadarP2G.c ****  *
   6:../HostCommunication/src/EndpointRadarP2G.c ****  */
   7:../HostCommunication/src/EndpointRadarP2G.c **** 
   8:../HostCommunication/src/EndpointRadarP2G.c **** /* ===========================================================================
   9:../HostCommunication/src/EndpointRadarP2G.c **** ** Copyright (C) 2018 Infineon Technologies AG
  10:../HostCommunication/src/EndpointRadarP2G.c **** ** All rights reserved.
  11:../HostCommunication/src/EndpointRadarP2G.c **** ** ===========================================================================
  12:../HostCommunication/src/EndpointRadarP2G.c **** **
  13:../HostCommunication/src/EndpointRadarP2G.c **** ** ===========================================================================
  14:../HostCommunication/src/EndpointRadarP2G.c **** ** This document contains proprietary information of Infineon Technologies AG.
  15:../HostCommunication/src/EndpointRadarP2G.c **** ** Passing on and copying of this document, and communication of its contents
  16:../HostCommunication/src/EndpointRadarP2G.c **** ** is not permitted without Infineon's prior written authorisation.
  17:../HostCommunication/src/EndpointRadarP2G.c **** ** ===========================================================================
  18:../HostCommunication/src/EndpointRadarP2G.c **** */
  19:../HostCommunication/src/EndpointRadarP2G.c **** 
  20:../HostCommunication/src/EndpointRadarP2G.c **** /*
  21:../HostCommunication/src/EndpointRadarP2G.c **** ==============================================================================
  22:../HostCommunication/src/EndpointRadarP2G.c ****    1. INCLUDE FILES
  23:../HostCommunication/src/EndpointRadarP2G.c **** ==============================================================================
  24:../HostCommunication/src/EndpointRadarP2G.c **** */
  25:../HostCommunication/src/EndpointRadarP2G.c **** #include "EndpointRadarP2G.h"
  26:../HostCommunication/src/EndpointRadarP2G.c **** #include "EndpointRadarChangeCodes.h"
  27:../HostCommunication/src/EndpointRadarP2G.c **** #include "PayloadHelper.h"
  28:../HostCommunication/src/EndpointRadarP2G.c **** 
  29:../HostCommunication/src/EndpointRadarP2G.c **** /*
  30:../HostCommunication/src/EndpointRadarP2G.c **** ==============================================================================
  31:../HostCommunication/src/EndpointRadarP2G.c ****    2. LOCAL DEFINITIONS
  32:../HostCommunication/src/EndpointRadarP2G.c **** ==============================================================================
  33:../HostCommunication/src/EndpointRadarP2G.c **** */
  34:../HostCommunication/src/EndpointRadarP2G.c **** /**
  35:../HostCommunication/src/EndpointRadarP2G.c ****  * \defgroup MessageTypes
  36:../HostCommunication/src/EndpointRadarP2G.c ****  *
  37:../HostCommunication/src/EndpointRadarP2G.c ****  * \brief This end point knows these message types.
  38:../HostCommunication/src/EndpointRadarP2G.c ****  *
  39:../HostCommunication/src/EndpointRadarP2G.c ****  * The first payload byte of every message is one of these codes.
  40:../HostCommunication/src/EndpointRadarP2G.c ****  *
  41:../HostCommunication/src/EndpointRadarP2G.c ****  * @{
  42:../HostCommunication/src/EndpointRadarP2G.c ****  */
  43:../HostCommunication/src/EndpointRadarP2G.c ****  
  44:../HostCommunication/src/EndpointRadarP2G.c **** #define MSG_GET_PGA_LEVEL 			0x00  	/**< A message to query current PGA gain level. */
  45:../HostCommunication/src/EndpointRadarP2G.c **** 											   
  46:../HostCommunication/src/EndpointRadarP2G.c **** #define MSG_SET_PGA_LEVEL			0x01  	/**< A message containing PGA gain level. */											  
  47:../HostCommunication/src/EndpointRadarP2G.c **** 											   
  48:../HostCommunication/src/EndpointRadarP2G.c **** /** @} */
  49:../HostCommunication/src/EndpointRadarP2G.c **** 
  50:../HostCommunication/src/EndpointRadarP2G.c **** /*
  51:../HostCommunication/src/EndpointRadarP2G.c **** ==============================================================================
  52:../HostCommunication/src/EndpointRadarP2G.c ****    3. LOCAL FUNCTION PROTOTYPES
  53:../HostCommunication/src/EndpointRadarP2G.c **** ==============================================================================
  54:../HostCommunication/src/EndpointRadarP2G.c **** */
  55:../HostCommunication/src/EndpointRadarP2G.c **** 
  56:../HostCommunication/src/EndpointRadarP2G.c **** static uint16_t send_pga_level(Radar_Handle_t device, uint8_t endpoint);
  57:../HostCommunication/src/EndpointRadarP2G.c **** 
  58:../HostCommunication/src/EndpointRadarP2G.c **** /*
  59:../HostCommunication/src/EndpointRadarP2G.c **** ==============================================================================
  60:../HostCommunication/src/EndpointRadarP2G.c ****    4. LOCAL FUNCTIONS
  61:../HostCommunication/src/EndpointRadarP2G.c **** ==============================================================================
  62:../HostCommunication/src/EndpointRadarP2G.c **** */
  63:../HostCommunication/src/EndpointRadarP2G.c **** 
  64:../HostCommunication/src/EndpointRadarP2G.c **** static uint16_t send_pga_level(Radar_Handle_t device, uint8_t endpoint)
  65:../HostCommunication/src/EndpointRadarP2G.c **** {
  66:../HostCommunication/src/EndpointRadarP2G.c ****     uint16_t error_code;
  67:../HostCommunication/src/EndpointRadarP2G.c ****     
  68:../HostCommunication/src/EndpointRadarP2G.c **** 	uint16_t gain_level;
  69:../HostCommunication/src/EndpointRadarP2G.c **** 
  70:../HostCommunication/src/EndpointRadarP2G.c ****     /* get current PGA Gain level from driver */
  71:../HostCommunication/src/EndpointRadarP2G.c **** 	error_code = radar_get_gain_level(device, &gain_level);
  72:../HostCommunication/src/EndpointRadarP2G.c **** 
  73:../HostCommunication/src/EndpointRadarP2G.c ****     if (error_code == RADAR_ERR_OK)
  74:../HostCommunication/src/EndpointRadarP2G.c ****     {
  75:../HostCommunication/src/EndpointRadarP2G.c ****         uint8_t message[3];
  76:../HostCommunication/src/EndpointRadarP2G.c **** 
  77:../HostCommunication/src/EndpointRadarP2G.c ****         /* compile message */
  78:../HostCommunication/src/EndpointRadarP2G.c ****         wr_payload_u8 (message, 0, MSG_SET_PGA_LEVEL);
  79:../HostCommunication/src/EndpointRadarP2G.c ****         wr_payload_u16(message, 1, gain_level);
  80:../HostCommunication/src/EndpointRadarP2G.c **** 
  81:../HostCommunication/src/EndpointRadarP2G.c ****         /* send message */
  82:../HostCommunication/src/EndpointRadarP2G.c ****         protocol_send_header(endpoint, sizeof(message));
  83:../HostCommunication/src/EndpointRadarP2G.c ****         protocol_send_payload(message, sizeof(message));
  84:../HostCommunication/src/EndpointRadarP2G.c ****         protocol_send_tail();
  85:../HostCommunication/src/EndpointRadarP2G.c ****     }
  86:../HostCommunication/src/EndpointRadarP2G.c **** 	
  87:../HostCommunication/src/EndpointRadarP2G.c ****     return error_code;
  88:../HostCommunication/src/EndpointRadarP2G.c **** }
  89:../HostCommunication/src/EndpointRadarP2G.c **** 
  90:../HostCommunication/src/EndpointRadarP2G.c **** /*
  91:../HostCommunication/src/EndpointRadarP2G.c **** ==============================================================================
  92:../HostCommunication/src/EndpointRadarP2G.c ****    5. EXPORTED FUNCTIONS
  93:../HostCommunication/src/EndpointRadarP2G.c **** ==============================================================================
  94:../HostCommunication/src/EndpointRadarP2G.c **** */
  95:../HostCommunication/src/EndpointRadarP2G.c **** 
  96:../HostCommunication/src/EndpointRadarP2G.c **** uint16_t ep_radar_p2g_handle_message(uint8_t endpoint,
  97:../HostCommunication/src/EndpointRadarP2G.c ****                                      uint8_t* message_data,
  98:../HostCommunication/src/EndpointRadarP2G.c ****                                        uint16_t num_bytes,
  99:../HostCommunication/src/EndpointRadarP2G.c ****                                        void* context)
 100:../HostCommunication/src/EndpointRadarP2G.c **** {
  28              	 .loc 1 100 0
  29              	 .cfi_startproc
  30              	 
  31              	 
  32              	.LVL0:
  33 0000 30B5     	 push {r4,r5,lr}
  34              	.LCFI0:
  35              	 .cfi_def_cfa_offset 12
  36              	 .cfi_offset 4,-12
  37              	 .cfi_offset 5,-8
  38              	 .cfi_offset 14,-4
 101:../HostCommunication/src/EndpointRadarP2G.c ****     Radar_Handle_t radar_driver = (Radar_Handle_t)context;
 102:../HostCommunication/src/EndpointRadarP2G.c **** 	
 103:../HostCommunication/src/EndpointRadarP2G.c ****     (void) radar_driver; /* Suppress compiler warnings of unused variable */
 104:../HostCommunication/src/EndpointRadarP2G.c **** 
 105:../HostCommunication/src/EndpointRadarP2G.c **** 	uint16_t error_code;
 106:../HostCommunication/src/EndpointRadarP2G.c **** 
 107:../HostCommunication/src/EndpointRadarP2G.c ****     switch (message_data[0])
  39              	 .loc 1 107 0
  40 0002 0C78     	 ldrb r4,[r1]
  41              	.LVL1:
 100:../HostCommunication/src/EndpointRadarP2G.c ****     Radar_Handle_t radar_driver = (Radar_Handle_t)context;
  42              	 .loc 1 100 0
  43 0004 85B0     	 sub sp,sp,#20
  44              	.LCFI1:
  45              	 .cfi_def_cfa_offset 32
  46              	 .loc 1 107 0
  47 0006 7CB1     	 cbz r4,.L3
  48 0008 012C     	 cmp r4,#1
  49 000a 03D0     	 beq .L4
  50              	.L8:
 108:../HostCommunication/src/EndpointRadarP2G.c ****     {
 109:../HostCommunication/src/EndpointRadarP2G.c **** 		
 110:../HostCommunication/src/EndpointRadarP2G.c ****     case MSG_GET_PGA_LEVEL:
 111:../HostCommunication/src/EndpointRadarP2G.c **** 	
 112:../HostCommunication/src/EndpointRadarP2G.c ****         if (num_bytes == 1)
 113:../HostCommunication/src/EndpointRadarP2G.c ****         {
 114:../HostCommunication/src/EndpointRadarP2G.c **** 			error_code = send_pga_level(radar_driver, endpoint);
 115:../HostCommunication/src/EndpointRadarP2G.c **** 			
 116:../HostCommunication/src/EndpointRadarP2G.c ****             return error_code;
 117:../HostCommunication/src/EndpointRadarP2G.c ****         }
 118:../HostCommunication/src/EndpointRadarP2G.c ****         break;
 119:../HostCommunication/src/EndpointRadarP2G.c **** 	
 120:../HostCommunication/src/EndpointRadarP2G.c ****     case MSG_SET_PGA_LEVEL:
 121:../HostCommunication/src/EndpointRadarP2G.c **** 	
 122:../HostCommunication/src/EndpointRadarP2G.c ****         if (num_bytes == 3)
 123:../HostCommunication/src/EndpointRadarP2G.c ****         {    		
 124:../HostCommunication/src/EndpointRadarP2G.c ****             uint16_t  gain_level;
 125:../HostCommunication/src/EndpointRadarP2G.c **** 
 126:../HostCommunication/src/EndpointRadarP2G.c ****             /* extract parameters from message */
 127:../HostCommunication/src/EndpointRadarP2G.c ****             gain_level = rd_payload_u16(message_data, 1);
 128:../HostCommunication/src/EndpointRadarP2G.c ****             
 129:../HostCommunication/src/EndpointRadarP2G.c ****             /* apply PGA Gain Level */
 130:../HostCommunication/src/EndpointRadarP2G.c ****             error_code = radar_set_gain_level(radar_driver, gain_level);
 131:../HostCommunication/src/EndpointRadarP2G.c **** 
 132:../HostCommunication/src/EndpointRadarP2G.c ****             return error_code;
 133:../HostCommunication/src/EndpointRadarP2G.c ****         }
 134:../HostCommunication/src/EndpointRadarP2G.c ****         break;
 135:../HostCommunication/src/EndpointRadarP2G.c **** 	
 136:../HostCommunication/src/EndpointRadarP2G.c ****     default:
 137:../HostCommunication/src/EndpointRadarP2G.c **** 	
 138:../HostCommunication/src/EndpointRadarP2G.c **** 		break;
 139:../HostCommunication/src/EndpointRadarP2G.c ****     }
 140:../HostCommunication/src/EndpointRadarP2G.c **** 
 141:../HostCommunication/src/EndpointRadarP2G.c ****     return PROTOCOL_STATUS_INVALID_PAYLOAD;
  51              	 .loc 1 141 0
  52 000c 4FF6FF70 	 movw r0,#65535
  53              	.LVL2:
  54              	.L2:
 142:../HostCommunication/src/EndpointRadarP2G.c **** }
  55              	 .loc 1 142 0
  56 0010 05B0     	 add sp,sp,#20
  57              	.LCFI2:
  58              	 .cfi_remember_state
  59              	 .cfi_def_cfa_offset 12
  60              	 
  61 0012 30BD     	 pop {r4,r5,pc}
  62              	.LVL3:
  63              	.L4:
  64              	.LCFI3:
  65              	 .cfi_restore_state
 122:../HostCommunication/src/EndpointRadarP2G.c ****         {    		
  66              	 .loc 1 122 0
  67 0014 032A     	 cmp r2,#3
  68 0016 F9D1     	 bne .L8
  69              	.LVL4:
  70              	.LBB20:
  71              	.LBB21:
  72              	.LBB22:
  73              	 .file 2 "../HostCommunication/src/PayloadHelper.h"
   1:../HostCommunication/src/PayloadHelper.h **** ﻿/**
   2:../HostCommunication/src/PayloadHelper.h ****  * \file PayloadHelper.h
   3:../HostCommunication/src/PayloadHelper.h ****  *
   4:../HostCommunication/src/PayloadHelper.h ****  * \brief This file defines an internal protocol API to be used by endpoint
   5:../HostCommunication/src/PayloadHelper.h ****  *        implementations.
   6:../HostCommunication/src/PayloadHelper.h ****  *
   7:../HostCommunication/src/PayloadHelper.h ****  * This file defines some light weight function that help to access data in
   8:../HostCommunication/src/PayloadHelper.h ****  * protocol payload. Different implementation allow to adapt to the
   9:../HostCommunication/src/PayloadHelper.h ****  * capabilities of the target machine. Special implementations can be chosen
  10:../HostCommunication/src/PayloadHelper.h ****  * by defining the according compile time switch. If none of the available
  11:../HostCommunication/src/PayloadHelper.h ****  * compile time switches is chosen, the default implementation will be used.
  12:../HostCommunication/src/PayloadHelper.h ****  *
  13:../HostCommunication/src/PayloadHelper.h ****  * The default implementation is safe on all target machines and can handle
  14:../HostCommunication/src/PayloadHelper.h ****  * both, big endian CPUs and little endian CPUs. It may be slower than other
  15:../HostCommunication/src/PayloadHelper.h ****  * special implementations.
  16:../HostCommunication/src/PayloadHelper.h ****  *
  17:../HostCommunication/src/PayloadHelper.h ****  * If the compile time switch COMLIB_ALLOW_PAYLOAD_CASTS is set, a special
  18:../HostCommunication/src/PayloadHelper.h ****  * implementation for little endian machines is used, that can access data
  19:../HostCommunication/src/PayloadHelper.h ****  * faster by casting data to the right data type. This implementation works
  20:../HostCommunication/src/PayloadHelper.h ****  * only for CPUs that have no alignment requirement for 16 bit and 32 bit
  21:../HostCommunication/src/PayloadHelper.h ****  * integers.
  22:../HostCommunication/src/PayloadHelper.h ****  */
  23:../HostCommunication/src/PayloadHelper.h **** 
  24:../HostCommunication/src/PayloadHelper.h **** /* ===========================================================================
  25:../HostCommunication/src/PayloadHelper.h **** ** Copyright (C) 2016-2018 Infineon Technologies AG
  26:../HostCommunication/src/PayloadHelper.h **** ** All rights reserved.
  27:../HostCommunication/src/PayloadHelper.h **** ** ===========================================================================
  28:../HostCommunication/src/PayloadHelper.h **** **
  29:../HostCommunication/src/PayloadHelper.h **** ** ===========================================================================
  30:../HostCommunication/src/PayloadHelper.h **** ** This document contains proprietary information of Infineon Technologies AG.
  31:../HostCommunication/src/PayloadHelper.h **** ** Passing on and copying of this document, and communication of its contents
  32:../HostCommunication/src/PayloadHelper.h **** ** is not permitted without Infineon's prior written authorisation.
  33:../HostCommunication/src/PayloadHelper.h **** ** ===========================================================================
  34:../HostCommunication/src/PayloadHelper.h **** */
  35:../HostCommunication/src/PayloadHelper.h **** 
  36:../HostCommunication/src/PayloadHelper.h **** #ifndef HOSTCOMMUNICATION_PAYLOAD_HELPER_H_
  37:../HostCommunication/src/PayloadHelper.h **** #define HOSTCOMMUNICATION_PAYLOAD_HELPER_H_
  38:../HostCommunication/src/PayloadHelper.h **** 
  39:../HostCommunication/src/PayloadHelper.h **** /*
  40:../HostCommunication/src/PayloadHelper.h **** ==============================================================================
  41:../HostCommunication/src/PayloadHelper.h ****    1. INCLUDE FILES
  42:../HostCommunication/src/PayloadHelper.h **** ==============================================================================
  43:../HostCommunication/src/PayloadHelper.h **** */
  44:../HostCommunication/src/PayloadHelper.h **** #include <stdint.h>
  45:../HostCommunication/src/PayloadHelper.h **** 
  46:../HostCommunication/src/PayloadHelper.h **** /*
  47:../HostCommunication/src/PayloadHelper.h **** ==============================================================================
  48:../HostCommunication/src/PayloadHelper.h ****    2. FUNCTION PROTOTYPES AND INLINE FUNCTIONS
  49:../HostCommunication/src/PayloadHelper.h **** ==============================================================================
  50:../HostCommunication/src/PayloadHelper.h **** */
  51:../HostCommunication/src/PayloadHelper.h **** 
  52:../HostCommunication/src/PayloadHelper.h **** /**
  53:../HostCommunication/src/PayloadHelper.h ****  * \internal
  54:../HostCommunication/src/PayloadHelper.h ****  * \brief The function extracts a signed 8 bit integer from a payload buffer.
  55:../HostCommunication/src/PayloadHelper.h ****  *
  56:../HostCommunication/src/PayloadHelper.h ****  * The function reads one byte from the given payload buffer at the requested
  57:../HostCommunication/src/PayloadHelper.h ****  * position and interprets it as a signed 8 bit integer value, which will be
  58:../HostCommunication/src/PayloadHelper.h ****  * returned.
  59:../HostCommunication/src/PayloadHelper.h ****  *
  60:../HostCommunication/src/PayloadHelper.h ****  * \param[in] payload  A pointer to a block of payload data.
  61:../HostCommunication/src/PayloadHelper.h ****  * \param[in] offset   The byte position at which the requested data value
  62:../HostCommunication/src/PayloadHelper.h ****  *                     starts.
  63:../HostCommunication/src/PayloadHelper.h ****  *
  64:../HostCommunication/src/PayloadHelper.h ****  * \return The function returns the value read from the payload.
  65:../HostCommunication/src/PayloadHelper.h ****  */
  66:../HostCommunication/src/PayloadHelper.h **** static inline int8_t rd_payload_i8(const uint8_t* payload, uint16_t offset)
  67:../HostCommunication/src/PayloadHelper.h **** {
  68:../HostCommunication/src/PayloadHelper.h ****     return (int8_t)payload[offset];
  69:../HostCommunication/src/PayloadHelper.h **** }
  70:../HostCommunication/src/PayloadHelper.h **** 
  71:../HostCommunication/src/PayloadHelper.h **** /**
  72:../HostCommunication/src/PayloadHelper.h ****  * \internal
  73:../HostCommunication/src/PayloadHelper.h ****  * \brief The function extracts an unsigned 8 bit integer from a payload
  74:../HostCommunication/src/PayloadHelper.h ****  *        buffer.
  75:../HostCommunication/src/PayloadHelper.h ****  *
  76:../HostCommunication/src/PayloadHelper.h ****  * The function reads one byte from the given payload buffer at the requested
  77:../HostCommunication/src/PayloadHelper.h ****  * position and interprets it as an unsigned 8 bit integer value, which will
  78:../HostCommunication/src/PayloadHelper.h ****  * be returned.
  79:../HostCommunication/src/PayloadHelper.h ****  *
  80:../HostCommunication/src/PayloadHelper.h ****  * \param[in] payload  A pointer to a block of payload data.
  81:../HostCommunication/src/PayloadHelper.h ****  * \param[in] offset   The byte position at which the requested data value
  82:../HostCommunication/src/PayloadHelper.h ****  *                     starts.
  83:../HostCommunication/src/PayloadHelper.h ****  *
  84:../HostCommunication/src/PayloadHelper.h ****  * \return The function returns the value read from the payload.
  85:../HostCommunication/src/PayloadHelper.h ****  */
  86:../HostCommunication/src/PayloadHelper.h **** static inline uint8_t rd_payload_u8(const uint8_t* payload, uint16_t offset)
  87:../HostCommunication/src/PayloadHelper.h **** {
  88:../HostCommunication/src/PayloadHelper.h ****     return payload[offset];
  89:../HostCommunication/src/PayloadHelper.h **** }
  90:../HostCommunication/src/PayloadHelper.h **** 
  91:../HostCommunication/src/PayloadHelper.h **** /**
  92:../HostCommunication/src/PayloadHelper.h ****  * \internal
  93:../HostCommunication/src/PayloadHelper.h ****  * \brief The function extracts a signed 16 bit integer from a payload buffer.
  94:../HostCommunication/src/PayloadHelper.h ****  *
  95:../HostCommunication/src/PayloadHelper.h ****  * The function reads two bytes from the given payload buffer starting at the
  96:../HostCommunication/src/PayloadHelper.h ****  * requested position and interprets them as a signed 16 bit integer value,
  97:../HostCommunication/src/PayloadHelper.h ****  * which will be returned. If needed the byte order is swapped to convert from
  98:../HostCommunication/src/PayloadHelper.h ****  * the payload's little endian format to the CPU's endian format.
  99:../HostCommunication/src/PayloadHelper.h ****  *
 100:../HostCommunication/src/PayloadHelper.h ****  * \param[in] payload  A pointer to a block of payload data.
 101:../HostCommunication/src/PayloadHelper.h ****  * \param[in] offset   The byte position at which the requested data value
 102:../HostCommunication/src/PayloadHelper.h ****  *                     starts.
 103:../HostCommunication/src/PayloadHelper.h ****  *
 104:../HostCommunication/src/PayloadHelper.h ****  * \return The function returns the value read from the payload.
 105:../HostCommunication/src/PayloadHelper.h ****  */
 106:../HostCommunication/src/PayloadHelper.h **** static inline int16_t rd_payload_i16(const uint8_t* payload, uint16_t offset);
 107:../HostCommunication/src/PayloadHelper.h **** 
 108:../HostCommunication/src/PayloadHelper.h **** /**
 109:../HostCommunication/src/PayloadHelper.h ****  * \internal
 110:../HostCommunication/src/PayloadHelper.h ****  * \brief The function extracts an unsigned 16 bit integer from a payload
 111:../HostCommunication/src/PayloadHelper.h ****  *        buffer.
 112:../HostCommunication/src/PayloadHelper.h ****  *
 113:../HostCommunication/src/PayloadHelper.h ****  * The function reads two bytes from the given payload buffer starting at the
 114:../HostCommunication/src/PayloadHelper.h ****  * requested position and interprets them as an unsigned 16 bit integer value,
 115:../HostCommunication/src/PayloadHelper.h ****  * which will be returned. If needed the byte order is swapped to convert from
 116:../HostCommunication/src/PayloadHelper.h ****  * the payload's little endian format to the CPU's endian format.
 117:../HostCommunication/src/PayloadHelper.h ****  *
 118:../HostCommunication/src/PayloadHelper.h ****  * \param[in] payload  A pointer to a block of payload data.
 119:../HostCommunication/src/PayloadHelper.h ****  * \param[in] offset   The byte position at which the requested data value
 120:../HostCommunication/src/PayloadHelper.h ****  *                     starts.
 121:../HostCommunication/src/PayloadHelper.h ****  *
 122:../HostCommunication/src/PayloadHelper.h ****  * \return The function returns the value read from the payload.
 123:../HostCommunication/src/PayloadHelper.h ****  */
 124:../HostCommunication/src/PayloadHelper.h **** static inline uint16_t rd_payload_u16(const uint8_t* payload,
 125:../HostCommunication/src/PayloadHelper.h ****                                       uint16_t offset);
 126:../HostCommunication/src/PayloadHelper.h **** 
 127:../HostCommunication/src/PayloadHelper.h **** /**
 128:../HostCommunication/src/PayloadHelper.h ****  * \internal
 129:../HostCommunication/src/PayloadHelper.h ****  * \brief The function extracts a signed 32 bit integer from a payload buffer.
 130:../HostCommunication/src/PayloadHelper.h ****  *
 131:../HostCommunication/src/PayloadHelper.h ****  * The function reads four bytes from the given payload buffer starting at the
 132:../HostCommunication/src/PayloadHelper.h ****  * requested position and interprets them as a signed 32 bit integer value,
 133:../HostCommunication/src/PayloadHelper.h ****  * which will be returned. If needed the byte order is swapped to convert from
 134:../HostCommunication/src/PayloadHelper.h ****  * the payload's little endian format to the CPU's endian format.
 135:../HostCommunication/src/PayloadHelper.h ****  *
 136:../HostCommunication/src/PayloadHelper.h ****  * \param[in] payload  A pointer to a block of payload data.
 137:../HostCommunication/src/PayloadHelper.h ****  * \param[in] offset   The byte position at which the requested data value
 138:../HostCommunication/src/PayloadHelper.h ****  *                     starts.
 139:../HostCommunication/src/PayloadHelper.h ****  *
 140:../HostCommunication/src/PayloadHelper.h ****  * \return The function returns the value read from the payload.
 141:../HostCommunication/src/PayloadHelper.h ****  */
 142:../HostCommunication/src/PayloadHelper.h **** static inline int32_t rd_payload_i32(const uint8_t* payload, uint16_t offset);
 143:../HostCommunication/src/PayloadHelper.h **** 
 144:../HostCommunication/src/PayloadHelper.h **** /**
 145:../HostCommunication/src/PayloadHelper.h ****  * \internal
 146:../HostCommunication/src/PayloadHelper.h ****  * \brief The function extracts an unsigned 32 bit integer from a payload
 147:../HostCommunication/src/PayloadHelper.h ****  *        buffer.
 148:../HostCommunication/src/PayloadHelper.h ****  *
 149:../HostCommunication/src/PayloadHelper.h ****  * The function reads four bytes from the given payload buffer starting at the
 150:../HostCommunication/src/PayloadHelper.h ****  * requested position and interprets them as an unsigned 32 bit integer value,
 151:../HostCommunication/src/PayloadHelper.h ****  * which will be returned. If needed the byte order is swapped to convert from
 152:../HostCommunication/src/PayloadHelper.h ****  * the payload's little endian format to the CPU's endian format.
 153:../HostCommunication/src/PayloadHelper.h ****  *
 154:../HostCommunication/src/PayloadHelper.h ****  * \param[in] payload  A pointer to a block of payload data.
 155:../HostCommunication/src/PayloadHelper.h ****  * \param[in] offset   The byte position at which the requested data value
 156:../HostCommunication/src/PayloadHelper.h ****  *                     starts.
 157:../HostCommunication/src/PayloadHelper.h ****  *
 158:../HostCommunication/src/PayloadHelper.h ****  * \return The function returns the value read from the payload.
 159:../HostCommunication/src/PayloadHelper.h ****  */
 160:../HostCommunication/src/PayloadHelper.h **** static inline uint32_t rd_payload_u32(const uint8_t* payload,
 161:../HostCommunication/src/PayloadHelper.h ****                                       uint16_t offset);
 162:../HostCommunication/src/PayloadHelper.h **** 
 163:../HostCommunication/src/PayloadHelper.h **** /**
 164:../HostCommunication/src/PayloadHelper.h ****  * \internal
 165:../HostCommunication/src/PayloadHelper.h ****  * \brief The function extracts a signed 64 bit integer from a payload buffer.
 166:../HostCommunication/src/PayloadHelper.h ****  *
 167:../HostCommunication/src/PayloadHelper.h ****  * The function reads four bytes from the given payload buffer starting at the
 168:../HostCommunication/src/PayloadHelper.h ****  * requested position and interprets them as a signed 64 bit integer value,
 169:../HostCommunication/src/PayloadHelper.h ****  * which will be returned. If needed the byte order is swapped to convert from
 170:../HostCommunication/src/PayloadHelper.h ****  * the payload's little endian format to the CPU's endian format.
 171:../HostCommunication/src/PayloadHelper.h ****  *
 172:../HostCommunication/src/PayloadHelper.h ****  * \param[in] payload  A pointer to a block of payload data.
 173:../HostCommunication/src/PayloadHelper.h ****  * \param[in] offset   The byte position at which the requested data value
 174:../HostCommunication/src/PayloadHelper.h ****  *                     starts.
 175:../HostCommunication/src/PayloadHelper.h ****  *
 176:../HostCommunication/src/PayloadHelper.h ****  * \return The function returns the value read from the payload.
 177:../HostCommunication/src/PayloadHelper.h ****  */
 178:../HostCommunication/src/PayloadHelper.h **** static inline int64_t rd_payload_i64(const uint8_t* payload, uint16_t offset);
 179:../HostCommunication/src/PayloadHelper.h **** 
 180:../HostCommunication/src/PayloadHelper.h **** /**
 181:../HostCommunication/src/PayloadHelper.h ****  * \internal
 182:../HostCommunication/src/PayloadHelper.h ****  * \brief The function extracts an unsigned 64 bit integer from a payload
 183:../HostCommunication/src/PayloadHelper.h ****  *        buffer.
 184:../HostCommunication/src/PayloadHelper.h ****  *
 185:../HostCommunication/src/PayloadHelper.h ****  * The function reads four bytes from the given payload buffer starting at the
 186:../HostCommunication/src/PayloadHelper.h ****  * requested position and interprets them as an unsigned 64 bit integer value,
 187:../HostCommunication/src/PayloadHelper.h ****  * which will be returned. If needed the byte order is swapped to convert from
 188:../HostCommunication/src/PayloadHelper.h ****  * the payload's little endian format to the CPU's endian format.
 189:../HostCommunication/src/PayloadHelper.h ****  *
 190:../HostCommunication/src/PayloadHelper.h ****  * \param[in] payload  A pointer to a block of payload data.
 191:../HostCommunication/src/PayloadHelper.h ****  * \param[in] offset   The byte position at which the requested data value
 192:../HostCommunication/src/PayloadHelper.h ****  *                     starts.
 193:../HostCommunication/src/PayloadHelper.h ****  *
 194:../HostCommunication/src/PayloadHelper.h ****  * \return The function returns the value read from the payload.
 195:../HostCommunication/src/PayloadHelper.h ****  */
 196:../HostCommunication/src/PayloadHelper.h **** static inline uint64_t rd_payload_u64(const uint8_t* payload,
 197:../HostCommunication/src/PayloadHelper.h ****                                       uint16_t offset);
 198:../HostCommunication/src/PayloadHelper.h **** 
 199:../HostCommunication/src/PayloadHelper.h **** /**
 200:../HostCommunication/src/PayloadHelper.h ****  * \internal
 201:../HostCommunication/src/PayloadHelper.h ****  * \brief The function writes a signed 8 bit integer value to a payload
 202:../HostCommunication/src/PayloadHelper.h ****  *        buffer.
 203:../HostCommunication/src/PayloadHelper.h ****  *
 204:../HostCommunication/src/PayloadHelper.h ****  * The function writes the given value into the given payload buffer at the
 205:../HostCommunication/src/PayloadHelper.h ****  * requested position.
 206:../HostCommunication/src/PayloadHelper.h ****  *
 207:../HostCommunication/src/PayloadHelper.h ****  * \param[in] payload  A pointer to a block of payload data.
 208:../HostCommunication/src/PayloadHelper.h ****  * \param[in] offset   The byte position at which the value will be written
 209:../HostCommunication/src/PayloadHelper.h ****  *                     to.
 210:../HostCommunication/src/PayloadHelper.h ****  * \param[in] value    The value to be written into the payload buffer.
 211:../HostCommunication/src/PayloadHelper.h ****  */
 212:../HostCommunication/src/PayloadHelper.h **** static inline void wr_payload_i8(uint8_t* payload, uint16_t offset,
 213:../HostCommunication/src/PayloadHelper.h ****                                  int8_t value)
 214:../HostCommunication/src/PayloadHelper.h **** {
 215:../HostCommunication/src/PayloadHelper.h ****     payload[offset] = (uint8_t)value;
 216:../HostCommunication/src/PayloadHelper.h **** }
 217:../HostCommunication/src/PayloadHelper.h **** 
 218:../HostCommunication/src/PayloadHelper.h **** /**
 219:../HostCommunication/src/PayloadHelper.h ****  * \internal
 220:../HostCommunication/src/PayloadHelper.h ****  * \brief The function writes an unsigned 8 bit integer value to a payload
 221:../HostCommunication/src/PayloadHelper.h ****  *        buffer.
 222:../HostCommunication/src/PayloadHelper.h ****  *
 223:../HostCommunication/src/PayloadHelper.h ****  * The function writes the given value into the given payload buffer at the
 224:../HostCommunication/src/PayloadHelper.h ****  * requested position.
 225:../HostCommunication/src/PayloadHelper.h ****  *
 226:../HostCommunication/src/PayloadHelper.h ****  * \param[in] payload  A pointer to a block of payload data.
 227:../HostCommunication/src/PayloadHelper.h ****  * \param[in] offset   The byte position at which the value will be written
 228:../HostCommunication/src/PayloadHelper.h ****  *                     to.
 229:../HostCommunication/src/PayloadHelper.h ****  * \param[in] value    The value to be written into the payload buffer.
 230:../HostCommunication/src/PayloadHelper.h ****  */
 231:../HostCommunication/src/PayloadHelper.h **** static inline void wr_payload_u8(uint8_t* payload, uint16_t offset,
 232:../HostCommunication/src/PayloadHelper.h ****                                  uint8_t value)
 233:../HostCommunication/src/PayloadHelper.h **** {
 234:../HostCommunication/src/PayloadHelper.h ****     payload[offset] = value;
 235:../HostCommunication/src/PayloadHelper.h **** }
 236:../HostCommunication/src/PayloadHelper.h **** 
 237:../HostCommunication/src/PayloadHelper.h **** /**
 238:../HostCommunication/src/PayloadHelper.h ****  * \internal
 239:../HostCommunication/src/PayloadHelper.h ****  * \brief The function writes a signed 16 bit integer value to a payload
 240:../HostCommunication/src/PayloadHelper.h ****  *        buffer.
 241:../HostCommunication/src/PayloadHelper.h ****  *
 242:../HostCommunication/src/PayloadHelper.h ****  * The function writes the given value into the given payload buffer at the
 243:../HostCommunication/src/PayloadHelper.h ****  * requested position. If needed the byte order is swapped to convert from the
 244:../HostCommunication/src/PayloadHelper.h ****  * payload's little endian format to the CPU's endian format.
 245:../HostCommunication/src/PayloadHelper.h ****  *
 246:../HostCommunication/src/PayloadHelper.h ****  * \param[in] payload  A pointer to a block of payload data.
 247:../HostCommunication/src/PayloadHelper.h ****  * \param[in] offset   The byte position at which the value will be written
 248:../HostCommunication/src/PayloadHelper.h ****  *                     to.
 249:../HostCommunication/src/PayloadHelper.h ****  * \param[in] value    The value to be written into the payload buffer.
 250:../HostCommunication/src/PayloadHelper.h ****  */
 251:../HostCommunication/src/PayloadHelper.h **** static inline void wr_payload_i16(uint8_t* payload, uint16_t offset,
 252:../HostCommunication/src/PayloadHelper.h ****                                   int16_t value);
 253:../HostCommunication/src/PayloadHelper.h **** 
 254:../HostCommunication/src/PayloadHelper.h **** /**
 255:../HostCommunication/src/PayloadHelper.h ****  * \internal
 256:../HostCommunication/src/PayloadHelper.h ****  * \brief The function writes an unsigned 16 bit integer value to a payload
 257:../HostCommunication/src/PayloadHelper.h ****  *        buffer.
 258:../HostCommunication/src/PayloadHelper.h ****  *
 259:../HostCommunication/src/PayloadHelper.h ****  * The function writes the given value into the given payload buffer at the
 260:../HostCommunication/src/PayloadHelper.h ****  * requested position. If needed the byte order is swapped to convert from the
 261:../HostCommunication/src/PayloadHelper.h ****  * payload's little endian format to the CPU's endian format.
 262:../HostCommunication/src/PayloadHelper.h ****  *
 263:../HostCommunication/src/PayloadHelper.h ****  * \param[in] payload  A pointer to a block of payload data.
 264:../HostCommunication/src/PayloadHelper.h ****  * \param[in] offset   The byte position at which the value will be written
 265:../HostCommunication/src/PayloadHelper.h ****  *                     to.
 266:../HostCommunication/src/PayloadHelper.h ****  * \param[in] value    The value to be written into the payload buffer.
 267:../HostCommunication/src/PayloadHelper.h ****  */
 268:../HostCommunication/src/PayloadHelper.h **** static inline void wr_payload_u16(uint8_t* payload, uint16_t offset,
 269:../HostCommunication/src/PayloadHelper.h ****                                   uint16_t value);
 270:../HostCommunication/src/PayloadHelper.h **** 
 271:../HostCommunication/src/PayloadHelper.h **** /**
 272:../HostCommunication/src/PayloadHelper.h ****  * \internal
 273:../HostCommunication/src/PayloadHelper.h ****  * \brief The function writes a signed 32 bit integer value to a payload
 274:../HostCommunication/src/PayloadHelper.h ****  *        buffer.
 275:../HostCommunication/src/PayloadHelper.h ****  *
 276:../HostCommunication/src/PayloadHelper.h ****  * The function writes the given value into the given payload buffer at the
 277:../HostCommunication/src/PayloadHelper.h ****  * requested position. If needed the byte order is swapped to convert from the
 278:../HostCommunication/src/PayloadHelper.h ****  * payload's little endian format to the CPU's endian format.
 279:../HostCommunication/src/PayloadHelper.h ****  *
 280:../HostCommunication/src/PayloadHelper.h ****  * \param[in] payload  A pointer to a block of payload data.
 281:../HostCommunication/src/PayloadHelper.h ****  * \param[in] offset   The byte position at which the value will be written
 282:../HostCommunication/src/PayloadHelper.h ****  *                     to.
 283:../HostCommunication/src/PayloadHelper.h ****  * \param[in] value    The value to be written into the payload buffer.
 284:../HostCommunication/src/PayloadHelper.h ****  */
 285:../HostCommunication/src/PayloadHelper.h **** static inline void wr_payload_i32(uint8_t* payload, uint16_t offset,
 286:../HostCommunication/src/PayloadHelper.h ****                                   int32_t value);
 287:../HostCommunication/src/PayloadHelper.h **** 
 288:../HostCommunication/src/PayloadHelper.h **** /**
 289:../HostCommunication/src/PayloadHelper.h ****  * \internal
 290:../HostCommunication/src/PayloadHelper.h ****  * \brief The function writes an unsigned 32 bit integer value to a payload
 291:../HostCommunication/src/PayloadHelper.h ****  *        buffer.
 292:../HostCommunication/src/PayloadHelper.h ****  *
 293:../HostCommunication/src/PayloadHelper.h ****  * The function writes the given value into the given payload buffer at the
 294:../HostCommunication/src/PayloadHelper.h ****  * requested position. If needed the byte order is swapped to convert from the
 295:../HostCommunication/src/PayloadHelper.h ****  * payload's little endian format to the CPU's endian format.
 296:../HostCommunication/src/PayloadHelper.h ****  *
 297:../HostCommunication/src/PayloadHelper.h ****  * \param[in] payload  A pointer to a block of payload data.
 298:../HostCommunication/src/PayloadHelper.h ****  * \param[in] offset   The byte position at which the value will be written
 299:../HostCommunication/src/PayloadHelper.h ****  *                     to.
 300:../HostCommunication/src/PayloadHelper.h ****  * \param[in] value    The value to be written into the payload buffer.
 301:../HostCommunication/src/PayloadHelper.h ****  */
 302:../HostCommunication/src/PayloadHelper.h **** static inline void wr_payload_u32(uint8_t* payload, uint16_t offset,
 303:../HostCommunication/src/PayloadHelper.h ****                                   uint32_t value);
 304:../HostCommunication/src/PayloadHelper.h **** 
 305:../HostCommunication/src/PayloadHelper.h **** /**
 306:../HostCommunication/src/PayloadHelper.h ****  * \internal
 307:../HostCommunication/src/PayloadHelper.h ****  * \brief The function writes a signed 64 bit integer value to a payload
 308:../HostCommunication/src/PayloadHelper.h ****  *        buffer.
 309:../HostCommunication/src/PayloadHelper.h ****  *
 310:../HostCommunication/src/PayloadHelper.h ****  * The function writes the given value into the given payload buffer at the
 311:../HostCommunication/src/PayloadHelper.h ****  * requested position. If needed the byte order is swapped to convert from the
 312:../HostCommunication/src/PayloadHelper.h ****  * payload's little endian format to the CPU's endian format.
 313:../HostCommunication/src/PayloadHelper.h ****  *
 314:../HostCommunication/src/PayloadHelper.h ****  * \param[in] payload  A pointer to a block of payload data.
 315:../HostCommunication/src/PayloadHelper.h ****  * \param[in] offset   The byte position at which the value will be written
 316:../HostCommunication/src/PayloadHelper.h ****  *                     to.
 317:../HostCommunication/src/PayloadHelper.h ****  * \param[in] value    The value to be written into the payload buffer.
 318:../HostCommunication/src/PayloadHelper.h ****  */
 319:../HostCommunication/src/PayloadHelper.h **** static inline void wr_payload_i64(uint8_t* payload, uint16_t offset,
 320:../HostCommunication/src/PayloadHelper.h ****                                   int64_t value);
 321:../HostCommunication/src/PayloadHelper.h **** 
 322:../HostCommunication/src/PayloadHelper.h **** /**
 323:../HostCommunication/src/PayloadHelper.h ****  * \internal
 324:../HostCommunication/src/PayloadHelper.h ****  * \brief The function writes an unsigned 64 bit integer value to a payload
 325:../HostCommunication/src/PayloadHelper.h ****  *        buffer.
 326:../HostCommunication/src/PayloadHelper.h ****  *
 327:../HostCommunication/src/PayloadHelper.h ****  * The function writes the given value into the given payload buffer at the
 328:../HostCommunication/src/PayloadHelper.h ****  * requested position. If needed the byte order is swapped to convert from the
 329:../HostCommunication/src/PayloadHelper.h ****  * payload's little endian format to the CPU's endian format.
 330:../HostCommunication/src/PayloadHelper.h ****  *
 331:../HostCommunication/src/PayloadHelper.h ****  * \param[in] payload  A pointer to a block of payload data.
 332:../HostCommunication/src/PayloadHelper.h ****  * \param[in] offset   The byte position at which the value will be written
 333:../HostCommunication/src/PayloadHelper.h ****  *                     to.
 334:../HostCommunication/src/PayloadHelper.h ****  * \param[in] value    The value to be written into the payload buffer.
 335:../HostCommunication/src/PayloadHelper.h ****  */
 336:../HostCommunication/src/PayloadHelper.h **** static inline void wr_payload_u64(uint8_t* payload, uint16_t offset,
 337:../HostCommunication/src/PayloadHelper.h ****                                   uint64_t value);
 338:../HostCommunication/src/PayloadHelper.h **** /*
 339:../HostCommunication/src/PayloadHelper.h **** ==============================================================================
 340:../HostCommunication/src/PayloadHelper.h ****    3. INLINE FUNCTIONS
 341:../HostCommunication/src/PayloadHelper.h **** ==============================================================================
 342:../HostCommunication/src/PayloadHelper.h **** */
 343:../HostCommunication/src/PayloadHelper.h **** #ifdef COMLIB_ALLOW_PAYLOAD_CASTS
 344:../HostCommunication/src/PayloadHelper.h **** /*
 345:../HostCommunication/src/PayloadHelper.h ****  * The following function implementations wan only be used on machines with
 346:../HostCommunication/src/PayloadHelper.h ****  * little endian CPUs, but are faster than the generic implementations.
 347:../HostCommunication/src/PayloadHelper.h ****  */
 348:../HostCommunication/src/PayloadHelper.h **** 
 349:../HostCommunication/src/PayloadHelper.h **** static inline int16_t rd_payload_i16(const uint8_t* payload, uint16_t offset)
 350:../HostCommunication/src/PayloadHelper.h **** {
 351:../HostCommunication/src/PayloadHelper.h ****     return *(int16_t*)(payload + offset);
 352:../HostCommunication/src/PayloadHelper.h **** }
 353:../HostCommunication/src/PayloadHelper.h **** 
 354:../HostCommunication/src/PayloadHelper.h **** static inline uint16_t rd_payload_u16(const uint8_t* payload, uint16_t offset)
 355:../HostCommunication/src/PayloadHelper.h **** {
 356:../HostCommunication/src/PayloadHelper.h ****     return *(uint16_t*)(payload + offset);
 357:../HostCommunication/src/PayloadHelper.h **** }
 358:../HostCommunication/src/PayloadHelper.h **** 
 359:../HostCommunication/src/PayloadHelper.h **** static inline int32_t rd_payload_i32(const uint8_t* payload, uint16_t offset)
 360:../HostCommunication/src/PayloadHelper.h **** {
 361:../HostCommunication/src/PayloadHelper.h ****     return *(int32_t*)(payload + offset);
 362:../HostCommunication/src/PayloadHelper.h **** }
 363:../HostCommunication/src/PayloadHelper.h **** 
 364:../HostCommunication/src/PayloadHelper.h **** static inline uint32_t rd_payload_u32(const uint8_t* payload, uint16_t offset)
 365:../HostCommunication/src/PayloadHelper.h **** {
 366:../HostCommunication/src/PayloadHelper.h ****     return *(uint32_t*)(payload + offset);
 367:../HostCommunication/src/PayloadHelper.h **** }
 368:../HostCommunication/src/PayloadHelper.h **** 
 369:../HostCommunication/src/PayloadHelper.h **** static inline int64_t rd_payload_i64(const uint8_t* payload, uint16_t offset)
 370:../HostCommunication/src/PayloadHelper.h **** {
 371:../HostCommunication/src/PayloadHelper.h ****     union
 372:../HostCommunication/src/PayloadHelper.h ****     {
 373:../HostCommunication/src/PayloadHelper.h ****         uint32_t u32[2];
 374:../HostCommunication/src/PayloadHelper.h ****         int64_t i64;
 375:../HostCommunication/src/PayloadHelper.h ****     } value;
 376:../HostCommunication/src/PayloadHelper.h ****     value.u32[0] = *(uint32_t*)(payload + offset);
 377:../HostCommunication/src/PayloadHelper.h ****     value.u32[1] = *(uint32_t*)(payload + offset + 4);
 378:../HostCommunication/src/PayloadHelper.h **** 
 379:../HostCommunication/src/PayloadHelper.h ****     return value.i64;
 380:../HostCommunication/src/PayloadHelper.h **** }
 381:../HostCommunication/src/PayloadHelper.h **** 
 382:../HostCommunication/src/PayloadHelper.h **** static inline uint64_t rd_payload_u64(const uint8_t* payload, uint16_t offset)
 383:../HostCommunication/src/PayloadHelper.h **** {
 384:../HostCommunication/src/PayloadHelper.h ****     union
 385:../HostCommunication/src/PayloadHelper.h ****     {
 386:../HostCommunication/src/PayloadHelper.h ****         uint32_t u32[2];
 387:../HostCommunication/src/PayloadHelper.h ****         uint64_t u64;
 388:../HostCommunication/src/PayloadHelper.h ****     } value;
 389:../HostCommunication/src/PayloadHelper.h ****     value.u32[0] = *(uint32_t*)(payload + offset);
 390:../HostCommunication/src/PayloadHelper.h ****     value.u32[1] = *(uint32_t*)(payload + offset + 4);
 391:../HostCommunication/src/PayloadHelper.h **** 
 392:../HostCommunication/src/PayloadHelper.h ****     return value.u64;
 393:../HostCommunication/src/PayloadHelper.h **** }
 394:../HostCommunication/src/PayloadHelper.h **** 
 395:../HostCommunication/src/PayloadHelper.h **** static inline void wr_payload_i16(uint8_t* payload, uint16_t offset,
 396:../HostCommunication/src/PayloadHelper.h ****                                   int16_t iValue)
 397:../HostCommunication/src/PayloadHelper.h **** {
 398:../HostCommunication/src/PayloadHelper.h ****     *(int16_t*)(payload + offset) = iValue;
 399:../HostCommunication/src/PayloadHelper.h **** }
 400:../HostCommunication/src/PayloadHelper.h **** 
 401:../HostCommunication/src/PayloadHelper.h **** static inline void wr_payload_u16(uint8_t* payload, uint16_t offset,
 402:../HostCommunication/src/PayloadHelper.h ****                                   uint16_t value)
 403:../HostCommunication/src/PayloadHelper.h **** {
 404:../HostCommunication/src/PayloadHelper.h ****     *(uint16_t*)(payload + offset) = value;
 405:../HostCommunication/src/PayloadHelper.h **** }
 406:../HostCommunication/src/PayloadHelper.h **** 
 407:../HostCommunication/src/PayloadHelper.h **** static inline void wr_payload_i32(uint8_t* payload, uint16_t offset,
 408:../HostCommunication/src/PayloadHelper.h ****                                   int32_t value)
 409:../HostCommunication/src/PayloadHelper.h **** {
 410:../HostCommunication/src/PayloadHelper.h ****     *(int32_t*)(payload + offset) = value;
 411:../HostCommunication/src/PayloadHelper.h **** }
 412:../HostCommunication/src/PayloadHelper.h **** 
 413:../HostCommunication/src/PayloadHelper.h **** static inline void wr_payload_u32(uint8_t* payload, uint16_t offset,
 414:../HostCommunication/src/PayloadHelper.h ****                                   uint32_t value)
 415:../HostCommunication/src/PayloadHelper.h **** {
 416:../HostCommunication/src/PayloadHelper.h ****     *(uint32_t*)(payload + offset) = value;
 417:../HostCommunication/src/PayloadHelper.h **** }
 418:../HostCommunication/src/PayloadHelper.h **** 
 419:../HostCommunication/src/PayloadHelper.h **** static inline void wr_payload_i64(uint8_t* payload, uint16_t offset,
 420:../HostCommunication/src/PayloadHelper.h ****                                   int64_t value)
 421:../HostCommunication/src/PayloadHelper.h **** {
 422:../HostCommunication/src/PayloadHelper.h ****     union
 423:../HostCommunication/src/PayloadHelper.h ****     {
 424:../HostCommunication/src/PayloadHelper.h ****         uint32_t u32[2];
 425:../HostCommunication/src/PayloadHelper.h ****         int64_t i64;
 426:../HostCommunication/src/PayloadHelper.h ****     } value_;
 427:../HostCommunication/src/PayloadHelper.h ****     value_.i64 = value;
 428:../HostCommunication/src/PayloadHelper.h ****     *(uint32_t*)(payload + offset)     = value_.u32[0];
 429:../HostCommunication/src/PayloadHelper.h ****     *(uint32_t*)(payload + offset + 4) = value_.u32[1];
 430:../HostCommunication/src/PayloadHelper.h **** }
 431:../HostCommunication/src/PayloadHelper.h **** 
 432:../HostCommunication/src/PayloadHelper.h **** static inline void wr_payload_u64(uint8_t* payload, uint16_t offset,
 433:../HostCommunication/src/PayloadHelper.h ****                                   uint64_t value)
 434:../HostCommunication/src/PayloadHelper.h **** {
 435:../HostCommunication/src/PayloadHelper.h ****     union
 436:../HostCommunication/src/PayloadHelper.h ****     {
 437:../HostCommunication/src/PayloadHelper.h ****         uint32_t u32[2];
 438:../HostCommunication/src/PayloadHelper.h ****         uint64_t u64;
 439:../HostCommunication/src/PayloadHelper.h ****     } value_;
 440:../HostCommunication/src/PayloadHelper.h ****     value_.u64 = value;
 441:../HostCommunication/src/PayloadHelper.h ****     *(uint32_t*)(payload + offset)     = value_.u32[0];
 442:../HostCommunication/src/PayloadHelper.h ****     *(uint32_t*)(payload + offset + 4) = value_.u32[1];
 443:../HostCommunication/src/PayloadHelper.h **** }
 444:../HostCommunication/src/PayloadHelper.h **** 
 445:../HostCommunication/src/PayloadHelper.h **** /*
 446:../HostCommunication/src/PayloadHelper.h **** ==============================================================================
 447:../HostCommunication/src/PayloadHelper.h ****    4. INLINE FUNCTIONS
 448:../HostCommunication/src/PayloadHelper.h **** ==============================================================================
 449:../HostCommunication/src/PayloadHelper.h **** */
 450:../HostCommunication/src/PayloadHelper.h **** #else
 451:../HostCommunication/src/PayloadHelper.h **** /*
 452:../HostCommunication/src/PayloadHelper.h ****  * The following function implementations are safe on any platform, but slower
 453:../HostCommunication/src/PayloadHelper.h ****  * than the native little endian implementations.
 454:../HostCommunication/src/PayloadHelper.h ****  */
 455:../HostCommunication/src/PayloadHelper.h **** 
 456:../HostCommunication/src/PayloadHelper.h **** static inline int16_t rd_payload_i16(const uint8_t* payload, uint16_t offset)
 457:../HostCommunication/src/PayloadHelper.h **** {
 458:../HostCommunication/src/PayloadHelper.h ****     return (int16_t)((((uint16_t)payload[offset + 1]) <<  8) |
 459:../HostCommunication/src/PayloadHelper.h ****                       ((uint16_t)payload[offset    ]));
 460:../HostCommunication/src/PayloadHelper.h **** }
 461:../HostCommunication/src/PayloadHelper.h **** 
 462:../HostCommunication/src/PayloadHelper.h **** static inline uint16_t rd_payload_u16(const uint8_t* payload, uint16_t offset)
 463:../HostCommunication/src/PayloadHelper.h **** {
 464:../HostCommunication/src/PayloadHelper.h ****     return (((uint16_t)payload[offset + 1]) <<  8) |
  74              	 .loc 2 464 0
  75 0018 8C78     	 ldrb r4,[r1,#2]
  76 001a 4978     	 ldrb r1,[r1,#1]
  77              	.LVL5:
  78              	.LBE22:
  79              	.LBE21:
 130:../HostCommunication/src/EndpointRadarP2G.c **** 
  80              	 .loc 1 130 0
  81 001c 1846     	 mov r0,r3
  82              	.LVL6:
  83 001e 41EA0421 	 orr r1,r1,r4,lsl#8
  84 0022 FFF7FEFF 	 bl radar_set_gain_level
  85              	.LVL7:
 132:../HostCommunication/src/EndpointRadarP2G.c ****         }
  86              	 .loc 1 132 0
  87 0026 F3E7     	 b .L2
  88              	.LVL8:
  89              	.L3:
  90              	.LBE20:
 112:../HostCommunication/src/EndpointRadarP2G.c ****         {
  91              	 .loc 1 112 0
  92 0028 012A     	 cmp r2,#1
  93 002a EFD1     	 bne .L8
  94              	.LVL9:
  95 002c 0546     	 mov r5,r0
  96              	.LVL10:
  97              	.LBB23:
  98              	.LBB24:
  71:../HostCommunication/src/EndpointRadarP2G.c **** 
  99              	 .loc 1 71 0
 100 002e 0DF10A01 	 add r1,sp,#10
 101              	.LVL11:
 102 0032 1846     	 mov r0,r3
 103              	.LVL12:
 104 0034 0192     	 str r2,[sp,#4]
 105 0036 FFF7FEFF 	 bl radar_get_gain_level
 106              	.LVL13:
  73:../HostCommunication/src/EndpointRadarP2G.c ****     {
 107              	 .loc 1 73 0
 108 003a 019A     	 ldr r2,[sp,#4]
 109 003c 0446     	 mov r4,r0
 110 003e 08B1     	 cbz r0,.L12
  71:../HostCommunication/src/EndpointRadarP2G.c **** 
 111              	 .loc 1 71 0
 112 0040 2046     	 mov r0,r4
 113              	.LVL14:
 114              	.LBE24:
 115              	.LBE23:
 116:../HostCommunication/src/EndpointRadarP2G.c ****         }
 116              	 .loc 1 116 0
 117 0042 E5E7     	 b .L2
 118              	.LVL15:
 119              	.L12:
 120              	.LBB33:
 121              	.LBB32:
 122              	.LBB25:
  79:../HostCommunication/src/EndpointRadarP2G.c **** 
 123              	 .loc 1 79 0
 124 0044 BDF80A30 	 ldrh r3,[sp,#10]
 125              	.LVL16:
 126              	.LBB26:
 127              	.LBB27:
 234:../HostCommunication/src/PayloadHelper.h **** }
 128              	 .loc 2 234 0
 129 0048 8DF80C20 	 strb r2,[sp,#12]
 130              	.LBE27:
 131              	.LBE26:
  82:../HostCommunication/src/EndpointRadarP2G.c ****         protocol_send_payload(message, sizeof(message));
 132              	 .loc 1 82 0
 133 004c 2846     	 mov r0,r5
 134              	.LVL17:
 135              	.LBB28:
 136              	.LBB29:
 465:../HostCommunication/src/PayloadHelper.h ****             ((uint16_t)payload[offset    ]);
 466:../HostCommunication/src/PayloadHelper.h **** }
 467:../HostCommunication/src/PayloadHelper.h **** 
 468:../HostCommunication/src/PayloadHelper.h **** static inline int32_t rd_payload_i32(const uint8_t* payload, uint16_t offset)
 469:../HostCommunication/src/PayloadHelper.h **** {
 470:../HostCommunication/src/PayloadHelper.h ****     return (int32_t)((((uint32_t)payload[offset + 3]) << 24) |
 471:../HostCommunication/src/PayloadHelper.h ****                      (((uint32_t)payload[offset + 2]) << 16) |
 472:../HostCommunication/src/PayloadHelper.h ****                      (((uint32_t)payload[offset + 1]) <<  8) |
 473:../HostCommunication/src/PayloadHelper.h ****                       ((uint32_t)payload[offset    ]));
 474:../HostCommunication/src/PayloadHelper.h **** }
 475:../HostCommunication/src/PayloadHelper.h **** 
 476:../HostCommunication/src/PayloadHelper.h **** static inline uint32_t rd_payload_u32(const uint8_t* payload, uint16_t offset)
 477:../HostCommunication/src/PayloadHelper.h **** {
 478:../HostCommunication/src/PayloadHelper.h ****     return (((uint32_t)payload[offset + 3]) << 24) |
 479:../HostCommunication/src/PayloadHelper.h ****            (((uint32_t)payload[offset + 2]) << 16) |
 480:../HostCommunication/src/PayloadHelper.h ****            (((uint32_t)payload[offset + 1]) <<  8) |
 481:../HostCommunication/src/PayloadHelper.h ****             ((uint32_t)payload[offset    ]);
 482:../HostCommunication/src/PayloadHelper.h **** }
 483:../HostCommunication/src/PayloadHelper.h **** 
 484:../HostCommunication/src/PayloadHelper.h **** static inline int64_t rd_payload_i64(const uint8_t* payload, uint16_t offset)
 485:../HostCommunication/src/PayloadHelper.h **** {
 486:../HostCommunication/src/PayloadHelper.h ****     return (int64_t)((((uint64_t)payload[offset + 7]) << 56) |
 487:../HostCommunication/src/PayloadHelper.h ****                      (((uint64_t)payload[offset + 6]) << 48) |
 488:../HostCommunication/src/PayloadHelper.h ****                      (((uint64_t)payload[offset + 5]) << 40) |
 489:../HostCommunication/src/PayloadHelper.h ****                      (((uint64_t)payload[offset + 4]) << 32) |
 490:../HostCommunication/src/PayloadHelper.h ****                      (((uint64_t)payload[offset + 3]) << 24) |
 491:../HostCommunication/src/PayloadHelper.h ****                      (((uint64_t)payload[offset + 2]) << 16) |
 492:../HostCommunication/src/PayloadHelper.h ****                      (((uint64_t)payload[offset + 1]) <<  8) |
 493:../HostCommunication/src/PayloadHelper.h ****                       ((uint64_t)payload[offset    ]));
 494:../HostCommunication/src/PayloadHelper.h **** }
 495:../HostCommunication/src/PayloadHelper.h **** 
 496:../HostCommunication/src/PayloadHelper.h **** static inline uint64_t rd_payload_u64(const uint8_t* payload, uint16_t offset)
 497:../HostCommunication/src/PayloadHelper.h **** {
 498:../HostCommunication/src/PayloadHelper.h ****     return (((uint64_t)payload[offset + 7]) << 56) |
 499:../HostCommunication/src/PayloadHelper.h ****            (((uint64_t)payload[offset + 6]) << 48) |
 500:../HostCommunication/src/PayloadHelper.h ****            (((uint64_t)payload[offset + 5]) << 40) |
 501:../HostCommunication/src/PayloadHelper.h ****            (((uint64_t)payload[offset + 4]) << 32) |
 502:../HostCommunication/src/PayloadHelper.h ****            (((uint64_t)payload[offset + 3]) << 24) |
 503:../HostCommunication/src/PayloadHelper.h ****            (((uint64_t)payload[offset + 2]) << 16) |
 504:../HostCommunication/src/PayloadHelper.h ****            (((uint64_t)payload[offset + 1]) <<  8) |
 505:../HostCommunication/src/PayloadHelper.h ****             ((uint64_t)payload[offset    ]);
 506:../HostCommunication/src/PayloadHelper.h **** }
 507:../HostCommunication/src/PayloadHelper.h **** 
 508:../HostCommunication/src/PayloadHelper.h **** static inline void wr_payload_i16(uint8_t* payload, uint16_t offset,
 509:../HostCommunication/src/PayloadHelper.h ****                                   int16_t value)
 510:../HostCommunication/src/PayloadHelper.h **** {
 511:../HostCommunication/src/PayloadHelper.h ****     payload[offset + 1] = (((uint16_t)value) >>  8) & 0xFF;
 512:../HostCommunication/src/PayloadHelper.h ****     payload[offset    ] =  ((uint16_t)value)        & 0xFF;
 513:../HostCommunication/src/PayloadHelper.h **** }
 514:../HostCommunication/src/PayloadHelper.h **** 
 515:../HostCommunication/src/PayloadHelper.h **** static inline void wr_payload_u16(uint8_t* payload, uint16_t offset,
 516:../HostCommunication/src/PayloadHelper.h ****                                   uint16_t value)
 517:../HostCommunication/src/PayloadHelper.h **** {
 518:../HostCommunication/src/PayloadHelper.h ****     payload[offset + 1] = (value >>  8) & 0xFF;
 137              	 .loc 2 518 0
 138 004e 1A0A     	 lsrs r2,r3,#8
 139              	.LBE29:
 140              	.LBE28:
  82:../HostCommunication/src/EndpointRadarP2G.c ****         protocol_send_payload(message, sizeof(message));
 141              	 .loc 1 82 0
 142 0050 0321     	 movs r1,#3
 143              	.LBB31:
 144              	.LBB30:
 519:../HostCommunication/src/PayloadHelper.h ****     payload[offset    ] =  value        & 0xFF;
 145              	 .loc 2 519 0
 146 0052 8DF80D30 	 strb r3,[sp,#13]
 518:../HostCommunication/src/PayloadHelper.h ****     payload[offset    ] =  value        & 0xFF;
 147              	 .loc 2 518 0
 148 0056 8DF80E20 	 strb r2,[sp,#14]
 149              	.LBE30:
 150              	.LBE31:
  82:../HostCommunication/src/EndpointRadarP2G.c ****         protocol_send_payload(message, sizeof(message));
 151              	 .loc 1 82 0
 152 005a FFF7FEFF 	 bl protocol_send_header
 153              	.LVL18:
  83:../HostCommunication/src/EndpointRadarP2G.c ****         protocol_send_tail();
 154              	 .loc 1 83 0
 155 005e 03A8     	 add r0,sp,#12
 156              	.LVL19:
 157 0060 0321     	 movs r1,#3
 158 0062 FFF7FEFF 	 bl protocol_send_payload
 159              	.LVL20:
  84:../HostCommunication/src/EndpointRadarP2G.c ****     }
 160              	 .loc 1 84 0
 161 0066 FFF7FEFF 	 bl protocol_send_tail
 162              	.LVL21:
 163              	.LBE25:
  71:../HostCommunication/src/EndpointRadarP2G.c **** 
 164              	 .loc 1 71 0
 165 006a 2046     	 mov r0,r4
 166 006c D0E7     	 b .L2
 167              	.LBE32:
 168              	.LBE33:
 169              	 .cfi_endproc
 170              	.LFE487:
 172 006e 00BF     	 .section .text.ep_radar_p2g_handle_change,"ax",%progbits
 173              	 .align 2
 174              	 .global ep_radar_p2g_handle_change
 175              	 .thumb
 176              	 .thumb_func
 178              	ep_radar_p2g_handle_change:
 179              	.LFB488:
 143:../HostCommunication/src/EndpointRadarP2G.c **** 
 144:../HostCommunication/src/EndpointRadarP2G.c **** void ep_radar_p2g_handle_change(uint8_t endpoint, void* context,
 145:../HostCommunication/src/EndpointRadarP2G.c ****                                 uint32_t what)
 146:../HostCommunication/src/EndpointRadarP2G.c **** {
 180              	 .loc 1 146 0
 181              	 .cfi_startproc
 182              	 
 183              	 
 184              	 
 185              	.LVL22:
 186 0000 7047     	 bx lr
 187              	 .cfi_endproc
 188              	.LFE488:
 190 0002 00BF     	 .text
 191              	.Letext0:
 192              	 .file 3 "c:\\infineon\\tools\\dave ide\\4.5.0.202105191637\\eclipse\\arm-gcc-49\\arm-none-eabi\\include\\machine\\_default_types.h"
 193              	 .file 4 "c:\\infineon\\tools\\dave ide\\4.5.0.202105191637\\eclipse\\arm-gcc-49\\arm-none-eabi\\include\\stdint.h"
 194              	 .file 5 "E:/NOVA/Assets/IFX_P2G-HW-SW_V1.0.4/Firmware_Software/DAVE project/P2G_FW/Radar_Control/inc/radar_control.h"
 195              	 .file 6 "E:/NOVA/Assets/IFX_P2G-HW-SW_V1.0.4/Firmware_Software/DAVE project/P2G_FW/Libraries/CMSIS/Infineon/XMC4700_series/Include/XMC4700.h"
 196              	 .file 7 "E:/NOVA/Assets/IFX_P2G-HW-SW_V1.0.4/Firmware_Software/DAVE project/P2G_FW/Libraries/XMCLib/inc/xmc_vadc.h"
 197              	 .file 8 "E:/NOVA/Assets/IFX_P2G-HW-SW_V1.0.4/Firmware_Software/DAVE project/P2G_FW/Libraries/XMCLib/inc/xmc_usbd_regs.h"
 198              	 .file 9 "E:/NOVA/Assets/IFX_P2G-HW-SW_V1.0.4/Firmware_Software/DAVE project/P2G_FW/Libraries/XMCLib/inc/xmc_usbd.h"
 199              	 .file 10 "E:/NOVA/Assets/IFX_P2G-HW-SW_V1.0.4/Firmware_Software/DAVE project/P2G_FW/Dave/Generated/USBD/usbd.h"
 200              	 .file 11 "E:/NOVA/Assets/IFX_P2G-HW-SW_V1.0.4/Firmware_Software/DAVE project/P2G_FW/Libraries/CMSIS/Include/core_cm4.h"
 201              	 .file 12 "E:/NOVA/Assets/IFX_P2G-HW-SW_V1.0.4/Firmware_Software/DAVE project/P2G_FW/Libraries/CMSIS/Infineon/XMC4700_series/Include/system_XMC4700.h"
 202              	 .file 13 "E:/NOVA/Assets/IFX_P2G-HW-SW_V1.0.4/Firmware_Software/DAVE project/P2G_FW/Dave/Generated/ADC_MEASUREMENT_ADV/adc_measurement_adv.h"
 203              	 .file 14 "E:/NOVA/Assets/IFX_P2G-HW-SW_V1.0.4/Firmware_Software/DAVE project/P2G_FW/Dave/Generated/USBD/usbd_extern.h"
 204              	 .file 15 "E:/NOVA/Assets/IFX_P2G-HW-SW_V1.0.4/Firmware_Software/DAVE project/P2G_FW/HostCommunication/include/Protocol.h"
 205              	 .file 16 "E:/NOVA/Assets/IFX_P2G-HW-SW_V1.0.4/Firmware_Software/DAVE project/P2G_FW/Radar_Control/inc/radar_api.h"