   1              	 .syntax unified
   2              	 .cpu cortex-m4
   3              	 .eabi_attribute 27,3
   4              	 .fpu fpv4-sp-d16
   5              	 .eabi_attribute 20,1
   6              	 .eabi_attribute 21,1
   7              	 .eabi_attribute 23,3
   8              	 .eabi_attribute 24,1
   9              	 .eabi_attribute 25,1
  10              	 .eabi_attribute 26,1
  11              	 .eabi_attribute 30,2
  12              	 .eabi_attribute 34,1
  13              	 .eabi_attribute 18,4
  14              	 .thumb
  15              	 .file "tracking.c"
  16              	 .text
  17              	.Ltext0:
  18              	 .cfi_sections .debug_frame
  19              	 .section .text.compare_float,"ax",%progbits
  20              	 .align 2
  21              	 .thumb
  22              	 .thumb_func
  24              	compare_float:
  25              	.LFB475:
  26              	 .file 1 "../Algorithm/src/tracking.c"
   1:../Algorithm/src/tracking.c **** /**
   2:../Algorithm/src/tracking.c ****     \file   tracking.c
   3:../Algorithm/src/tracking.c **** 
   4:../Algorithm/src/tracking.c ****   	\brief  Open loop tracking with data association
   5:../Algorithm/src/tracking.c ****  */
   6:../Algorithm/src/tracking.c **** 
   7:../Algorithm/src/tracking.c **** /* ===========================================================================
   8:../Algorithm/src/tracking.c **** ** Copyright (C) 2018-2019 Infineon Technologies AG
   9:../Algorithm/src/tracking.c **** ** All rights reserved.
  10:../Algorithm/src/tracking.c **** ** ===========================================================================
  11:../Algorithm/src/tracking.c **** **
  12:../Algorithm/src/tracking.c **** ** ===========================================================================
  13:../Algorithm/src/tracking.c **** ** This document contains proprietary information of Infineon Technologies AG.
  14:../Algorithm/src/tracking.c **** ** Passing on and copying of this document, and communication of its contents
  15:../Algorithm/src/tracking.c **** ** is not permitted without Infineon's prior written authorization.
  16:../Algorithm/src/tracking.c **** ** ===========================================================================
  17:../Algorithm/src/tracking.c **** */
  18:../Algorithm/src/tracking.c **** 
  19:../Algorithm/src/tracking.c **** 
  20:../Algorithm/src/tracking.c **** /*
  21:../Algorithm/src/tracking.c **** ==============================================================================
  22:../Algorithm/src/tracking.c ****    1. INCLUDE FILES
  23:../Algorithm/src/tracking.c **** ==============================================================================
  24:../Algorithm/src/tracking.c ****  */
  25:../Algorithm/src/tracking.c **** 
  26:../Algorithm/src/tracking.c **** #include <stdlib.h>
  27:../Algorithm/src/tracking.c **** #include "tracking.h"
  28:../Algorithm/src/tracking.c **** #include "dsp_lib.h"
  29:../Algorithm/src/tracking.c **** #include "datastore.h"
  30:../Algorithm/src/tracking.c **** 
  31:../Algorithm/src/tracking.c **** /*
  32:../Algorithm/src/tracking.c **** ==============================================================================
  33:../Algorithm/src/tracking.c ****    2. DEFINITIONS
  34:../Algorithm/src/tracking.c **** ==============================================================================
  35:../Algorithm/src/tracking.c ****  */
  36:../Algorithm/src/tracking.c **** 
  37:../Algorithm/src/tracking.c **** #define  LIFE_TIME_COUNT	(20U)			/**< Number of frames after which track is killed */
  38:../Algorithm/src/tracking.c **** 
  39:../Algorithm/src/tracking.c **** #define  GHOST_LIFE_TIME	(5U)			/**< Number of frames after which ghost track is killed */
  40:../Algorithm/src/tracking.c **** 
  41:../Algorithm/src/tracking.c **** #define  DELTA_PX_CM		(120.0f)		/**< Size of prediction window, 3 bins */
  42:../Algorithm/src/tracking.c **** 
  43:../Algorithm/src/tracking.c **** /*
  44:../Algorithm/src/tracking.c **** ==============================================================================
  45:../Algorithm/src/tracking.c ****    3. DATA
  46:../Algorithm/src/tracking.c **** ==============================================================================
  47:../Algorithm/src/tracking.c ****  */
  48:../Algorithm/src/tracking.c **** 
  49:../Algorithm/src/tracking.c **** static Median_Filtering_t median_angle_arr[CURRENT_NUM_OF_TRACKS];
  50:../Algorithm/src/tracking.c **** 
  51:../Algorithm/src/tracking.c **** static float rx_angle_fft[2*DOPPLER_FFT_SIZE];
  52:../Algorithm/src/tracking.c **** 
  53:../Algorithm/src/tracking.c **** static float rx_angle_fft_spectrum[DOPPLER_FFT_SIZE];
  54:../Algorithm/src/tracking.c **** 
  55:../Algorithm/src/tracking.c **** /*
  56:../Algorithm/src/tracking.c **** ==============================================================================
  57:../Algorithm/src/tracking.c ****    4. LOCAL FUNCTIONS
  58:../Algorithm/src/tracking.c **** ==============================================================================
  59:../Algorithm/src/tracking.c ****  */
  60:../Algorithm/src/tracking.c **** 
  61:../Algorithm/src/tracking.c **** static uint8_t get_next_free_trackID(tracking_list_t *p_tracks);
  62:../Algorithm/src/tracking.c **** 
  63:../Algorithm/src/tracking.c **** static void clear_track_elem(Tracking_Params_t* track_ptr);
  64:../Algorithm/src/tracking.c **** 
  65:../Algorithm/src/tracking.c **** static uint32_t assign_track(tracking_list_t *p_tracks, Measurement_elem_t* target_measurement, uin
  66:../Algorithm/src/tracking.c **** 
  67:../Algorithm/src/tracking.c **** static void update_track(Tracking_Params_t* track_ptr, Measurement_elem_t* target_measurement, uint
  68:../Algorithm/src/tracking.c **** 		float px_track_predict, float range_detection_threshold, int16_t angle_offset_deg, uint32_t num_o
  69:../Algorithm/src/tracking.c **** 		float wave_length_ant_spacing_ratio);
  70:../Algorithm/src/tracking.c **** 
  71:../Algorithm/src/tracking.c **** static int compare_float(const void* a, const void* b);
  72:../Algorithm/src/tracking.c **** 
  73:../Algorithm/src/tracking.c **** static float median_filtering(Median_Filtering_t *track_median_arr, float new_input);
  74:../Algorithm/src/tracking.c **** 
  75:../Algorithm/src/tracking.c **** //===========================================================================
  76:../Algorithm/src/tracking.c **** 
  77:../Algorithm/src/tracking.c **** void data_association(tracking_list_t *p_tracks, Measurement_elem_t* target_measurements, uint16_t 
  78:../Algorithm/src/tracking.c **** 		const algo_settings_t *cp_algo_settings, uint32_t frame_period_usec, uint32_t num_of_chirps )
  79:../Algorithm/src/tracking.c **** {
  80:../Algorithm/src/tracking.c **** 
  81:../Algorithm/src/tracking.c **** 	float px_track_predict = 0;
  82:../Algorithm/src/tracking.c **** 	float px_measured = 0;
  83:../Algorithm/src/tracking.c **** 	float px_min, px_max;
  84:../Algorithm/src/tracking.c **** 	float curr_neighbor, last_neighbor;
  85:../Algorithm/src/tracking.c **** 
  86:../Algorithm/src/tracking.c **** 	//========= CASE 1: all tracks are empty ===========
  87:../Algorithm/src/tracking.c **** 	if(p_tracks->num_of_tracks == 0 && num_of_targets != 0)
  88:../Algorithm/src/tracking.c **** 	{
  89:../Algorithm/src/tracking.c **** 		// clear all tracks:
  90:../Algorithm/src/tracking.c **** 		for (uint8_t i = 0; i < p_tracks->max_num_of_tracks; i++)
  91:../Algorithm/src/tracking.c **** 		{
  92:../Algorithm/src/tracking.c **** 			memset(&p_tracks->elems[i], 0 ,sizeof(p_tracks->elems[i]) );
  93:../Algorithm/src/tracking.c **** 		}
  94:../Algorithm/src/tracking.c **** 
  95:../Algorithm/src/tracking.c **** 		for (uint8_t j = 0; j < num_of_targets; j++)
  96:../Algorithm/src/tracking.c **** 		{
  97:../Algorithm/src/tracking.c **** 			if(target_measurements[j].speed != 0)		// only moving targets
  98:../Algorithm/src/tracking.c **** 			{
  99:../Algorithm/src/tracking.c **** 				uint8_t next_free_id = get_next_free_trackID( p_tracks );
 100:../Algorithm/src/tracking.c **** 
 101:../Algorithm/src/tracking.c **** 				(void) assign_track(p_tracks, &target_measurements[j], next_free_id, cp_algo_settings->angle_of
 102:../Algorithm/src/tracking.c **** 						cp_algo_settings->wave_length_ant_spacing_ratio, cp_algo_settings->min_angle_for_track_assign
 103:../Algorithm/src/tracking.c **** 
 104:../Algorithm/src/tracking.c **** 				if (p_tracks->num_of_tracks >= p_tracks->max_num_of_tracks)
 105:../Algorithm/src/tracking.c **** 				{
 106:../Algorithm/src/tracking.c **** 					break;
 107:../Algorithm/src/tracking.c **** 				}
 108:../Algorithm/src/tracking.c **** 			}
 109:../Algorithm/src/tracking.c **** 		}
 110:../Algorithm/src/tracking.c **** 	}
 111:../Algorithm/src/tracking.c **** 
 112:../Algorithm/src/tracking.c **** 	//========= CASE 2: update tracks already assigned ===========
 113:../Algorithm/src/tracking.c **** 	else
 114:../Algorithm/src/tracking.c **** 	{
 115:../Algorithm/src/tracking.c **** 		int8_t tgt_idx;
 116:../Algorithm/src/tracking.c **** 
 117:../Algorithm/src/tracking.c **** 		for (uint8_t i = 0; i < p_tracks->max_num_of_tracks; i++)
 118:../Algorithm/src/tracking.c **** 		{
 119:../Algorithm/src/tracking.c **** 			if (p_tracks->elems[i].is_alived == 0)
 120:../Algorithm/src/tracking.c **** 			{
 121:../Algorithm/src/tracking.c **** 				continue;
 122:../Algorithm/src/tracking.c **** 			}
 123:../Algorithm/src/tracking.c **** 
 124:../Algorithm/src/tracking.c **** 			px_track_predict = p_tracks->elems[i].range - (p_tracks->elems[i].speed * ((frame_period_usec/10
 125:../Algorithm/src/tracking.c **** 
 126:../Algorithm/src/tracking.c **** 			px_max = px_track_predict + DELTA_PX_CM;
 127:../Algorithm/src/tracking.c **** 
 128:../Algorithm/src/tracking.c **** 			px_min = px_track_predict - DELTA_PX_CM;
 129:../Algorithm/src/tracking.c **** 
 130:../Algorithm/src/tracking.c **** 			if (px_min < 0)
 131:../Algorithm/src/tracking.c **** 			{
 132:../Algorithm/src/tracking.c **** 				px_min = 0;
 133:../Algorithm/src/tracking.c **** 			}
 134:../Algorithm/src/tracking.c **** 
 135:../Algorithm/src/tracking.c **** 			//=========== SNN loop =============
 136:../Algorithm/src/tracking.c **** 
 137:../Algorithm/src/tracking.c **** 			tgt_idx = -1;
 138:../Algorithm/src/tracking.c **** 
 139:../Algorithm/src/tracking.c **** 			curr_neighbor = 0;
 140:../Algorithm/src/tracking.c **** 
 141:../Algorithm/src/tracking.c **** 			last_neighbor = 10000;
 142:../Algorithm/src/tracking.c **** 
 143:../Algorithm/src/tracking.c **** 			for (uint8_t j = 0; j < num_of_targets; j++)
 144:../Algorithm/src/tracking.c **** 			{
 145:../Algorithm/src/tracking.c **** 				if(target_measurements[j].is_associated == 0)
 146:../Algorithm/src/tracking.c **** 				{
 147:../Algorithm/src/tracking.c **** 					px_measured = target_measurements[j].range;
 148:../Algorithm/src/tracking.c **** 
 149:../Algorithm/src/tracking.c **** 					if((px_min <= px_measured) && (px_measured <= px_max))
 150:../Algorithm/src/tracking.c **** 					{
 151:../Algorithm/src/tracking.c **** 						curr_neighbor = fabsf(px_measured - px_track_predict);
 152:../Algorithm/src/tracking.c **** 
 153:../Algorithm/src/tracking.c **** 						if (curr_neighbor < last_neighbor)
 154:../Algorithm/src/tracking.c **** 						{
 155:../Algorithm/src/tracking.c **** 							last_neighbor = px_measured;
 156:../Algorithm/src/tracking.c **** 
 157:../Algorithm/src/tracking.c **** 							tgt_idx = j;
 158:../Algorithm/src/tracking.c **** 						}
 159:../Algorithm/src/tracking.c **** 					}
 160:../Algorithm/src/tracking.c **** 				}
 161:../Algorithm/src/tracking.c **** 			}
 162:../Algorithm/src/tracking.c **** 
 163:../Algorithm/src/tracking.c **** 			if (tgt_idx == -1)
 164:../Algorithm/src/tracking.c **** 			{
 165:../Algorithm/src/tracking.c **** 				p_tracks->elems[i].lifetime_counter += 1;
 166:../Algorithm/src/tracking.c **** 
 167:../Algorithm/src/tracking.c **** 				p_tracks->elems[i].range = 0.5 * (p_tracks->elems[i].range + px_track_predict);
 168:../Algorithm/src/tracking.c **** 			}
 169:../Algorithm/src/tracking.c **** 			else
 170:../Algorithm/src/tracking.c **** 			{
 171:../Algorithm/src/tracking.c **** 				p_tracks->elems[i].lifetime_counter /= 2;
 172:../Algorithm/src/tracking.c **** 
 173:../Algorithm/src/tracking.c **** 				p_tracks->elems[i].measurement_counter += 1;
 174:../Algorithm/src/tracking.c **** 
 175:../Algorithm/src/tracking.c **** 				update_track(&p_tracks->elems[i], &target_measurements[tgt_idx], i, px_track_predict * 0.5,
 176:../Algorithm/src/tracking.c **** 								cp_algo_settings->range_detection_threshold , cp_algo_settings->angle_offset_deg, num_of_ch
 177:../Algorithm/src/tracking.c **** 								cp_algo_settings->wave_length_ant_spacing_ratio);
 178:../Algorithm/src/tracking.c **** 
 179:../Algorithm/src/tracking.c **** 				target_measurements[tgt_idx].is_associated = 1;
 180:../Algorithm/src/tracking.c **** 			}
 181:../Algorithm/src/tracking.c **** 		}
 182:../Algorithm/src/tracking.c **** 
 183:../Algorithm/src/tracking.c **** 		//========= CASE 3: Kill expired tracks ===========
 184:../Algorithm/src/tracking.c **** 
 185:../Algorithm/src/tracking.c **** 		int32_t ghost_target_diff = 0;
 186:../Algorithm/src/tracking.c **** 
 187:../Algorithm/src/tracking.c **** 		for (uint32_t j = 0; j < p_tracks->max_num_of_tracks; j++)
 188:../Algorithm/src/tracking.c **** 		{
 189:../Algorithm/src/tracking.c **** 			ghost_target_diff = p_tracks->elems[j].lifetime_counter - p_tracks->elems[j].measurement_counter
 190:../Algorithm/src/tracking.c **** 
 191:../Algorithm/src/tracking.c **** 			if (p_tracks->elems[j].lifetime_counter > LIFE_TIME_COUNT || ghost_target_diff > 0  ||
 192:../Algorithm/src/tracking.c **** 					p_tracks->elems[j].speed_count > 2*LIFE_TIME_COUNT )
 193:../Algorithm/src/tracking.c **** 			{
 194:../Algorithm/src/tracking.c **** 				clear_track_elem(&p_tracks->elems[j]);  // init track data
 195:../Algorithm/src/tracking.c **** 				p_tracks->num_of_tracks -= 1;
 196:../Algorithm/src/tracking.c **** 
 197:../Algorithm/src/tracking.c **** 				median_angle_arr[j].is_full = 0;
 198:../Algorithm/src/tracking.c **** 			}
 199:../Algorithm/src/tracking.c **** 		}
 200:../Algorithm/src/tracking.c **** 
 201:../Algorithm/src/tracking.c **** 		//========= CASE 4: assign new tracks  ===========
 202:../Algorithm/src/tracking.c **** 
 203:../Algorithm/src/tracking.c **** 		if (p_tracks->num_of_tracks < p_tracks->max_num_of_tracks)
 204:../Algorithm/src/tracking.c **** 		{
 205:../Algorithm/src/tracking.c **** 			for (uint8_t j = 0; j < num_of_targets; j++)
 206:../Algorithm/src/tracking.c **** 			{
 207:../Algorithm/src/tracking.c **** 				if(target_measurements[j].is_associated == 0 && target_measurements[j].speed != 0)
 208:../Algorithm/src/tracking.c **** 				{
 209:../Algorithm/src/tracking.c **** 					uint8_t next_free_id = get_next_free_trackID( p_tracks );
 210:../Algorithm/src/tracking.c **** 
 211:../Algorithm/src/tracking.c **** 					(void) assign_track(p_tracks, &target_measurements[j], next_free_id, cp_algo_settings->angle_o
 212:../Algorithm/src/tracking.c **** 							cp_algo_settings->wave_length_ant_spacing_ratio, cp_algo_settings->min_angle_for_track_assig
 213:../Algorithm/src/tracking.c **** 
 214:../Algorithm/src/tracking.c **** 					if (p_tracks->num_of_tracks >= p_tracks->max_num_of_tracks)
 215:../Algorithm/src/tracking.c **** 					{
 216:../Algorithm/src/tracking.c **** 						break;
 217:../Algorithm/src/tracking.c **** 					}
 218:../Algorithm/src/tracking.c **** 				}
 219:../Algorithm/src/tracking.c **** 			}
 220:../Algorithm/src/tracking.c **** 		}
 221:../Algorithm/src/tracking.c **** 	}
 222:../Algorithm/src/tracking.c **** 
 223:../Algorithm/src/tracking.c **** }
 224:../Algorithm/src/tracking.c **** 
 225:../Algorithm/src/tracking.c **** //===========================================================================
 226:../Algorithm/src/tracking.c **** 
 227:../Algorithm/src/tracking.c **** static void clear_track_elem(Tracking_Params_t* track_ptr)
 228:../Algorithm/src/tracking.c **** {
 229:../Algorithm/src/tracking.c **** 	memset(track_ptr, 0, sizeof(Tracking_Params_t));
 230:../Algorithm/src/tracking.c **** 	track_ptr->d_phi = IGNORE_NAN;
 231:../Algorithm/src/tracking.c **** }
 232:../Algorithm/src/tracking.c **** 
 233:../Algorithm/src/tracking.c **** //===========================================================================
 234:../Algorithm/src/tracking.c **** 
 235:../Algorithm/src/tracking.c **** static void update_track(Tracking_Params_t* track_ptr, Measurement_elem_t* target_measurement, uint
 236:../Algorithm/src/tracking.c **** 		float px_track_predict, float range_detection_threshold, int16_t angle_offset_deg, uint32_t num_o
 237:../Algorithm/src/tracking.c **** 		float wave_length_ant_spacing_ratio)
 238:../Algorithm/src/tracking.c **** {
 239:../Algorithm/src/tracking.c **** 
 240:../Algorithm/src/tracking.c **** 	float last_range = track_ptr->range;
 241:../Algorithm/src/tracking.c **** 
 242:../Algorithm/src/tracking.c **** 	float i1_mean, q1_mean;
 243:../Algorithm/src/tracking.c **** 
 244:../Algorithm/src/tracking.c **** 	float i2_mean, q2_mean;
 245:../Algorithm/src/tracking.c **** 
 246:../Algorithm/src/tracking.c **** 	float max_value;
 247:../Algorithm/src/tracking.c **** 
 248:../Algorithm/src/tracking.c **** 	uint32_t idx;
 249:../Algorithm/src/tracking.c **** 
 250:../Algorithm/src/tracking.c **** 	float alpha_range ;
 251:../Algorithm/src/tracking.c **** 
 252:../Algorithm/src/tracking.c **** 	if (fabs(target_measurement->speed) <= 0.3)
 253:../Algorithm/src/tracking.c **** 	{
 254:../Algorithm/src/tracking.c **** 		alpha_range = 0.25;
 255:../Algorithm/src/tracking.c **** 	}
 256:../Algorithm/src/tracking.c **** 	else if (fabs(target_measurement->speed) > 0.3 && fabs(target_measurement->speed) < 0.5)
 257:../Algorithm/src/tracking.c **** 	{
 258:../Algorithm/src/tracking.c **** 		alpha_range = 0.50;
 259:../Algorithm/src/tracking.c **** 	}
 260:../Algorithm/src/tracking.c **** 	else if (fabs(target_measurement->speed) >= 0.5 && fabs(target_measurement->speed) < 1.0)
 261:../Algorithm/src/tracking.c **** 	{
 262:../Algorithm/src/tracking.c **** 		alpha_range = 0.8;
 263:../Algorithm/src/tracking.c **** 	}
 264:../Algorithm/src/tracking.c **** 	else if (fabs(target_measurement->speed) >= 1.0)
 265:../Algorithm/src/tracking.c **** 	{
 266:../Algorithm/src/tracking.c **** 		alpha_range = 0.99;
 267:../Algorithm/src/tracking.c **** 	}
 268:../Algorithm/src/tracking.c **** 	else
 269:../Algorithm/src/tracking.c **** 	{
 270:../Algorithm/src/tracking.c **** 		alpha_range = 1.0/16.0;
 271:../Algorithm/src/tracking.c **** 	}
 272:../Algorithm/src/tracking.c **** 
 273:../Algorithm/src/tracking.c **** 	//------------------------- update range -----------------------------------
 274:../Algorithm/src/tracking.c **** 
 275:../Algorithm/src/tracking.c **** 	track_ptr->range = (1.0f - alpha_range) * track_ptr->range +
 276:../Algorithm/src/tracking.c **** 			alpha_range * (target_measurement->range * 0.5f + px_track_predict);
 277:../Algorithm/src/tracking.c **** 
 278:../Algorithm/src/tracking.c **** 	if (track_ptr->range_change_flag == 0)
 279:../Algorithm/src/tracking.c **** 	{
 280:../Algorithm/src/tracking.c **** 		if ((track_ptr->range < last_range - 40) || (track_ptr->range > last_range + 40))
 281:../Algorithm/src/tracking.c **** 		{
 282:../Algorithm/src/tracking.c **** 			track_ptr->range_change_flag = 1;
 283:../Algorithm/src/tracking.c **** 		}
 284:../Algorithm/src/tracking.c **** 	}
 285:../Algorithm/src/tracking.c **** 
 286:../Algorithm/src/tracking.c **** 	//------------------------- update speed -----------------------------------
 287:../Algorithm/src/tracking.c **** 
 288:../Algorithm/src/tracking.c **** 	track_ptr->speed = target_measurement->speed;
 289:../Algorithm/src/tracking.c **** 
 290:../Algorithm/src/tracking.c **** 	if (track_ptr->speed == 0)
 291:../Algorithm/src/tracking.c **** 	{
 292:../Algorithm/src/tracking.c **** 		track_ptr->speed_count += 1;
 293:../Algorithm/src/tracking.c **** 	}
 294:../Algorithm/src/tracking.c **** 	else
 295:../Algorithm/src/tracking.c **** 	{
 296:../Algorithm/src/tracking.c **** 		track_ptr->speed_count = 0;
 297:../Algorithm/src/tracking.c **** 	}
 298:../Algorithm/src/tracking.c **** 
 299:../Algorithm/src/tracking.c **** 	//------------------------- update angle -----------------------------------
 300:../Algorithm/src/tracking.c **** 
 301:../Algorithm/src/tracking.c **** 	track_ptr->strength = target_measurement->strength;
 302:../Algorithm/src/tracking.c **** 
 303:../Algorithm/src/tracking.c **** 	if (track_ptr->strength > 1.0 * range_detection_threshold)
 304:../Algorithm/src/tracking.c **** 	{
 305:../Algorithm/src/tracking.c **** 		if (track_ptr->speed_count == 0)
 306:../Algorithm/src/tracking.c **** 		{
 307:../Algorithm/src/tracking.c **** 			track_ptr->rx1_angle_arg_re[0] = target_measurement->rx1_angle_arg_re;
 308:../Algorithm/src/tracking.c **** 
 309:../Algorithm/src/tracking.c **** 			track_ptr->rx1_angle_arg_im[0] = target_measurement->rx1_angle_arg_im;
 310:../Algorithm/src/tracking.c **** 
 311:../Algorithm/src/tracking.c **** 			track_ptr->rx2_angle_arg_re[0] = target_measurement->rx2_angle_arg_re;
 312:../Algorithm/src/tracking.c **** 
 313:../Algorithm/src/tracking.c **** 			track_ptr->rx2_angle_arg_im[0] = target_measurement->rx2_angle_arg_im;
 314:../Algorithm/src/tracking.c **** 
 315:../Algorithm/src/tracking.c **** 			target_angle_data T;
 316:../Algorithm/src/tracking.c **** 
 317:../Algorithm/src/tracking.c **** 			T = compute_angle(track_ptr->rx1_angle_arg_re[0], track_ptr->rx1_angle_arg_im[0],
 318:../Algorithm/src/tracking.c **** 					track_ptr->rx2_angle_arg_re[0], track_ptr->rx2_angle_arg_im[0],track_ptr->d_phi, angle_offset_
 319:../Algorithm/src/tracking.c **** 
 320:../Algorithm/src/tracking.c **** 			track_ptr->angle = T.target_angle;
 321:../Algorithm/src/tracking.c **** 			track_ptr->d_phi = T.d_phi;
 322:../Algorithm/src/tracking.c **** 
 323:../Algorithm/src/tracking.c **** 			track_ptr->angle = median_filtering(&median_angle_arr[track_id], track_ptr->angle);
 324:../Algorithm/src/tracking.c **** 		}
 325:../Algorithm/src/tracking.c **** 		else if ((track_ptr->speed_count % (num_of_chirps + 1)) != 0)
 326:../Algorithm/src/tracking.c **** 		{
 327:../Algorithm/src/tracking.c **** 
 328:../Algorithm/src/tracking.c **** 			idx = (track_ptr->speed_count % (num_of_chirps + 1)) - 1;
 329:../Algorithm/src/tracking.c **** 
 330:../Algorithm/src/tracking.c **** 			track_ptr->rx1_angle_arg_re[idx] = target_measurement->rx1_angle_arg_re;
 331:../Algorithm/src/tracking.c **** 
 332:../Algorithm/src/tracking.c **** 			track_ptr->rx1_angle_arg_im[idx] = target_measurement->rx1_angle_arg_im;
 333:../Algorithm/src/tracking.c **** 
 334:../Algorithm/src/tracking.c **** 			track_ptr->rx2_angle_arg_re[idx] = target_measurement->rx2_angle_arg_re;
 335:../Algorithm/src/tracking.c **** 
 336:../Algorithm/src/tracking.c **** 			track_ptr->rx2_angle_arg_im[idx] = target_measurement->rx2_angle_arg_im;
 337:../Algorithm/src/tracking.c **** 
 338:../Algorithm/src/tracking.c **** 			target_angle_data T;
 339:../Algorithm/src/tracking.c **** 
 340:../Algorithm/src/tracking.c **** 			T = compute_angle(track_ptr->rx1_angle_arg_re[idx], track_ptr->rx1_angle_arg_im[idx],
 341:../Algorithm/src/tracking.c **** 					track_ptr->rx2_angle_arg_re[idx], track_ptr->rx2_angle_arg_im[idx],track_ptr->d_phi, angle_off
 342:../Algorithm/src/tracking.c **** 
 343:../Algorithm/src/tracking.c **** 			track_ptr->angle = T.target_angle;
 344:../Algorithm/src/tracking.c **** 			track_ptr->d_phi = T.d_phi;
 345:../Algorithm/src/tracking.c **** 
 346:../Algorithm/src/tracking.c **** 			track_ptr->angle = median_filtering(&median_angle_arr[track_id], track_ptr->angle);
 347:../Algorithm/src/tracking.c **** 		}
 348:../Algorithm/src/tracking.c **** 		else
 349:../Algorithm/src/tracking.c **** 		{
 350:../Algorithm/src/tracking.c **** 			//---------------------------------------- Rx1 ------------------------------------------
 351:../Algorithm/src/tracking.c **** 
 352:../Algorithm/src/tracking.c **** 			compute_fft_signal(track_ptr->rx1_angle_arg_re, track_ptr->rx1_angle_arg_im, num_of_chirps, DOPP
 353:../Algorithm/src/tracking.c **** 					FFT_INPUT_COMPLEX, FFT_SLOW_TIME, &i1_mean, &q1_mean, rx_angle_fft);
 354:../Algorithm/src/tracking.c **** 
 355:../Algorithm/src/tracking.c **** 			compute_fft_spectrum(rx_angle_fft, DOPPLER_FFT_SIZE, rx_angle_fft_spectrum);
 356:../Algorithm/src/tracking.c **** 
 357:../Algorithm/src/tracking.c **** 			arm_max_f32(rx_angle_fft_spectrum, (uint32_t)DOPPLER_FFT_SIZE, &max_value, &idx);
 358:../Algorithm/src/tracking.c **** 
 359:../Algorithm/src/tracking.c **** 			if (idx != 0)
 360:../Algorithm/src/tracking.c **** 			{
 361:../Algorithm/src/tracking.c **** 				i1_mean = rx_angle_fft[2*idx + 0];
 362:../Algorithm/src/tracking.c **** 				q1_mean = rx_angle_fft[2*idx + 1];
 363:../Algorithm/src/tracking.c **** 			}
 364:../Algorithm/src/tracking.c **** 
 365:../Algorithm/src/tracking.c **** 			//---------------------------------------- Rx2 ------------------------------------------
 366:../Algorithm/src/tracking.c **** 
 367:../Algorithm/src/tracking.c **** 			compute_fft_signal(track_ptr->rx2_angle_arg_re, track_ptr->rx2_angle_arg_im, num_of_chirps, DOPP
 368:../Algorithm/src/tracking.c **** 					FFT_INPUT_COMPLEX, FFT_SLOW_TIME, &i2_mean, &q2_mean, rx_angle_fft);
 369:../Algorithm/src/tracking.c **** 
 370:../Algorithm/src/tracking.c **** 			compute_fft_spectrum(rx_angle_fft, DOPPLER_FFT_SIZE, rx_angle_fft_spectrum);
 371:../Algorithm/src/tracking.c **** 
 372:../Algorithm/src/tracking.c **** 			arm_max_f32(rx_angle_fft_spectrum, (uint32_t)DOPPLER_FFT_SIZE, &max_value, &idx);
 373:../Algorithm/src/tracking.c **** 
 374:../Algorithm/src/tracking.c **** 			if (idx != 0)
 375:../Algorithm/src/tracking.c **** 			{
 376:../Algorithm/src/tracking.c **** 				i2_mean = rx_angle_fft[2*idx + 0];
 377:../Algorithm/src/tracking.c **** 				q2_mean = rx_angle_fft[2*idx + 1];
 378:../Algorithm/src/tracking.c **** 			}
 379:../Algorithm/src/tracking.c **** 
 380:../Algorithm/src/tracking.c **** 			target_angle_data T;
 381:../Algorithm/src/tracking.c **** 
 382:../Algorithm/src/tracking.c **** 			T = compute_angle(i1_mean, q1_mean, i2_mean, q2_mean,track_ptr->d_phi, angle_offset_deg, wave_le
 383:../Algorithm/src/tracking.c **** 
 384:../Algorithm/src/tracking.c **** 			track_ptr->angle = T.target_angle;
 385:../Algorithm/src/tracking.c **** 			track_ptr->d_phi = T.d_phi;
 386:../Algorithm/src/tracking.c **** 
 387:../Algorithm/src/tracking.c **** 			track_ptr->angle = median_filtering(&median_angle_arr[track_id], track_ptr->angle);
 388:../Algorithm/src/tracking.c **** 		}
 389:../Algorithm/src/tracking.c **** 	}
 390:../Algorithm/src/tracking.c **** }
 391:../Algorithm/src/tracking.c **** 
 392:../Algorithm/src/tracking.c **** //===========================================================================
 393:../Algorithm/src/tracking.c **** 
 394:../Algorithm/src/tracking.c **** static uint32_t assign_track(tracking_list_t *p_tracks, Measurement_elem_t* target_measurement, uin
 395:../Algorithm/src/tracking.c **** {
 396:../Algorithm/src/tracking.c **** 
 397:../Algorithm/src/tracking.c **** 	uint32_t retValue = 0;
 398:../Algorithm/src/tracking.c **** 
 399:../Algorithm/src/tracking.c **** 	target_angle_data T;
 400:../Algorithm/src/tracking.c **** 	T = compute_angle(target_measurement->rx1_angle_arg_re, target_measurement->rx1_angle_arg_im,
 401:../Algorithm/src/tracking.c **** 			target_measurement->rx2_angle_arg_re, target_measurement->rx2_angle_arg_im, IGNORE_NAN, angle_of
 402:../Algorithm/src/tracking.c **** 
 403:../Algorithm/src/tracking.c **** 	if( fabs(T.target_angle) < min_angle)
 404:../Algorithm/src/tracking.c **** 	{
 405:../Algorithm/src/tracking.c **** 
 406:../Algorithm/src/tracking.c **** 		Tracking_Params_t *p_track = &p_tracks->elems[id];
 407:../Algorithm/src/tracking.c **** 
 408:../Algorithm/src/tracking.c **** 		p_track->track_id = id;
 409:../Algorithm/src/tracking.c **** 		p_track->is_alived = 1;
 410:../Algorithm/src/tracking.c **** 
 411:../Algorithm/src/tracking.c **** 		p_track->measurement_counter = 1;
 412:../Algorithm/src/tracking.c **** 
 413:../Algorithm/src/tracking.c **** 		p_track->range_change_flag = 1;
 414:../Algorithm/src/tracking.c **** 		p_track->speed_count = 1;
 415:../Algorithm/src/tracking.c **** 
 416:../Algorithm/src/tracking.c **** 		p_track->strength = target_measurement->strength;
 417:../Algorithm/src/tracking.c **** 		p_track->range    = target_measurement->range;
 418:../Algorithm/src/tracking.c **** 		p_track->speed    = target_measurement->speed;
 419:../Algorithm/src/tracking.c **** 
 420:../Algorithm/src/tracking.c **** 		p_track->rx1_angle_arg_re[0] = target_measurement->rx1_angle_arg_re;
 421:../Algorithm/src/tracking.c **** 		p_track->rx1_angle_arg_im[0] = target_measurement->rx1_angle_arg_im;
 422:../Algorithm/src/tracking.c **** 		p_track->rx2_angle_arg_re[0] = target_measurement->rx2_angle_arg_re;
 423:../Algorithm/src/tracking.c **** 		p_track->rx2_angle_arg_im[0] = target_measurement->rx2_angle_arg_im;
 424:../Algorithm/src/tracking.c **** 
 425:../Algorithm/src/tracking.c **** 		p_track->angle  = T.target_angle;
 426:../Algorithm/src/tracking.c **** 		p_track->d_phi  = T.d_phi;
 427:../Algorithm/src/tracking.c **** 
 428:../Algorithm/src/tracking.c **** 		// calculate the medium filter for the track angle
 429:../Algorithm/src/tracking.c **** 		median_angle_arr[id].is_full = 0;
 430:../Algorithm/src/tracking.c **** 		median_filtering(&median_angle_arr[id], p_track->angle);
 431:../Algorithm/src/tracking.c **** 
 432:../Algorithm/src/tracking.c **** 		target_measurement->is_associated = 1;
 433:../Algorithm/src/tracking.c **** 
 434:../Algorithm/src/tracking.c **** 		// Inc the number of valid tracks:
 435:../Algorithm/src/tracking.c **** 		p_tracks->num_of_tracks += 1;
 436:../Algorithm/src/tracking.c **** 		retValue = 1;
 437:../Algorithm/src/tracking.c **** 	}
 438:../Algorithm/src/tracking.c **** 	else
 439:../Algorithm/src/tracking.c **** 	{
 440:../Algorithm/src/tracking.c **** 		clear_track_elem(&p_tracks->elems[id]);
 441:../Algorithm/src/tracking.c **** 		retValue = 0;
 442:../Algorithm/src/tracking.c **** 	}
 443:../Algorithm/src/tracking.c **** 
 444:../Algorithm/src/tracking.c **** 	return retValue;
 445:../Algorithm/src/tracking.c **** }
 446:../Algorithm/src/tracking.c **** 
 447:../Algorithm/src/tracking.c **** //===========================================================================
 448:../Algorithm/src/tracking.c **** 
 449:../Algorithm/src/tracking.c **** static uint8_t get_next_free_trackID(tracking_list_t *p_tracks )
 450:../Algorithm/src/tracking.c **** {
 451:../Algorithm/src/tracking.c **** 	uint8_t i = 0;
 452:../Algorithm/src/tracking.c **** 
 453:../Algorithm/src/tracking.c **** 	while(i < p_tracks->max_num_of_tracks)
 454:../Algorithm/src/tracking.c **** 	{
 455:../Algorithm/src/tracking.c **** 		if(p_tracks->elems[i].is_alived == 0)
 456:../Algorithm/src/tracking.c **** 		{
 457:../Algorithm/src/tracking.c **** 			break;
 458:../Algorithm/src/tracking.c **** 		}
 459:../Algorithm/src/tracking.c **** 		i++;
 460:../Algorithm/src/tracking.c **** 	}
 461:../Algorithm/src/tracking.c **** 	return i;
 462:../Algorithm/src/tracking.c **** }
 463:../Algorithm/src/tracking.c **** 
 464:../Algorithm/src/tracking.c **** //===========================================================================
 465:../Algorithm/src/tracking.c **** 
 466:../Algorithm/src/tracking.c **** static int compare_float(const void *a, const void *b)
 467:../Algorithm/src/tracking.c **** {
  27              	 .loc 1 467 0
  28              	 .cfi_startproc
  29              	 
  30              	 
  31              	 
  32              	.LVL0:
 468:../Algorithm/src/tracking.c **** 	int retval = 0;
 469:../Algorithm/src/tracking.c **** 
 470:../Algorithm/src/tracking.c **** 	float a_f = *(float*)a;
  33              	 .loc 1 470 0
  34 0000 90ED007A 	 flds s14,[r0]
  35              	.LVL1:
 471:../Algorithm/src/tracking.c **** 	float b_f = *(float*)b;
  36              	 .loc 1 471 0
  37 0004 D1ED007A 	 flds s15,[r1]
  38              	.LVL2:
 472:../Algorithm/src/tracking.c **** 
 473:../Algorithm/src/tracking.c **** 	if (a_f > b_f)
  39              	 .loc 1 473 0
  40 0008 B4EEE77A 	 fcmpes s14,s15
  41 000c F1EE10FA 	 fmstat
  42 0010 04DC     	 bgt .L3
 474:../Algorithm/src/tracking.c **** 	{
 475:../Algorithm/src/tracking.c **** 		retval = 1;
 476:../Algorithm/src/tracking.c **** 	}
 477:../Algorithm/src/tracking.c **** 	else if (a_f < b_f)
  43              	 .loc 1 477 0
  44 0012 4CBF     	 ite mi
  45 0014 4FF0FF30 	 movmi r0,#-1
  46              	.LVL3:
  47 0018 0020     	 movpl r0,#0
  48 001a 7047     	 bx lr
  49              	.LVL4:
  50              	.L3:
 475:../Algorithm/src/tracking.c **** 	}
  51              	 .loc 1 475 0
  52 001c 0120     	 movs r0,#1
  53              	.LVL5:
 478:../Algorithm/src/tracking.c **** 	{
 479:../Algorithm/src/tracking.c **** 		retval = -1;
 480:../Algorithm/src/tracking.c **** 	}
 481:../Algorithm/src/tracking.c **** 
 482:../Algorithm/src/tracking.c **** 	return retval;
 483:../Algorithm/src/tracking.c **** }
  54              	 .loc 1 483 0
  55 001e 7047     	 bx lr
  56              	 .cfi_endproc
  57              	.LFE475:
  59              	 .global __aeabi_d2f
  60              	 .section .text.assign_track,"ax",%progbits
  61              	 .align 2
  62              	 .thumb
  63              	 .thumb_func
  65              	assign_track:
  66              	.LFB473:
 395:../Algorithm/src/tracking.c **** 
  67              	 .loc 1 395 0
  68              	 .cfi_startproc
  69              	 
  70              	 
  71              	.LVL6:
  72 0000 2DE9F043 	 push {r4,r5,r6,r7,r8,r9,lr}
  73              	.LCFI0:
  74              	 .cfi_def_cfa_offset 28
  75              	 .cfi_offset 4,-28
  76              	 .cfi_offset 5,-24
  77              	 .cfi_offset 6,-20
  78              	 .cfi_offset 7,-16
  79              	 .cfi_offset 8,-12
  80              	 .cfi_offset 9,-8
  81              	 .cfi_offset 14,-4
  82 0004 2DED028B 	 fstmfdd sp!,{d8}
  83              	.LCFI1:
  84              	 .cfi_def_cfa_offset 36
  85              	 .cfi_offset 80,-36
  86              	 .cfi_offset 81,-32
  87 0008 0D46     	 mov r5,r1
  88 000a 8BB0     	 sub sp,sp,#44
  89              	.LCFI2:
  90              	 .cfi_def_cfa_offset 80
 400:../Algorithm/src/tracking.c **** 			target_measurement->rx2_angle_arg_re, target_measurement->rx2_angle_arg_im, IGNORE_NAN, angle_of
  91              	 .loc 1 400 0
  92 000c D5F814C0 	 ldr ip,[r5,#20]
  93 0010 D5F818E0 	 ldr lr,[r5,#24]
  94 0014 DFF81891 	 ldr r9,.L18+4
  95 0018 EF69     	 ldr r7,[r5,#28]
  96 001a 0969     	 ldr r1,[r1,#16]
  97              	.LVL7:
  98 001c 8DED050A 	 fsts s0,[sp,#20]
  99 0020 1BB2     	 sxth r3,r3
 100 0022 4FF00008 	 mov r8,#0
 101 0026 0493     	 str r3,[sp,#16]
 395:../Algorithm/src/tracking.c **** 
 102              	 .loc 1 395 0
 103 0028 0646     	 mov r6,r0
 104 002a 1446     	 mov r4,r2
 400:../Algorithm/src/tracking.c **** 			target_measurement->rx2_angle_arg_re, target_measurement->rx2_angle_arg_im, IGNORE_NAN, angle_of
 105              	 .loc 1 400 0
 106 002c 7346     	 mov r3,lr
 107              	.LVL8:
 108 002e 6246     	 mov r2,ip
 109              	.LVL9:
 110 0030 0097     	 str r7,[sp]
 111 0032 CDE90289 	 strd r8,[sp,#8]
 112 0036 06A8     	 add r0,sp,#24
 113              	.LVL10:
 395:../Algorithm/src/tracking.c **** 
 114              	 .loc 1 395 0
 115 0038 B0EE608A 	 fcpys s16,s1
 400:../Algorithm/src/tracking.c **** 			target_measurement->rx2_angle_arg_re, target_measurement->rx2_angle_arg_im, IGNORE_NAN, angle_of
 116              	 .loc 1 400 0
 117 003c FFF7FEFF 	 bl compute_angle
 118              	.LVL11:
 119 0040 DDED087A 	 flds s15,[sp,#32]
 120              	.LVL12:
 403:../Algorithm/src/tracking.c **** 	{
 121              	 .loc 1 403 0
 122 0044 B0EEE77A 	 fabss s14,s15
 123 0048 B4EEC87A 	 fcmpes s14,s16
 124 004c F1EE10FA 	 fmstat
 125 0050 16D4     	 bmi .L17
 126              	.LVL13:
 127              	.LBB34:
 128              	.LBB35:
 229:../Algorithm/src/tracking.c **** 	track_ptr->d_phi = IGNORE_NAN;
 129              	 .loc 1 229 0
 130 0052 04EBC400 	 add r0,r4,r4,lsl#3
 131 0056 06EB4010 	 add r0,r6,r0,lsl#5
 132 005a 0021     	 movs r1,#0
 133 005c 4FF49072 	 mov r2,#288
 134 0060 0830     	 adds r0,r0,#8
 230:../Algorithm/src/tracking.c **** }
 135              	 .loc 1 230 0
 136 0062 0134     	 adds r4,r4,#1
 137              	.LVL14:
 229:../Algorithm/src/tracking.c **** 	track_ptr->d_phi = IGNORE_NAN;
 138              	 .loc 1 229 0
 139 0064 FFF7FEFF 	 bl memset
 140              	.LVL15:
 230:../Algorithm/src/tracking.c **** }
 141              	 .loc 1 230 0
 142 0068 04EBC404 	 add r4,r4,r4,lsl#3
 143              	.LVL16:
 144 006c 2F4B     	 ldr r3,.L18
 145 006e 06EB4414 	 add r4,r6,r4,lsl#5
 146              	.LBE35:
 147              	.LBE34:
 441:../Algorithm/src/tracking.c **** 	}
 148              	 .loc 1 441 0
 149 0072 0020     	 movs r0,#0
 150              	.LBB37:
 151              	.LBB36:
 230:../Algorithm/src/tracking.c **** }
 152              	 .loc 1 230 0
 153 0074 6360     	 str r3,[r4,#4]
 154              	.LVL17:
 155              	.LBE36:
 156              	.LBE37:
 445:../Algorithm/src/tracking.c **** 
 157              	 .loc 1 445 0
 158 0076 0BB0     	 add sp,sp,#44
 159              	.LCFI3:
 160              	 .cfi_remember_state
 161              	 .cfi_def_cfa_offset 36
 162              	 
 163 0078 BDEC028B 	 fldmfdd sp!,{d8}
 164              	.LCFI4:
 165              	 .cfi_restore 80
 166              	 .cfi_restore 81
 167              	 .cfi_def_cfa_offset 28
 168              	.LVL18:
 169 007c BDE8F083 	 pop {r4,r5,r6,r7,r8,r9,pc}
 170              	.LVL19:
 171              	.L17:
 172              	.LCFI5:
 173              	 .cfi_restore_state
 174              	.LBB38:
 408:../Algorithm/src/tracking.c **** 		p_track->is_alived = 1;
 175              	 .loc 1 408 0
 176 0080 04EBC407 	 add r7,r4,r4,lsl#3
 177 0084 06EB4717 	 add r7,r6,r7,lsl#5
 409:../Algorithm/src/tracking.c **** 
 178              	 .loc 1 409 0
 179 0088 0123     	 movs r3,#1
 408:../Algorithm/src/tracking.c **** 		p_track->is_alived = 1;
 180              	 .loc 1 408 0
 181 008a 3C72     	 strb r4,[r7,#8]
 409:../Algorithm/src/tracking.c **** 
 182              	 .loc 1 409 0
 183 008c 7B72     	 strb r3,[r7,#9]
 411:../Algorithm/src/tracking.c **** 
 184              	 .loc 1 411 0
 185 008e 3B61     	 str r3,[r7,#16]
 413:../Algorithm/src/tracking.c **** 		p_track->speed_count = 1;
 186              	 .loc 1 413 0
 187 0090 BB81     	 strh r3,[r7,#12]
 414:../Algorithm/src/tracking.c **** 
 188              	 .loc 1 414 0
 189 0092 7B81     	 strh r3,[r7,#10]
 416:../Algorithm/src/tracking.c **** 		p_track->range    = target_measurement->range;
 190              	 .loc 1 416 0
 191 0094 6B68     	 ldr r3,[r5,#4]
 192 0096 7B61     	 str r3,[r7,#20]
 417:../Algorithm/src/tracking.c **** 		p_track->speed    = target_measurement->speed;
 193              	 .loc 1 417 0
 194 0098 AB68     	 ldr r3,[r5,#8]
 195 009a BB61     	 str r3,[r7,#24]
 418:../Algorithm/src/tracking.c **** 
 196              	 .loc 1 418 0
 197 009c EB68     	 ldr r3,[r5,#12]
 198 009e FB61     	 str r3,[r7,#28]
 420:../Algorithm/src/tracking.c **** 		p_track->rx1_angle_arg_im[0] = target_measurement->rx1_angle_arg_im;
 199              	 .loc 1 420 0
 200 00a0 2B69     	 ldr r3,[r5,#16]
 201 00a2 7B62     	 str r3,[r7,#36]
 421:../Algorithm/src/tracking.c **** 		p_track->rx2_angle_arg_re[0] = target_measurement->rx2_angle_arg_re;
 202              	 .loc 1 421 0
 203 00a4 6B69     	 ldr r3,[r5,#20]
 204 00a6 7B66     	 str r3,[r7,#100]
 422:../Algorithm/src/tracking.c **** 		p_track->rx2_angle_arg_im[0] = target_measurement->rx2_angle_arg_im;
 205              	 .loc 1 422 0
 206 00a8 AB69     	 ldr r3,[r5,#24]
 207 00aa C7F8A430 	 str r3,[r7,#164]
 423:../Algorithm/src/tracking.c **** 
 208              	 .loc 1 423 0
 209 00ae EA69     	 ldr r2,[r5,#28]
 210 00b0 C7F8E420 	 str r2,[r7,#228]
 426:../Algorithm/src/tracking.c **** 
 211              	 .loc 1 426 0
 212 00b4 631C     	 adds r3,r4,#1
 213 00b6 03EBC303 	 add r3,r3,r3,lsl#3
 214 00ba DDE90601 	 ldrd r0,[sp,#24]
 425:../Algorithm/src/tracking.c **** 		p_track->d_phi  = T.d_phi;
 215              	 .loc 1 425 0
 216 00be C7ED087A 	 fsts s15,[r7,#32]
 426:../Algorithm/src/tracking.c **** 
 217              	 .loc 1 426 0
 218 00c2 06EB4318 	 add r8,r6,r3,lsl#5
 219 00c6 FFF7FEFF 	 bl __aeabi_d2f
 220              	.LVL20:
 429:../Algorithm/src/tracking.c **** 		median_filtering(&median_angle_arr[id], p_track->angle);
 221              	 .loc 1 429 0
 222 00ca 4FEA041C 	 lsl ip,r4,#4
 223 00ce DFF864E0 	 ldr lr,.L18+8
 426:../Algorithm/src/tracking.c **** 
 224              	 .loc 1 426 0
 225 00d2 C8F80400 	 str r0,[r8,#4]
 429:../Algorithm/src/tracking.c **** 		median_filtering(&median_angle_arr[id], p_track->angle);
 226              	 .loc 1 429 0
 227 00d6 C4EB0C03 	 rsb r3,r4,ip
 228 00da 9B00     	 lsls r3,r3,#2
 229 00dc 0EEB0302 	 add r2,lr,r3
 230 00e0 0020     	 movs r0,#0
 231              	.LBB39:
 232              	.LBB40:
 484:../Algorithm/src/tracking.c **** 
 485:../Algorithm/src/tracking.c **** //===========================================================================
 486:../Algorithm/src/tracking.c **** 
 487:../Algorithm/src/tracking.c **** float median_filtering(Median_Filtering_t *track_median_arr, float new_input)
 488:../Algorithm/src/tracking.c **** {
 489:../Algorithm/src/tracking.c **** 
 490:../Algorithm/src/tracking.c **** 	if( track_median_arr->median_filter_len > MAX_MEDIAN_FILTER_LEN)
 233              	 .loc 1 490 0
 234 00e2 5168     	 ldr r1,[r2,#4]
 235              	.LBE40:
 236              	.LBE39:
 429:../Algorithm/src/tracking.c **** 		median_filtering(&median_angle_arr[id], p_track->angle);
 237              	 .loc 1 429 0
 238 00e4 0EF80300 	 strb r0,[lr,r3]
 239              	.LBB48:
 240              	.LBB43:
 241              	 .loc 1 490 0
 242 00e8 0D29     	 cmp r1,#13
 243              	.LBE43:
 244              	.LBE48:
 430:../Algorithm/src/tracking.c **** 
 245              	 .loc 1 430 0
 246 00ea 386A     	 ldr r0,[r7,#32]
 247              	.LVL21:
 248              	.LBB49:
 249              	.LBB44:
 250              	 .loc 1 490 0
 251 00ec 1AD9     	 bls .L8
 491:../Algorithm/src/tracking.c **** 		track_median_arr->median_filter_len = MAX_MEDIAN_FILTER_LEN;
 252              	 .loc 1 491 0
 253 00ee 0D21     	 movs r1,#13
 254 00f0 5160     	 str r1,[r2,#4]
 255              	.LVL22:
 256              	.L9:
 257 00f2 3C22     	 movs r2,#60
 258 00f4 02FB04E2 	 mla r2,r2,r4,lr
 259 00f8 0832     	 adds r2,r2,#8
 260 00fa 0023     	 movs r3,#0
 261              	.LVL23:
 262              	.L11:
 263              	.LBB41:
 492:../Algorithm/src/tracking.c **** 
 493:../Algorithm/src/tracking.c **** 	if (track_median_arr->is_full == 0)
 494:../Algorithm/src/tracking.c **** 	{
 495:../Algorithm/src/tracking.c **** 		for (uint32_t j = 0; j < track_median_arr->median_filter_len; j++)
 264              	 .loc 1 495 0
 265 00fc 0133     	 adds r3,r3,#1
 266              	.LVL24:
 267 00fe 8B42     	 cmp r3,r1
 496:../Algorithm/src/tracking.c **** 		{
 497:../Algorithm/src/tracking.c **** 			track_median_arr->buffer[j] = new_input;
 268              	 .loc 1 497 0
 269 0100 42F8040B 	 str r0,[r2],#4
 495:../Algorithm/src/tracking.c **** 		{
 270              	 .loc 1 495 0
 271 0104 FAD3     	 bcc .L11
 272              	.LVL25:
 273              	.L12:
 274              	.LBE41:
 275              	.LBE44:
 276              	.LBE49:
 435:../Algorithm/src/tracking.c **** 		retValue = 1;
 277              	 .loc 1 435 0
 278 0106 3368     	 ldr r3,[r6]
 279              	.LBB50:
 280              	.LBB45:
 498:../Algorithm/src/tracking.c **** 		}
 499:../Algorithm/src/tracking.c **** 
 500:../Algorithm/src/tracking.c **** 		track_median_arr->is_full = 1;
 281              	 .loc 1 500 0
 282 0108 0122     	 movs r2,#1
 283 010a C4EB0C04 	 rsb r4,r4,ip
 284              	.LVL26:
 285              	.LBE45:
 286              	.LBE50:
 435:../Algorithm/src/tracking.c **** 		retValue = 1;
 287              	 .loc 1 435 0
 288 010e 1344     	 add r3,r3,r2
 436:../Algorithm/src/tracking.c **** 	}
 289              	 .loc 1 436 0
 290 0110 1046     	 mov r0,r2
 291              	.LVL27:
 292              	.LBB51:
 293              	.LBB46:
 294              	 .loc 1 500 0
 295 0112 0EF82420 	 strb r2,[lr,r4,lsl#2]
 296              	.LBE46:
 297              	.LBE51:
 432:../Algorithm/src/tracking.c **** 
 298              	 .loc 1 432 0
 299 0116 2A80     	 strh r2,[r5]
 435:../Algorithm/src/tracking.c **** 		retValue = 1;
 300              	 .loc 1 435 0
 301 0118 3360     	 str r3,[r6]
 302              	.LVL28:
 303              	.LBE38:
 445:../Algorithm/src/tracking.c **** 
 304              	 .loc 1 445 0
 305 011a 0BB0     	 add sp,sp,#44
 306              	.LCFI6:
 307              	 .cfi_remember_state
 308              	 .cfi_def_cfa_offset 36
 309              	 
 310 011c BDEC028B 	 fldmfdd sp!,{d8}
 311              	.LCFI7:
 312              	 .cfi_restore 80
 313              	 .cfi_restore 81
 314              	 .cfi_def_cfa_offset 28
 315              	.LVL29:
 316 0120 BDE8F083 	 pop {r4,r5,r6,r7,r8,r9,pc}
 317              	.LVL30:
 318              	.L8:
 319              	.LCFI8:
 320              	 .cfi_restore_state
 321              	.LBB53:
 322              	.LBB52:
 323              	.LBB47:
 324              	.LBB42:
 495:../Algorithm/src/tracking.c **** 		{
 325              	 .loc 1 495 0
 326 0124 0029     	 cmp r1,#0
 327 0126 EED0     	 beq .L12
 328 0128 E3E7     	 b .L9
 329              	.L19:
 330 012a 00BF     	 .align 2
 331              	.L18:
 332 012c 00C00A44 	 .word 1141555200
 333 0130 00588140 	 .word 1082218496
 334 0134 00000000 	 .word .LANCHOR0
 335              	.LBE42:
 336              	.LBE47:
 337              	.LBE52:
 338              	.LBE53:
 339              	 .cfi_endproc
 340              	.LFE473:
 342              	 .global __aeabi_f2d
 343              	 .global __aeabi_dcmple
 344              	 .global __aeabi_dcmpgt
 345              	 .section .text.data_association,"ax",%progbits
 346              	 .align 2
 347              	 .global data_association
 348              	 .thumb
 349              	 .thumb_func
 351              	data_association:
 352              	.LFB470:
  79:../Algorithm/src/tracking.c **** 
 353              	 .loc 1 79 0
 354              	 .cfi_startproc
 355              	 
 356              	 
 357              	.LVL31:
 358 0000 2DE9F04F 	 push {r4,r5,r6,r7,r8,r9,r10,fp,lr}
 359              	.LCFI9:
 360              	 .cfi_def_cfa_offset 36
 361              	 .cfi_offset 4,-36
 362              	 .cfi_offset 5,-32
 363              	 .cfi_offset 6,-28
 364              	 .cfi_offset 7,-24
 365              	 .cfi_offset 8,-20
 366              	 .cfi_offset 9,-16
 367              	 .cfi_offset 10,-12
 368              	 .cfi_offset 11,-8
 369              	 .cfi_offset 14,-4
 370 0004 2DED0C8B 	 fstmfdd sp!,{d8,d9,d10,d11,d12,d13}
 371              	.LCFI10:
 372              	 .cfi_def_cfa_offset 84
 373              	 .cfi_offset 80,-84
 374              	 .cfi_offset 81,-80
 375              	 .cfi_offset 82,-76
 376              	 .cfi_offset 83,-72
 377              	 .cfi_offset 84,-68
 378              	 .cfi_offset 85,-64
 379              	 .cfi_offset 86,-60
 380              	 .cfi_offset 87,-56
 381              	 .cfi_offset 88,-52
 382              	 .cfi_offset 89,-48
 383              	 .cfi_offset 90,-44
 384              	 .cfi_offset 91,-40
  87:../Algorithm/src/tracking.c **** 	{
 385              	 .loc 1 87 0
 386 0008 0568     	 ldr r5,[r0]
  79:../Algorithm/src/tracking.c **** 
 387              	 .loc 1 79 0
 388 000a A7B0     	 sub sp,sp,#156
 389              	.LCFI11:
 390              	 .cfi_def_cfa_offset 240
  79:../Algorithm/src/tracking.c **** 
 391              	 .loc 1 79 0
 392 000c 0446     	 mov r4,r0
 393 000e 8B46     	 mov fp,r1
 394 0010 9246     	 mov r10,r2
 395 0012 0793     	 str r3,[sp,#28]
  87:../Algorithm/src/tracking.c **** 	{
 396              	 .loc 1 87 0
 397 0014 15B9     	 cbnz r5,.L21
  87:../Algorithm/src/tracking.c **** 	{
 398              	 .loc 1 87 0 is_stmt 0 discriminator 1
 399 0016 002A     	 cmp r2,#0
 400 0018 40F0F282 	 bne .L22
 401              	.L21:
 402              	.LVL32:
 403              	.LBB98:
 404              	.LBB99:
 117:../Algorithm/src/tracking.c **** 		{
 405              	 .loc 1 117 0 is_stmt 1 discriminator 1
 406 001c 6768     	 ldr r7,[r4,#4]
 407 001e 002F     	 cmp r7,#0
 408 0020 00F0A382 	 beq .L20
 124:../Algorithm/src/tracking.c **** 
 409              	 .loc 1 124 0
 410 0024 544B     	 ldr r3,.L259+8
 411              	.LVL33:
 412 0026 3C9A     	 ldr r2,[sp,#240]
 413              	.LVL34:
 414 0028 9FED54AA 	 flds s20,.L259+12
 126:../Algorithm/src/tracking.c **** 
 415              	 .loc 1 126 0
 416 002c DFED548A 	 flds s17,.L259+16
 132:../Algorithm/src/tracking.c **** 			}
 417              	 .loc 1 132 0
 418 0030 DFED549A 	 flds s19,.L259+20
 419              	.LBB100:
 420              	.LBB101:
 280:../Algorithm/src/tracking.c **** 		{
 421              	 .loc 1 280 0
 422 0034 DFED54AA 	 flds s21,.L259+24
 423              	.LBE101:
 424              	.LBE100:
 124:../Algorithm/src/tracking.c **** 
 425              	 .loc 1 124 0
 426 0038 A3FB0223 	 umull r2,r3,r3,r2
 427 003c 9B09     	 lsrs r3,r3,#6
 428 003e 09EE103A 	 fmsr s18,r3
 429 0042 A046     	 mov r8,r4
 430 0044 4FF00009 	 mov r9,#0
 431 0048 5446     	 mov r4,r10
 432              	.LVL35:
 433              	.L92:
 119:../Algorithm/src/tracking.c **** 			{
 434              	 .loc 1 119 0
 435 004a 4FEAC905 	 lsl r5,r9,#3
 436 004e 05EB0903 	 add r3,r5,r9
 437 0052 08EB4313 	 add r3,r8,r3,lsl#5
 438 0056 5A7A     	 ldrb r2,[r3,#9]
 439 0058 002A     	 cmp r2,#0
 440 005a 00F00F82 	 beq .L33
 124:../Algorithm/src/tracking.c **** 
 441              	 .loc 1 124 0
 442 005e F8EEC97A 	 fsitos s15,s18
 443 0062 D3ED066A 	 flds s13,[r3,#24]
 444 0066 93ED077A 	 flds s14,[r3,#28]
 445 006a 67EE8A7A 	 fmuls s15,s15,s20
 446 006e B0EE666A 	 fcpys s12,s13
 447 0072 A7EE676A 	 vfms.f32 s12,s14,s15
 448 0076 B0EE467A 	 fcpys s14,s12
 449              	.LVL36:
 128:../Algorithm/src/tracking.c **** 
 450              	 .loc 1 128 0
 451 007a 36EE686A 	 fsubs s12,s12,s17
 452              	.LVL37:
 126:../Algorithm/src/tracking.c **** 
 453              	 .loc 1 126 0
 454 007e 37EE285A 	 fadds s10,s14,s17
 455              	.LVL38:
 132:../Algorithm/src/tracking.c **** 			}
 456              	 .loc 1 132 0
 457 0082 B5EE406A 	 fcmpzs s12
 458 0086 F1EE10FA 	 fmstat
 459 008a 48BF     	 it mi
 460 008c B0EE696A 	 fcpysmi s12,s19
 461              	.LVL39:
 462              	.LBB201:
 143:../Algorithm/src/tracking.c **** 			{
 463              	 .loc 1 143 0
 464 0090 002C     	 cmp r4,#0
 465 0092 00F07D82 	 beq .L36
 466 0096 DFED3D4A 	 flds s9,.L259+28
 467 009a 0022     	 movs r2,#0
 468 009c FF20     	 movs r0,#255
 469              	.LVL40:
 470              	.L41:
 145:../Algorithm/src/tracking.c **** 				{
 471              	 .loc 1 145 0
 472 009e 5301     	 lsls r3,r2,#5
 143:../Algorithm/src/tracking.c **** 			{
 473              	 .loc 1 143 0
 474 00a0 511C     	 adds r1,r2,#1
 145:../Algorithm/src/tracking.c **** 				{
 475              	 .loc 1 145 0
 476 00a2 3BF80360 	 ldrh r6,[fp,r3]
 477 00a6 5B44     	 add r3,r3,fp
 478 00a8 BEB9     	 cbnz r6,.L37
 147:../Algorithm/src/tracking.c **** 
 479              	 .loc 1 147 0
 480 00aa D3ED027A 	 flds s15,[r3,#8]
 481              	.LVL41:
 149:../Algorithm/src/tracking.c **** 					{
 482              	 .loc 1 149 0
 483 00ae B4EEE76A 	 fcmpes s12,s15
 484 00b2 F1EE10FA 	 fmstat
 485 00b6 10D8     	 bhi .L37
 486              	.LVL42:
 149:../Algorithm/src/tracking.c **** 					{
 487              	 .loc 1 149 0 is_stmt 0 discriminator 1
 488 00b8 B4EEE75A 	 fcmpes s10,s15
 489 00bc F1EE10FA 	 fmstat
 490 00c0 0BDB     	 blt .L37
 491              	.LVL43:
 151:../Algorithm/src/tracking.c **** 
 492              	 .loc 1 151 0 is_stmt 1
 493 00c2 77EEC75A 	 fsubs s11,s15,s14
 494 00c6 F0EEE55A 	 fabss s11,s11
 495              	.LVL44:
 153:../Algorithm/src/tracking.c **** 						{
 496              	 .loc 1 153 0
 497 00ca F4EEE45A 	 fcmpes s11,s9
 498 00ce F1EE10FA 	 fmstat
 155:../Algorithm/src/tracking.c **** 
 499              	 .loc 1 155 0
 500 00d2 44BF     	 itt mi
 501 00d4 F0EE674A 	 fcpysmi s9,s15
 157:../Algorithm/src/tracking.c **** 						}
 502              	 .loc 1 157 0
 503 00d8 D0B2     	 uxtbmi r0,r2
 504              	.LVL45:
 505              	.L37:
 143:../Algorithm/src/tracking.c **** 			{
 506              	 .loc 1 143 0 discriminator 2
 507 00da CAB2     	 uxtb r2,r1
 508              	.LVL46:
 509 00dc 9442     	 cmp r4,r2
 510 00de DED8     	 bhi .L41
 511              	.LBE201:
 163:../Algorithm/src/tracking.c **** 			{
 512              	 .loc 1 163 0
 513 00e0 40B2     	 sxtb r0,r0
 514 00e2 431C     	 adds r3,r0,#1
 515 00e4 00F05482 	 beq .L36
 171:../Algorithm/src/tracking.c **** 
 516              	 .loc 1 171 0
 517 00e8 05EB0903 	 add r3,r5,r9
 518 00ec 08EB4313 	 add r3,r8,r3,lsl#5
 175:../Algorithm/src/tracking.c **** 								cp_algo_settings->range_detection_threshold , cp_algo_settings->angle_offset_deg, num_of_ch
 519              	 .loc 1 175 0
 520 00f0 4201     	 lsls r2,r0,#5
 521              	.LVL47:
 522 00f2 079E     	 ldr r6,[sp,#28]
 171:../Algorithm/src/tracking.c **** 
 523              	 .loc 1 171 0
 524 00f4 D989     	 ldrh r1,[r3,#14]
 525              	.LVL48:
 175:../Algorithm/src/tracking.c **** 								cp_algo_settings->range_detection_threshold , cp_algo_settings->angle_offset_deg, num_of_ch
 526              	 .loc 1 175 0
 527 00f6 0892     	 str r2,[sp,#32]
 528 00f8 0BEB020A 	 add r10,fp,r2
 529              	.LBB202:
 530              	.LBB190:
 252:../Algorithm/src/tracking.c **** 	{
 531              	 .loc 1 252 0
 532 00fc DAED03BA 	 flds s23,[r10,#12]
 533              	.LBE190:
 534              	.LBE202:
 173:../Algorithm/src/tracking.c **** 
 535              	 .loc 1 173 0
 536 0100 1A69     	 ldr r2,[r3,#16]
 175:../Algorithm/src/tracking.c **** 								cp_algo_settings->range_detection_threshold , cp_algo_settings->angle_offset_deg, num_of_ch
 537              	 .loc 1 175 0
 538 0102 B6F828E0 	 ldrh lr,[r6,#40]
 539 0106 96ED0DBA 	 flds s22,[r6,#52]
 540 010a 079E     	 ldr r6,[sp,#28]
 541              	.LBB203:
 542              	.LBB191:
 240:../Algorithm/src/tracking.c **** 
 543              	 .loc 1 240 0
 544 010c 93ED06CA 	 flds s24,[r3,#24]
 545              	.LBE191:
 546              	.LBE203:
 175:../Algorithm/src/tracking.c **** 								cp_algo_settings->range_detection_threshold , cp_algo_settings->angle_offset_deg, num_of_ch
 547              	 .loc 1 175 0
 548 0110 D6ED11CA 	 flds s25,[r6,#68]
 549 0114 CDF824E0 	 str lr,[sp,#36]
 173:../Algorithm/src/tracking.c **** 
 550              	 .loc 1 173 0
 551 0118 0132     	 adds r2,r2,#1
 171:../Algorithm/src/tracking.c **** 
 552              	 .loc 1 171 0
 553 011a 4908     	 lsrs r1,r1,#1
 554              	.LBB204:
 555              	.LBB192:
 252:../Algorithm/src/tracking.c **** 	{
 556              	 .loc 1 252 0
 557 011c F0EEEBDA 	 fabss s27,s23
 558              	.LBE192:
 559              	.LBE204:
 171:../Algorithm/src/tracking.c **** 
 560              	 .loc 1 171 0
 561 0120 D981     	 strh r1,[r3,#14]
 173:../Algorithm/src/tracking.c **** 
 562              	 .loc 1 173 0
 563 0122 1A61     	 str r2,[r3,#16]
 564              	.LVL49:
 565              	.LBB205:
 566              	.LBB193:
 252:../Algorithm/src/tracking.c **** 	{
 567              	 .loc 1 252 0
 568 0124 1DEE900A 	 fmrs r0,s27
 569              	.LBE193:
 570              	.LBE205:
 175:../Algorithm/src/tracking.c **** 								cp_algo_settings->range_detection_threshold , cp_algo_settings->angle_offset_deg, num_of_ch
 571              	 .loc 1 175 0
 572 0128 B6EE00DA 	 fconsts s26,#96
 573 012c 27EE0D8A 	 fmuls s16,s14,s26
 574              	.LVL50:
 575              	.LBB206:
 576              	.LBB194:
 252:../Algorithm/src/tracking.c **** 	{
 577              	 .loc 1 252 0
 578 0130 FFF7FEFF 	 bl __aeabi_f2d
 579              	.LVL51:
 580 0134 0EA3     	 adr r3,.L259
 581 0136 D3E90023 	 ldrd r2,[r3]
 582              	.LBE194:
 583              	.LBE206:
 175:../Algorithm/src/tracking.c **** 								cp_algo_settings->range_detection_threshold , cp_algo_settings->angle_offset_deg, num_of_ch
 584              	 .loc 1 175 0
 585 013a B8EE4BBA 	 fuitos s22,s22
 586              	.LVL52:
 587              	.LBB207:
 588              	.LBB195:
 252:../Algorithm/src/tracking.c **** 	{
 589              	 .loc 1 252 0
 590 013e CDE90A01 	 strd r0,[sp,#40]
 591 0142 FFF7FEFF 	 bl __aeabi_dcmple
 592              	.LVL53:
 593 0146 0028     	 cmp r0,#0
 594 0148 40F03882 	 bne .L108
 256:../Algorithm/src/tracking.c **** 	{
 595              	 .loc 1 256 0
 596 014c DDE90A01 	 ldrd r0,[sp,#40]
 597 0150 07A3     	 adr r3,.L259
 598 0152 D3E90023 	 ldrd r2,[r3]
 599 0156 FFF7FEFF 	 bl __aeabi_dcmpgt
 600              	.LVL54:
 601 015a F8B1     	 cbz r0,.L44
 602 015c F4EECDDA 	 fcmpes s27,s26
 603 0160 F1EE10FA 	 fmstat
 604 0164 1AD5     	 bpl .L44
 258:../Algorithm/src/tracking.c **** 	}
 605              	 .loc 1 258 0
 606 0166 F0EE4D7A 	 fcpys s15,s26
 607 016a 33E0     	 b .L43
 608              	.L260:
 609 016c AFF30080 	 .align 3
 610              	.L259:
 611 0170 33333333 	 .word 858993459
 612 0174 3333D33F 	 .word 1070805811
 613 0178 D34D6210 	 .word 274877907
 614 017c CDCCCC3D 	 .word 1036831949
 615 0180 0000F042 	 .word 1123024896
 616 0184 00000000 	 .word 0
 617 0188 00002042 	 .word 1109393408
 618 018c 00401C46 	 .word 1176256512
 619 0190 00D7233C 	 .word 1008981760
 620 0194 A4707D3F 	 .word 1065185444
 621 0198 0000803D 	 .word 1031798784
 622              	.L44:
 260:../Algorithm/src/tracking.c **** 	{
 623              	 .loc 1 260 0
 624 019c F6EE007A 	 fconsts s15,#96
 625 01a0 F4EEE7DA 	 fcmpes s27,s15
 626 01a4 F1EE10FA 	 fmstat
 627 01a8 80F21682 	 bge .L250
 628              	.L46:
 264:../Algorithm/src/tracking.c **** 	{
 629              	 .loc 1 264 0
 630 01ac F7EE007A 	 fconsts s15,#112
 631 01b0 F4EEE7DA 	 fcmpes s27,s15
 632 01b4 1FED0ADA 	 flds s26,.L259+32
 633 01b8 1FED0A7A 	 flds s14,.L259+36
 634 01bc 5FED0A7A 	 flds s15,.L259+40
 635 01c0 F1EE10FA 	 fmstat
 636 01c4 F6EE0E6A 	 fconsts s13,#110
 637 01c8 B8BF     	 it lt
 638 01ca B0EE66DA 	 fcpyslt s26,s13
 639 01ce A8BF     	 it ge
 640 01d0 F0EE477A 	 fcpysge s15,s14
 641              	.L43:
 642              	.LVL55:
 276:../Algorithm/src/tracking.c **** 
 643              	 .loc 1 276 0
 644 01d4 DAED026A 	 flds s13,[r10,#8]
 645 01d8 B6EE007A 	 fconsts s14,#96
 646 01dc A6EE878A 	 vfma.f32 s16,s13,s14
 647              	.LVL56:
 275:../Algorithm/src/tracking.c **** 			alpha_range * (target_measurement->range * 0.5f + px_track_predict);
 648              	 .loc 1 275 0
 649 01e0 05EB0903 	 add r3,r5,r9
 650 01e4 08EB4313 	 add r3,r8,r3,lsl#5
 276:../Algorithm/src/tracking.c **** 
 651              	 .loc 1 276 0
 652 01e8 67EE887A 	 fmuls s15,s15,s16
 653              	.LVL57:
 278:../Algorithm/src/tracking.c **** 	{
 654              	 .loc 1 278 0
 655 01ec 9A89     	 ldrh r2,[r3,#12]
 275:../Algorithm/src/tracking.c **** 			alpha_range * (target_measurement->range * 0.5f + px_track_predict);
 656              	 .loc 1 275 0
 657 01ee ECEE0D7A 	 vfma.f32 s15,s24,s26
 658 01f2 C3ED067A 	 fsts s15,[r3,#24]
 278:../Algorithm/src/tracking.c **** 	{
 659              	 .loc 1 278 0
 660 01f6 6AB9     	 cbnz r2,.L48
 280:../Algorithm/src/tracking.c **** 		{
 661              	 .loc 1 280 0
 662 01f8 3CEE6A7A 	 fsubs s14,s24,s21
 663 01fc F4EEC77A 	 fcmpes s15,s14
 664 0200 F1EE10FA 	 fmstat
 665 0204 40F1DF81 	 bpl .L251
 666              	.LVL58:
 667              	.L49:
 282:../Algorithm/src/tracking.c **** 		}
 668              	 .loc 1 282 0
 669 0208 05EB0903 	 add r3,r5,r9
 670 020c 08EB4313 	 add r3,r8,r3,lsl#5
 671 0210 0122     	 movs r2,#1
 672 0212 9A81     	 strh r2,[r3,#12]
 673              	.L48:
 288:../Algorithm/src/tracking.c **** 
 674              	 .loc 1 288 0
 675 0214 05EB0903 	 add r3,r5,r9
 676 0218 08EB4313 	 add r3,r8,r3,lsl#5
 290:../Algorithm/src/tracking.c **** 	{
 677              	 .loc 1 290 0
 678 021c F5EE40BA 	 fcmpzs s23
 679 0220 F1EE10FA 	 fmstat
 288:../Algorithm/src/tracking.c **** 
 680              	 .loc 1 288 0
 681 0224 C3ED07BA 	 fsts s23,[r3,#28]
 682 0228 05EB0901 	 add r1,r5,r9
 292:../Algorithm/src/tracking.c **** 	}
 683              	 .loc 1 292 0
 684 022c 08BF     	 it eq
 685 022e 5B89     	 ldrheq r3,[r3,#10]
 686 0230 4FEA4111 	 lsl r1,r1,#5
 687 0234 08BF     	 it eq
 688 0236 0133     	 addeq r3,r3,#1
 689 0238 08EB0106 	 add r6,r8,r1
 690 023c 0CBF     	 ite eq
 691 023e 9BB2     	 uxtheq r3,r3
 296:../Algorithm/src/tracking.c **** 	}
 692              	 .loc 1 296 0
 693 0240 0023     	 movne r3,#0
 694 0242 7381     	 strh r3,[r6,#10]
 301:../Algorithm/src/tracking.c **** 
 695              	 .loc 1 301 0
 696 0244 DAED017A 	 flds s15,[r10,#4]
 303:../Algorithm/src/tracking.c **** 	{
 697              	 .loc 1 303 0
 698 0248 B4EEE7BA 	 fcmpes s22,s15
 699 024c F1EE10FA 	 fmstat
 301:../Algorithm/src/tracking.c **** 
 700              	 .loc 1 301 0
 701 0250 C6ED057A 	 fsts s15,[r6,#20]
 303:../Algorithm/src/tracking.c **** 	{
 702              	 .loc 1 303 0
 703 0254 40F10E81 	 bpl .L52
 305:../Algorithm/src/tracking.c **** 		{
 704              	 .loc 1 305 0
 705 0258 9BB2     	 uxth r3,r3
 706 025a 002B     	 cmp r3,#0
 707 025c 00F00783 	 beq .L252
 325:../Algorithm/src/tracking.c **** 		{
 708              	 .loc 1 325 0
 709 0260 3D9A     	 ldr r2,[sp,#244]
 710 0262 0132     	 adds r2,r2,#1
 711 0264 B3FBF2F0 	 udiv r0,r3,r2
 712 0268 02FB1033 	 mls r3,r2,r0,r3
 713 026c 0A93     	 str r3,[sp,#40]
 714 026e 002B     	 cmp r3,#0
 715 0270 40F04382 	 bne .L253
 716              	.LBB102:
 352:../Algorithm/src/tracking.c **** 					FFT_INPUT_COMPLEX, FFT_SLOW_TIME, &i1_mean, &q1_mean, rx_angle_fft);
 717              	 .loc 1 352 0
 718 0274 BDF8F470 	 ldrh r7,[sp,#244]
 719 0278 08EB0100 	 add r0,r8,r1
 720 027c 4FF07E56 	 mov r6,#1065353216
 721 0280 4FF0010C 	 mov ip,#1
 722 0284 0DF1380E 	 add lr,sp,#56
 723 0288 0146     	 mov r1,r0
 724 028a 0FAB     	 add r3,sp,#60
 725 028c 0096     	 str r6,[sp]
 726 028e 4FF0020A 	 mov r10,#2
 727              	.LVL59:
 728 0292 B84E     	 ldr r6,.L261
 729 0294 CDF808C0 	 str ip,[sp,#8]
 730 0298 CDF80CE0 	 str lr,[sp,#12]
 731 029c 3A46     	 mov r2,r7
 732 029e 2430     	 adds r0,r0,#36
 733 02a0 6431     	 adds r1,r1,#100
 734 02a2 0493     	 str r3,[sp,#16]
 735 02a4 CDF804A0 	 str r10,[sp,#4]
 736 02a8 4023     	 movs r3,#64
 737 02aa 0596     	 str r6,[sp,#20]
 738 02ac FFF7FEFF 	 bl compute_fft_signal
 739              	.LVL60:
 355:../Algorithm/src/tracking.c **** 
 740              	 .loc 1 355 0
 741 02b0 3046     	 mov r0,r6
 742 02b2 4021     	 movs r1,#64
 743 02b4 B04A     	 ldr r2,.L261+4
 744 02b6 FFF7FEFF 	 bl compute_fft_spectrum
 745              	.LVL61:
 357:../Algorithm/src/tracking.c **** 
 746              	 .loc 1 357 0
 747 02ba 13AB     	 add r3,sp,#76
 748 02bc 12AA     	 add r2,sp,#72
 749 02be AE48     	 ldr r0,.L261+4
 750 02c0 4021     	 movs r1,#64
 751 02c2 FFF7FEFF 	 bl arm_max_f32
 752              	.LVL62:
 359:../Algorithm/src/tracking.c **** 			{
 753              	 .loc 1 359 0
 754 02c6 139B     	 ldr r3,[sp,#76]
 755 02c8 33B1     	 cbz r3,.L78
 361:../Algorithm/src/tracking.c **** 				q1_mean = rx_angle_fft[2*idx + 1];
 756              	 .loc 1 361 0
 757 02ca 06EBC302 	 add r2,r6,r3,lsl#3
 362:../Algorithm/src/tracking.c **** 			}
 758              	 .loc 1 362 0
 759 02ce 1346     	 mov r3,r2
 361:../Algorithm/src/tracking.c **** 				q1_mean = rx_angle_fft[2*idx + 1];
 760              	 .loc 1 361 0
 761 02d0 1268     	 ldr r2,[r2]
 362:../Algorithm/src/tracking.c **** 			}
 762              	 .loc 1 362 0
 763 02d2 5B68     	 ldr r3,[r3,#4]
 361:../Algorithm/src/tracking.c **** 				q1_mean = rx_angle_fft[2*idx + 1];
 764              	 .loc 1 361 0
 765 02d4 0E92     	 str r2,[sp,#56]
 362:../Algorithm/src/tracking.c **** 			}
 766              	 .loc 1 362 0
 767 02d6 0F93     	 str r3,[sp,#60]
 768              	.L78:
 367:../Algorithm/src/tracking.c **** 					FFT_INPUT_COMPLEX, FFT_SLOW_TIME, &i2_mean, &q2_mean, rx_angle_fft);
 769              	 .loc 1 367 0
 770 02d8 05EB0901 	 add r1,r5,r9
 771 02dc 4901     	 lsls r1,r1,#5
 772 02de 08EB0100 	 add r0,r8,r1
 773 02e2 0596     	 str r6,[sp,#20]
 774 02e4 10AE     	 add r6,sp,#64
 775 02e6 4FF07E5C 	 mov ip,#1065353216
 776 02ea 4FF0020E 	 mov lr,#2
 777 02ee 3A46     	 mov r2,r7
 778 02f0 0146     	 mov r1,r0
 779 02f2 0123     	 movs r3,#1
 780 02f4 0396     	 str r6,[sp,#12]
 781 02f6 11AF     	 add r7,sp,#68
 782 02f8 9E4E     	 ldr r6,.L261
 783 02fa CDF800C0 	 str ip,[sp]
 784 02fe CDF804E0 	 str lr,[sp,#4]
 785 0302 A430     	 adds r0,r0,#164
 786 0304 E431     	 adds r1,r1,#228
 787 0306 0293     	 str r3,[sp,#8]
 788 0308 0497     	 str r7,[sp,#16]
 789 030a 4023     	 movs r3,#64
 790 030c FFF7FEFF 	 bl compute_fft_signal
 791              	.LVL63:
 370:../Algorithm/src/tracking.c **** 
 792              	 .loc 1 370 0
 793 0310 3046     	 mov r0,r6
 794 0312 4021     	 movs r1,#64
 795 0314 984A     	 ldr r2,.L261+4
 796 0316 FFF7FEFF 	 bl compute_fft_spectrum
 797              	.LVL64:
 372:../Algorithm/src/tracking.c **** 
 798              	 .loc 1 372 0
 799 031a 13AB     	 add r3,sp,#76
 800 031c 12AA     	 add r2,sp,#72
 801 031e 9648     	 ldr r0,.L261+4
 802 0320 4021     	 movs r1,#64
 803 0322 FFF7FEFF 	 bl arm_max_f32
 804              	.LVL65:
 374:../Algorithm/src/tracking.c **** 			{
 805              	 .loc 1 374 0
 806 0326 139B     	 ldr r3,[sp,#76]
 807 0328 002B     	 cmp r3,#0
 808 032a 40F06281 	 bne .L79
 809 032e 109F     	 ldr r7,[sp,#64]
 810 0330 119B     	 ldr r3,[sp,#68]
 811              	.L80:
 382:../Algorithm/src/tracking.c **** 
 812              	 .loc 1 382 0
 813 0332 0093     	 str r3,[sp]
 814 0334 4D44     	 add r5,r5,r9
 815 0336 08EB4515 	 add r5,r8,r5,lsl#5
 816 033a DDF838A0 	 ldr r10,[sp,#56]
 817 033e D5F82401 	 ldr r0,[r5,#292]
 818 0342 0F9E     	 ldr r6,[sp,#60]
 819 0344 FFF7FEFF 	 bl __aeabi_f2d
 820              	.LVL66:
 821 0348 BDF92430 	 ldrsh r3,[sp,#36]
 822 034c 0493     	 str r3,[sp,#16]
 823 034e CDE90201 	 strd r0,[sp,#8]
 824 0352 3B46     	 mov r3,r7
 825 0354 5146     	 mov r1,r10
 826 0356 3246     	 mov r2,r6
 827 0358 14A8     	 add r0,sp,#80
 828 035a CDED05CA 	 fsts s25,[sp,#20]
 829 035e FFF7FEFF 	 bl compute_angle
 830              	.LVL67:
 384:../Algorithm/src/tracking.c **** 			track_ptr->d_phi = T.d_phi;
 831              	 .loc 1 384 0
 832 0362 DDF858A0 	 ldr r10,[sp,#88]
 833              	.LBB103:
 834              	.LBB104:
 490:../Algorithm/src/tracking.c **** 		track_median_arr->median_filter_len = MAX_MEDIAN_FILTER_LEN;
 835              	 .loc 1 490 0
 836 0366 DFF81CC2 	 ldr ip,.L261+16
 837              	.LBE104:
 838              	.LBE103:
 384:../Algorithm/src/tracking.c **** 			track_ptr->d_phi = T.d_phi;
 839              	 .loc 1 384 0
 840 036a C5F820A0 	 str r10,[r5,#32]
 385:../Algorithm/src/tracking.c **** 
 841              	 .loc 1 385 0
 842 036e DDE91401 	 ldrd r0,[sp,#80]
 843              	.LBB127:
 844              	.LBB119:
 490:../Algorithm/src/tracking.c **** 		track_median_arr->median_filter_len = MAX_MEDIAN_FILTER_LEN;
 845              	 .loc 1 490 0
 846 0372 CDF824C0 	 str ip,[sp,#36]
 847              	.LVL68:
 848 0376 4FEA0917 	 lsl r7,r9,#4
 849              	.LBE119:
 850              	.LBE127:
 385:../Algorithm/src/tracking.c **** 
 851              	 .loc 1 385 0
 852 037a FFF7FEFF 	 bl __aeabi_d2f
 853              	.LVL69:
 854              	.LBB128:
 855              	.LBB120:
 490:../Algorithm/src/tracking.c **** 		track_median_arr->median_filter_len = MAX_MEDIAN_FILTER_LEN;
 856              	 .loc 1 490 0
 857 037e DDF824C0 	 ldr ip,[sp,#36]
 858              	.LBE120:
 859              	.LBE128:
 385:../Algorithm/src/tracking.c **** 
 860              	 .loc 1 385 0
 861 0382 C5F82401 	 str r0,[r5,#292]
 862              	.LVL70:
 863              	.LBB129:
 864              	.LBB121:
 490:../Algorithm/src/tracking.c **** 		track_median_arr->median_filter_len = MAX_MEDIAN_FILTER_LEN;
 865              	 .loc 1 490 0
 866 0386 C9EB0703 	 rsb r3,r9,r7
 867 038a 0CEB8302 	 add r2,ip,r3,lsl#2
 868              	.LBE121:
 869              	.LBE129:
 384:../Algorithm/src/tracking.c **** 			track_ptr->d_phi = T.d_phi;
 870              	 .loc 1 384 0
 871 038e 4FEAC905 	 lsl r5,r9,#3
 872              	.LBB130:
 873              	.LBB122:
 490:../Algorithm/src/tracking.c **** 		track_median_arr->median_filter_len = MAX_MEDIAN_FILTER_LEN;
 874              	 .loc 1 490 0
 875 0392 5168     	 ldr r1,[r2,#4]
 493:../Algorithm/src/tracking.c **** 	{
 876              	 .loc 1 493 0
 877 0394 1CF82330 	 ldrb r3,[ip,r3,lsl#2]
 490:../Algorithm/src/tracking.c **** 		track_median_arr->median_filter_len = MAX_MEDIAN_FILTER_LEN;
 878              	 .loc 1 490 0
 879 0398 0D29     	 cmp r1,#13
 880 039a 40F29181 	 bls .L81
 491:../Algorithm/src/tracking.c **** 
 881              	 .loc 1 491 0
 882 039e 0D21     	 movs r1,#13
 883 03a0 5160     	 str r1,[r2,#4]
 493:../Algorithm/src/tracking.c **** 	{
 884              	 .loc 1 493 0
 885 03a2 002B     	 cmp r3,#0
 886 03a4 00F07081 	 beq .L82
 887 03a8 0C23     	 movs r3,#12
 888 03aa 0A93     	 str r3,[sp,#40]
 889              	.L83:
 890              	.LVL71:
 891              	.LBB105:
 892              	.LBB106:
 893              	.LBB107:
 501:../Algorithm/src/tracking.c **** 
 502:../Algorithm/src/tracking.c **** 		return new_input;
 503:../Algorithm/src/tracking.c **** 	}
 504:../Algorithm/src/tracking.c **** 	else
 505:../Algorithm/src/tracking.c **** 	{
 506:../Algorithm/src/tracking.c **** 		float sorting_arr[MAX_MEDIAN_FILTER_LEN];
 507:../Algorithm/src/tracking.c **** 
 508:../Algorithm/src/tracking.c **** 		uint32_t len = MAX_MEDIAN_FILTER_LEN-1;
 509:../Algorithm/src/tracking.c **** 		if( len > track_median_arr->median_filter_len-1)
 510:../Algorithm/src/tracking.c **** 			len = track_median_arr->median_filter_len-1;
 511:../Algorithm/src/tracking.c **** 
 512:../Algorithm/src/tracking.c **** 		for (uint32_t j = 0; j < len; j++)
 513:../Algorithm/src/tracking.c **** 		{
 514:../Algorithm/src/tracking.c **** 
 515:../Algorithm/src/tracking.c **** 			sorting_arr[j] = track_median_arr->buffer[j+1];		// shift the array left in order to add new val
 894              	 .loc 1 515 0
 895 03ac C9EB0703 	 rsb r3,r9,r7
 896 03b0 0CEB8303 	 add r3,ip,r3,lsl#2
 897 03b4 DE68     	 ldr r6,[r3,#12]
 898 03b6 1869     	 ldr r0,[r3,#16]
 899 03b8 5A69     	 ldr r2,[r3,#20]
 516:../Algorithm/src/tracking.c **** 
 517:../Algorithm/src/tracking.c **** 			track_median_arr->buffer[j] = track_median_arr->buffer[j+1];
 900              	 .loc 1 517 0
 901 03ba 9E60     	 str r6,[r3,#8]
 902              	.LVL72:
 903 03bc D860     	 str r0,[r3,#12]
 904              	.LVL73:
 905 03be 1A61     	 str r2,[r3,#16]
 906              	.LVL74:
 515:../Algorithm/src/tracking.c **** 
 907              	 .loc 1 515 0
 908 03c0 1996     	 str r6,[sp,#100]
 909 03c2 1A90     	 str r0,[sp,#104]
 910 03c4 1B92     	 str r2,[sp,#108]
 911              	.LBE107:
 508:../Algorithm/src/tracking.c **** 		if( len > track_median_arr->median_filter_len-1)
 912              	 .loc 1 508 0
 913 03c6 0C23     	 movs r3,#12
 914              	.LVL75:
 915              	.L104:
 916              	.LBB108:
 515:../Algorithm/src/tracking.c **** 
 917              	 .loc 1 515 0
 918 03c8 C9EB0702 	 rsb r2,r9,r7
 919 03cc 0CEB8202 	 add r2,ip,r2,lsl#2
 512:../Algorithm/src/tracking.c **** 		{
 920              	 .loc 1 512 0
 921 03d0 042B     	 cmp r3,#4
 515:../Algorithm/src/tracking.c **** 
 922              	 .loc 1 515 0
 923 03d2 9069     	 ldr r0,[r2,#24]
 924 03d4 1C90     	 str r0,[sp,#112]
 925              	 .loc 1 517 0
 926 03d6 5061     	 str r0,[r2,#20]
 927              	.LVL76:
 512:../Algorithm/src/tracking.c **** 		{
 928              	 .loc 1 512 0
 929 03d8 25D0     	 beq .L90
 515:../Algorithm/src/tracking.c **** 
 930              	 .loc 1 515 0
 931 03da D069     	 ldr r0,[r2,#28]
 932 03dc 1D90     	 str r0,[sp,#116]
 512:../Algorithm/src/tracking.c **** 		{
 933              	 .loc 1 512 0
 934 03de 052B     	 cmp r3,#5
 935              	 .loc 1 517 0
 936 03e0 9061     	 str r0,[r2,#24]
 937              	.LVL77:
 512:../Algorithm/src/tracking.c **** 		{
 938              	 .loc 1 512 0
 939 03e2 20D0     	 beq .L90
 515:../Algorithm/src/tracking.c **** 
 940              	 .loc 1 515 0
 941 03e4 106A     	 ldr r0,[r2,#32]
 942 03e6 1E90     	 str r0,[sp,#120]
 512:../Algorithm/src/tracking.c **** 		{
 943              	 .loc 1 512 0
 944 03e8 062B     	 cmp r3,#6
 945              	 .loc 1 517 0
 946 03ea D061     	 str r0,[r2,#28]
 947              	.LVL78:
 512:../Algorithm/src/tracking.c **** 		{
 948              	 .loc 1 512 0
 949 03ec 1BD0     	 beq .L90
 515:../Algorithm/src/tracking.c **** 
 950              	 .loc 1 515 0
 951 03ee 506A     	 ldr r0,[r2,#36]
 952 03f0 1F90     	 str r0,[sp,#124]
 512:../Algorithm/src/tracking.c **** 		{
 953              	 .loc 1 512 0
 954 03f2 072B     	 cmp r3,#7
 955              	 .loc 1 517 0
 956 03f4 1062     	 str r0,[r2,#32]
 957              	.LVL79:
 512:../Algorithm/src/tracking.c **** 		{
 958              	 .loc 1 512 0
 959 03f6 16D0     	 beq .L90
 515:../Algorithm/src/tracking.c **** 
 960              	 .loc 1 515 0
 961 03f8 906A     	 ldr r0,[r2,#40]
 962 03fa 2090     	 str r0,[sp,#128]
 512:../Algorithm/src/tracking.c **** 		{
 963              	 .loc 1 512 0
 964 03fc 082B     	 cmp r3,#8
 965              	 .loc 1 517 0
 966 03fe 5062     	 str r0,[r2,#36]
 967              	.LVL80:
 512:../Algorithm/src/tracking.c **** 		{
 968              	 .loc 1 512 0
 969 0400 11D0     	 beq .L90
 515:../Algorithm/src/tracking.c **** 
 970              	 .loc 1 515 0
 971 0402 D06A     	 ldr r0,[r2,#44]
 972 0404 2190     	 str r0,[sp,#132]
 512:../Algorithm/src/tracking.c **** 		{
 973              	 .loc 1 512 0
 974 0406 092B     	 cmp r3,#9
 975              	 .loc 1 517 0
 976 0408 9062     	 str r0,[r2,#40]
 977              	.LVL81:
 512:../Algorithm/src/tracking.c **** 		{
 978              	 .loc 1 512 0
 979 040a 0CD0     	 beq .L90
 515:../Algorithm/src/tracking.c **** 
 980              	 .loc 1 515 0
 981 040c 106B     	 ldr r0,[r2,#48]
 982 040e 2290     	 str r0,[sp,#136]
 512:../Algorithm/src/tracking.c **** 		{
 983              	 .loc 1 512 0
 984 0410 0A2B     	 cmp r3,#10
 985              	 .loc 1 517 0
 986 0412 D062     	 str r0,[r2,#44]
 987              	.LVL82:
 512:../Algorithm/src/tracking.c **** 		{
 988              	 .loc 1 512 0
 989 0414 07D0     	 beq .L90
 515:../Algorithm/src/tracking.c **** 
 990              	 .loc 1 515 0
 991 0416 506B     	 ldr r0,[r2,#52]
 992 0418 2390     	 str r0,[sp,#140]
 512:../Algorithm/src/tracking.c **** 		{
 993              	 .loc 1 512 0
 994 041a 0C2B     	 cmp r3,#12
 995              	 .loc 1 517 0
 996 041c 1063     	 str r0,[r2,#48]
 997              	.LVL83:
 512:../Algorithm/src/tracking.c **** 		{
 998              	 .loc 1 512 0
 999 041e 02D1     	 bne .L90
 515:../Algorithm/src/tracking.c **** 
 1000              	 .loc 1 515 0
 1001 0420 936B     	 ldr r3,[r2,#56]
 1002              	.LVL84:
 1003 0422 2493     	 str r3,[sp,#144]
 1004              	 .loc 1 517 0
 1005 0424 5363     	 str r3,[r2,#52]
 1006              	.LVL85:
 1007              	.L90:
 1008              	.LBE108:
 518:../Algorithm/src/tracking.c **** 
 519:../Algorithm/src/tracking.c **** 		}
 520:../Algorithm/src/tracking.c **** 
 521:../Algorithm/src/tracking.c **** 		track_median_arr->buffer[track_median_arr->median_filter_len-1] = new_input;
 1009              	 .loc 1 521 0
 1010 0426 0A9B     	 ldr r3,[sp,#40]
 1011 0428 CDF824C0 	 str ip,[sp,#36]
 1012 042c C9EB0706 	 rsb r6,r9,r7
 1013 0430 F218     	 adds r2,r6,r3
 522:../Algorithm/src/tracking.c **** 
 523:../Algorithm/src/tracking.c **** 		sorting_arr[track_median_arr->median_filter_len-1] = new_input;
 1014              	 .loc 1 523 0
 1015 0432 26A8     	 add r0,sp,#152
 521:../Algorithm/src/tracking.c **** 
 1016              	 .loc 1 521 0
 1017 0434 0CEB8202 	 add r2,ip,r2,lsl#2
 1018              	 .loc 1 523 0
 1019 0438 00EB8303 	 add r3,r0,r3,lsl#2
 521:../Algorithm/src/tracking.c **** 
 1020              	 .loc 1 521 0
 1021 043c C2F808A0 	 str r10,[r2,#8]
 524:../Algorithm/src/tracking.c **** 
 525:../Algorithm/src/tracking.c **** 		qsort(sorting_arr, track_median_arr->median_filter_len, sizeof(float), compare_float);
 1022              	 .loc 1 525 0
 1023 0440 19A8     	 add r0,sp,#100
 1024 0442 0422     	 movs r2,#4
 523:../Algorithm/src/tracking.c **** 
 1025              	 .loc 1 523 0
 1026 0444 43F834AC 	 str r10,[r3,#-52]
 1027              	.LVL86:
 1028              	.L230:
 1029              	 .loc 1 525 0
 1030 0448 4C4B     	 ldr r3,.L261+8
 1031 044a FFF7FEFF 	 bl qsort
 1032              	.LVL87:
 526:../Algorithm/src/tracking.c **** 
 527:../Algorithm/src/tracking.c **** 		return sorting_arr[track_median_arr->median_filter_len / 2];
 1033              	 .loc 1 527 0
 1034 044e DDF824C0 	 ldr ip,[sp,#36]
 1035 0452 0CEB8606 	 add r6,ip,r6,lsl#2
 1036 0456 26AA     	 add r2,sp,#152
 1037 0458 7368     	 ldr r3,[r6,#4]
 1038 045a 5B08     	 lsrs r3,r3,#1
 1039 045c 02EB8303 	 add r3,r2,r3,lsl#2
 1040 0460 53F834AC 	 ldr r10,[r3,#-52]
 1041              	.LBE106:
 1042              	.LBE105:
 1043              	.LBE122:
 1044              	.LBE130:
 387:../Algorithm/src/tracking.c **** 		}
 1045              	 .loc 1 387 0
 1046 0464 05EB0903 	 add r3,r5,r9
 1047 0468 08EB4313 	 add r3,r8,r3,lsl#5
 1048 046c C3F820A0 	 str r10,[r3,#32]
 1049 0470 D8F80470 	 ldr r7,[r8,#4]
 1050              	.L52:
 1051              	.LBE102:
 1052              	.LBE195:
 1053              	.LBE207:
 179:../Algorithm/src/tracking.c **** 			}
 1054              	 .loc 1 179 0
 1055 0474 089A     	 ldr r2,[sp,#32]
 1056 0476 0123     	 movs r3,#1
 1057 0478 2BF80230 	 strh r3,[fp,r2]
 1058              	.LVL88:
 1059              	.L33:
 117:../Algorithm/src/tracking.c **** 		{
 1060              	 .loc 1 117 0 discriminator 2
 1061 047c 09F10109 	 add r9,r9,#1
 1062              	.LVL89:
 1063 0480 5FFA89F9 	 uxtb r9,r9
 1064              	.LVL90:
 1065 0484 B945     	 cmp r9,r7
 1066 0486 FFF4E0AD 	 bcc .L92
 1067              	.L256:
 1068              	.LVL91:
 1069 048a A246     	 mov r10,r4
 1070 048c 4446     	 mov r4,r8
 1071              	.LBE99:
 1072              	.LBB213:
 187:../Algorithm/src/tracking.c **** 		{
 1073              	 .loc 1 187 0 discriminator 1
 1074 048e 002F     	 cmp r7,#0
 1075 0490 6BD0     	 beq .L20
 1076              	.LVL92:
 187:../Algorithm/src/tracking.c **** 		{
 1077              	 .loc 1 187 0 is_stmt 0
 1078 0492 4FF00009 	 mov r9,#0
 1079              	.LVL93:
 1080              	.LBB214:
 1081              	.LBB215:
 230:../Algorithm/src/tracking.c **** }
 1082              	 .loc 1 230 0 is_stmt 1
 1083 0496 9FED3A8A 	 flds s16,.L261+12
 1084              	.LBE215:
 1085              	.LBE214:
 197:../Algorithm/src/tracking.c **** 			}
 1086              	 .loc 1 197 0
 1087 049a DFF8E880 	 ldr r8,.L261+16
 1088              	.LBB218:
 1089              	.LBB216:
 229:../Algorithm/src/tracking.c **** 	track_ptr->d_phi = IGNORE_NAN;
 1090              	 .loc 1 229 0
 1091 049e 4E46     	 mov r6,r9
 1092 04a0 04F10805 	 add r5,r4,#8
 1093 04a4 11E0     	 b .L95
 1094              	.LVL94:
 1095              	.L93:
 1096 04a6 FFF7FEFF 	 bl memset
 1097              	.LVL95:
 230:../Algorithm/src/tracking.c **** }
 1098              	 .loc 1 230 0
 1099 04aa 85ED478A 	 fsts s16,[r5,#284]
 1100              	.LBE216:
 1101              	.LBE218:
 195:../Algorithm/src/tracking.c **** 
 1102              	 .loc 1 195 0
 1103 04ae 2268     	 ldr r2,[r4]
 1104 04b0 C9EB0913 	 rsb r3,r9,r9,lsl#4
 1105 04b4 013A     	 subs r2,r2,#1
 1106 04b6 2260     	 str r2,[r4]
 197:../Algorithm/src/tracking.c **** 			}
 1107              	 .loc 1 197 0
 1108 04b8 08F82360 	 strb r6,[r8,r3,lsl#2]
 1109 04bc 6768     	 ldr r7,[r4,#4]
 187:../Algorithm/src/tracking.c **** 		{
 1110              	 .loc 1 187 0
 1111 04be 09F10109 	 add r9,r9,#1
 1112              	.LVL96:
 1113 04c2 B945     	 cmp r9,r7
 1114 04c4 05F59075 	 add r5,r5,#288
 1115              	.LVL97:
 1116 04c8 19D2     	 bcs .L254
 1117              	.LVL98:
 1118              	.L95:
 189:../Algorithm/src/tracking.c **** 
 1119              	 .loc 1 189 0
 1120 04ca B5F806E0 	 ldrh lr,[r5,#6]
 1121 04ce AB68     	 ldr r3,[r5,#8]
 1122              	.LVL99:
 191:../Algorithm/src/tracking.c **** 					p_tracks->elems[j].speed_count > 2*LIFE_TIME_COUNT )
 1123              	 .loc 1 191 0
 1124 04d0 BEF1140F 	 cmp lr,#20
 189:../Algorithm/src/tracking.c **** 
 1125              	 .loc 1 189 0
 1126 04d4 C3EB0E03 	 rsb r3,r3,lr
 1127              	.LVL100:
 1128              	.LBB219:
 1129              	.LBB217:
 229:../Algorithm/src/tracking.c **** 	track_ptr->d_phi = IGNORE_NAN;
 1130              	 .loc 1 229 0
 1131 04d8 2846     	 mov r0,r5
 1132 04da 4FF00001 	 mov r1,#0
 1133 04de 4FF49072 	 mov r2,#288
 1134              	.LBE217:
 1135              	.LBE219:
 189:../Algorithm/src/tracking.c **** 
 1136              	 .loc 1 189 0
 1137 04e2 A3F10503 	 sub r3,r3,#5
 191:../Algorithm/src/tracking.c **** 					p_tracks->elems[j].speed_count > 2*LIFE_TIME_COUNT )
 1138              	 .loc 1 191 0
 1139 04e6 DED8     	 bhi .L93
 191:../Algorithm/src/tracking.c **** 					p_tracks->elems[j].speed_count > 2*LIFE_TIME_COUNT )
 1140              	 .loc 1 191 0 is_stmt 0 discriminator 1
 1141 04e8 8B42     	 cmp r3,r1
 1142 04ea DCDC     	 bgt .L93
 191:../Algorithm/src/tracking.c **** 					p_tracks->elems[j].speed_count > 2*LIFE_TIME_COUNT )
 1143              	 .loc 1 191 0 discriminator 2
 1144 04ec 6B88     	 ldrh r3,[r5,#2]
 1145 04ee 282B     	 cmp r3,#40
 1146 04f0 D9D8     	 bhi .L93
 187:../Algorithm/src/tracking.c **** 		{
 1147              	 .loc 1 187 0 is_stmt 1
 1148 04f2 09F10109 	 add r9,r9,#1
 1149              	.LVL101:
 1150 04f6 B945     	 cmp r9,r7
 1151 04f8 05F59075 	 add r5,r5,#288
 1152              	.LVL102:
 1153 04fc E5D3     	 bcc .L95
 1154              	.LVL103:
 1155              	.L254:
 1156              	.LBE213:
 203:../Algorithm/src/tracking.c **** 		{
 1157              	 .loc 1 203 0
 1158 04fe 2368     	 ldr r3,[r4]
 1159 0500 9F42     	 cmp r7,r3
 1160 0502 32D9     	 bls .L20
 1161              	.LVL104:
 1162              	.LBB220:
 205:../Algorithm/src/tracking.c **** 			{
 1163              	 .loc 1 205 0 discriminator 1
 1164 0504 BAF1000F 	 cmp r10,#0
 1165 0508 2FD0     	 beq .L20
 205:../Algorithm/src/tracking.c **** 			{
 1166              	 .loc 1 205 0 is_stmt 0
 1167 050a 079E     	 ldr r6,[sp,#28]
 1168 050c 0025     	 movs r5,#0
 1169              	.LVL105:
 1170              	.L97:
 207:../Algorithm/src/tracking.c **** 				{
 1171              	 .loc 1 207 0 is_stmt 1
 1172 050e 6B01     	 lsls r3,r5,#5
 1173 0510 0BEB0301 	 add r1,fp,r3
 1174 0514 3BF80320 	 ldrh r2,[fp,r3]
 1175 0518 1ABB     	 cbnz r2,.L98
 207:../Algorithm/src/tracking.c **** 				{
 1176              	 .loc 1 207 0 is_stmt 0 discriminator 1
 1177 051a D1ED037A 	 flds s15,[r1,#12]
 1178 051e F5EE407A 	 fcmpzs s15
 1179 0522 F1EE10FA 	 fmstat
 1180 0526 1CD0     	 beq .L98
 1181              	.LVL106:
 1182              	.LBB221:
 1183              	.LBB222:
 1184              	.LBB223:
 453:../Algorithm/src/tracking.c **** 	{
 1185              	 .loc 1 453 0 is_stmt 1
 1186 0528 6068     	 ldr r0,[r4,#4]
 1187 052a 0028     	 cmp r0,#0
 1188 052c 00F01682 	 beq .L124
 455:../Algorithm/src/tracking.c **** 		{
 1189              	 .loc 1 455 0
 1190 0530 637A     	 ldrb r3,[r4,#9]
 1191 0532 13B9     	 cbnz r3,.L100
 1192 0534 14E2     	 b .L255
 1193              	.LVL107:
 1194              	.L101:
 1195 0536 5B7A     	 ldrb r3,[r3,#9]
 1196 0538 3BB1     	 cbz r3,.L99
 1197              	.LVL108:
 1198              	.L100:
 459:../Algorithm/src/tracking.c **** 	}
 1199              	 .loc 1 459 0
 1200 053a 0132     	 adds r2,r2,#1
 1201              	.LVL109:
 1202 053c D2B2     	 uxtb r2,r2
 1203              	.LVL110:
 455:../Algorithm/src/tracking.c **** 		{
 1204              	 .loc 1 455 0
 1205 053e 02EBC203 	 add r3,r2,r2,lsl#3
 453:../Algorithm/src/tracking.c **** 	{
 1206              	 .loc 1 453 0
 1207 0542 8242     	 cmp r2,r0
 455:../Algorithm/src/tracking.c **** 		{
 1208              	 .loc 1 455 0
 1209 0544 04EB4313 	 add r3,r4,r3,lsl#5
 453:../Algorithm/src/tracking.c **** 	{
 1210              	 .loc 1 453 0
 1211 0548 F5D3     	 bcc .L101
 1212              	.LVL111:
 1213              	.L99:
 1214              	.LBE223:
 1215              	.LBE222:
 211:../Algorithm/src/tracking.c **** 							cp_algo_settings->wave_length_ant_spacing_ratio, cp_algo_settings->min_angle_for_track_assig
 1216              	 .loc 1 211 0
 1217 054a 338D     	 ldrh r3,[r6,#40]
 1218 054c 96ED110A 	 flds s0,[r6,#68]
 1219 0550 D6ED120A 	 flds s1,[r6,#72]
 1220 0554 2046     	 mov r0,r4
 1221 0556 FFF7FEFF 	 bl assign_track
 1222              	.LVL112:
 214:../Algorithm/src/tracking.c **** 					{
 1223              	 .loc 1 214 0
 1224 055a 94E80C00 	 ldmia r4,{r2,r3}
 1225 055e 9A42     	 cmp r2,r3
 1226 0560 03D2     	 bcs .L20
 1227              	.L98:
 1228              	.LBE221:
 205:../Algorithm/src/tracking.c **** 			{
 1229              	 .loc 1 205 0
 1230 0562 0135     	 adds r5,r5,#1
 1231              	.LVL113:
 1232 0564 EDB2     	 uxtb r5,r5
 1233              	.LVL114:
 1234 0566 AA45     	 cmp r10,r5
 1235 0568 D1D8     	 bhi .L97
 1236              	.LVL115:
 1237              	.L20:
 1238              	.LBE220:
 1239              	.LBE98:
 223:../Algorithm/src/tracking.c **** 
 1240              	 .loc 1 223 0
 1241 056a 27B0     	 add sp,sp,#156
 1242              	.LCFI12:
 1243              	 .cfi_remember_state
 1244              	 .cfi_def_cfa_offset 84
 1245              	 
 1246 056c BDEC0C8B 	 fldmfdd sp!,{d8-d13}
 1247              	.LCFI13:
 1248              	 .cfi_restore 90
 1249              	 .cfi_restore 91
 1250              	 .cfi_restore 88
 1251              	 .cfi_restore 89
 1252              	 .cfi_restore 86
 1253              	 .cfi_restore 87
 1254              	 .cfi_restore 84
 1255              	 .cfi_restore 85
 1256              	 .cfi_restore 82
 1257              	 .cfi_restore 83
 1258              	 .cfi_restore 80
 1259              	 .cfi_restore 81
 1260              	 .cfi_def_cfa_offset 36
 1261 0570 BDE8F08F 	 pop {r4,r5,r6,r7,r8,r9,r10,fp,pc}
 1262              	.LVL116:
 1263              	.L262:
 1264              	 .align 2
 1265              	.L261:
 1266 0574 00000000 	 .word .LANCHOR1
 1267 0578 00000000 	 .word .LANCHOR2
 1268 057c 00000000 	 .word compare_float
 1269 0580 00C00A44 	 .word 1141555200
 1270 0584 00000000 	 .word .LANCHOR0
 1271 0588 CCCC4C3E 	 .word 1045220556
 1272 058c CDCC4C3F 	 .word 1061997773
 1273              	.LVL117:
 1274              	.L36:
 1275              	.LCFI14:
 1276              	 .cfi_restore_state
 1277              	.LBB231:
 1278              	.LBB227:
 165:../Algorithm/src/tracking.c **** 
 1279              	 .loc 1 165 0
 1280 0590 4D44     	 add r5,r5,r9
 1281 0592 08EB4515 	 add r5,r8,r5,lsl#5
 167:../Algorithm/src/tracking.c **** 			}
 1282              	 .loc 1 167 0
 1283 0596 36EE877A 	 fadds s14,s13,s14
 1284              	.LVL118:
 165:../Algorithm/src/tracking.c **** 
 1285              	 .loc 1 165 0
 1286 059a EB89     	 ldrh r3,[r5,#14]
 167:../Algorithm/src/tracking.c **** 			}
 1287              	 .loc 1 167 0
 1288 059c F6EE007A 	 fconsts s15,#96
 117:../Algorithm/src/tracking.c **** 		{
 1289              	 .loc 1 117 0
 1290 05a0 09F10109 	 add r9,r9,#1
 1291              	.LVL119:
 167:../Algorithm/src/tracking.c **** 			}
 1292              	 .loc 1 167 0
 1293 05a4 27EE277A 	 fmuls s14,s14,s15
 117:../Algorithm/src/tracking.c **** 		{
 1294              	 .loc 1 117 0
 1295 05a8 5FFA89F9 	 uxtb r9,r9
 1296              	.LVL120:
 165:../Algorithm/src/tracking.c **** 
 1297              	 .loc 1 165 0
 1298 05ac 0133     	 adds r3,r3,#1
 117:../Algorithm/src/tracking.c **** 		{
 1299              	 .loc 1 117 0
 1300 05ae B945     	 cmp r9,r7
 165:../Algorithm/src/tracking.c **** 
 1301              	 .loc 1 165 0
 1302 05b0 EB81     	 strh r3,[r5,#14]
 167:../Algorithm/src/tracking.c **** 			}
 1303              	 .loc 1 167 0
 1304 05b2 85ED067A 	 fsts s14,[r5,#24]
 117:../Algorithm/src/tracking.c **** 		{
 1305              	 .loc 1 117 0
 1306 05b6 FFF448AD 	 bcc .L92
 1307 05ba 66E7     	 b .L256
 1308              	.LVL121:
 1309              	.L108:
 1310              	.LBB208:
 1311              	.LBB196:
 252:../Algorithm/src/tracking.c **** 	{
 1312              	 .loc 1 252 0
 1313 05bc B6EE08DA 	 fconsts s26,#104
 254:../Algorithm/src/tracking.c **** 	}
 1314              	 .loc 1 254 0
 1315 05c0 F5EE007A 	 fconsts s15,#80
 1316 05c4 06E6     	 b .L43
 1317              	.LVL122:
 1318              	.L251:
 280:../Algorithm/src/tracking.c **** 		{
 1319              	 .loc 1 280 0
 1320 05c6 3CEE2ACA 	 fadds s24,s24,s21
 1321              	.LVL123:
 1322 05ca F4EECC7A 	 fcmpes s15,s24
 1323 05ce F1EE10FA 	 fmstat
 1324 05d2 7FF71FAE 	 ble .L48
 1325 05d6 17E6     	 b .L49
 1326              	.LVL124:
 1327              	.L250:
 260:../Algorithm/src/tracking.c **** 	{
 1328              	 .loc 1 260 0
 1329 05d8 F7EE007A 	 fconsts s15,#112
 1330 05dc F4EEE7DA 	 fcmpes s27,s15
 1331 05e0 F1EE10FA 	 fmstat
 1332 05e4 7FF5E2AD 	 bpl .L46
 1333 05e8 1FED19DA 	 flds s26,.L261+20
 262:../Algorithm/src/tracking.c **** 	}
 1334              	 .loc 1 262 0
 1335 05ec 5FED197A 	 flds s15,.L261+24
 1336 05f0 F0E5     	 b .L43
 1337              	.LVL125:
 1338              	.L79:
 1339              	.LBB135:
 376:../Algorithm/src/tracking.c **** 				q2_mean = rx_angle_fft[2*idx + 1];
 1340              	 .loc 1 376 0
 1341 05f2 06EBC302 	 add r2,r6,r3,lsl#3
 1342 05f6 1768     	 ldr r7,[r2]
 377:../Algorithm/src/tracking.c **** 			}
 1343              	 .loc 1 377 0
 1344 05f8 5368     	 ldr r3,[r2,#4]
 376:../Algorithm/src/tracking.c **** 				q2_mean = rx_angle_fft[2*idx + 1];
 1345              	 .loc 1 376 0
 1346 05fa 1097     	 str r7,[sp,#64]
 377:../Algorithm/src/tracking.c **** 			}
 1347              	 .loc 1 377 0
 1348 05fc 1193     	 str r3,[sp,#68]
 1349 05fe 98E6     	 b .L80
 1350              	.LVL126:
 1351              	.L22:
 1352              	.LBE135:
 1353              	.LBE196:
 1354              	.LBE208:
 1355              	.LBE227:
 1356              	.LBE231:
 1357              	.LBB232:
  90:../Algorithm/src/tracking.c **** 		{
 1358              	 .loc 1 90 0 discriminator 1
 1359 0600 4068     	 ldr r0,[r0,#4]
 1360              	.LVL127:
 1361 0602 70B1     	 cbz r0,.L27
 1362              	.LVL128:
 1363              	.L25:
  92:../Algorithm/src/tracking.c **** 		}
 1364              	 .loc 1 92 0 discriminator 3
 1365 0604 05EBC500 	 add r0,r5,r5,lsl#3
 1366 0608 04EB4010 	 add r0,r4,r0,lsl#5
 1367 060c 0830     	 adds r0,r0,#8
 1368 060e 0021     	 movs r1,#0
 1369 0610 4FF49072 	 mov r2,#288
 1370 0614 FFF7FEFF 	 bl memset
 1371              	.LVL129:
  90:../Algorithm/src/tracking.c **** 		{
 1372              	 .loc 1 90 0 discriminator 3
 1373 0618 0135     	 adds r5,r5,#1
 1374              	.LVL130:
 1375 061a 6068     	 ldr r0,[r4,#4]
 1376 061c EDB2     	 uxtb r5,r5
 1377              	.LVL131:
 1378 061e 8542     	 cmp r5,r0
 1379 0620 F0D3     	 bcc .L25
 1380              	.LVL132:
 1381              	.L27:
 1382 0622 079E     	 ldr r6,[sp,#28]
  90:../Algorithm/src/tracking.c **** 		{
 1383              	 .loc 1 90 0 is_stmt 0
 1384 0624 0025     	 movs r5,#0
 1385              	.LVL133:
 1386              	.L26:
 1387              	.LBE232:
 1388              	.LBB233:
  97:../Algorithm/src/tracking.c **** 			{
 1389              	 .loc 1 97 0 is_stmt 1
 1390 0626 0BEB4511 	 add r1,fp,r5,lsl#5
 1391 062a D1ED037A 	 flds s15,[r1,#12]
 1392 062e F5EE407A 	 fcmpzs s15
 1393 0632 F1EE10FA 	 fmstat
 1394 0636 1DD0     	 beq .L32
 1395              	.LVL134:
 1396              	.LBB234:
 1397              	.LBB235:
 1398              	.LBB236:
 453:../Algorithm/src/tracking.c **** 	{
 1399              	 .loc 1 453 0
 1400 0638 0028     	 cmp r0,#0
 1401 063a 00F09381 	 beq .L106
 455:../Algorithm/src/tracking.c **** 		{
 1402              	 .loc 1 455 0
 1403 063e 627A     	 ldrb r2,[r4,#9]
 1404 0640 5AB1     	 cbz r2,.L29
 1405 0642 0022     	 movs r2,#0
 1406 0644 01E0     	 b .L30
 1407              	.LVL135:
 1408              	.L31:
 1409 0646 5B7A     	 ldrb r3,[r3,#9]
 1410 0648 3BB1     	 cbz r3,.L29
 1411              	.LVL136:
 1412              	.L30:
 459:../Algorithm/src/tracking.c **** 	}
 1413              	 .loc 1 459 0
 1414 064a 0132     	 adds r2,r2,#1
 1415              	.LVL137:
 1416 064c D2B2     	 uxtb r2,r2
 1417              	.LVL138:
 455:../Algorithm/src/tracking.c **** 		{
 1418              	 .loc 1 455 0
 1419 064e 02EBC203 	 add r3,r2,r2,lsl#3
 453:../Algorithm/src/tracking.c **** 	{
 1420              	 .loc 1 453 0
 1421 0652 8242     	 cmp r2,r0
 455:../Algorithm/src/tracking.c **** 		{
 1422              	 .loc 1 455 0
 1423 0654 04EB4313 	 add r3,r4,r3,lsl#5
 453:../Algorithm/src/tracking.c **** 	{
 1424              	 .loc 1 453 0
 1425 0658 F5D3     	 bcc .L31
 1426              	.LVL139:
 1427              	.L29:
 1428              	.LBE236:
 1429              	.LBE235:
 101:../Algorithm/src/tracking.c **** 						cp_algo_settings->wave_length_ant_spacing_ratio, cp_algo_settings->min_angle_for_track_assign
 1430              	 .loc 1 101 0
 1431 065a 338D     	 ldrh r3,[r6,#40]
 1432 065c 96ED110A 	 flds s0,[r6,#68]
 1433 0660 D6ED120A 	 flds s1,[r6,#72]
 1434 0664 2046     	 mov r0,r4
 1435 0666 FFF7FEFF 	 bl assign_track
 1436              	.LVL140:
 104:../Algorithm/src/tracking.c **** 				{
 1437              	 .loc 1 104 0
 1438 066a 2368     	 ldr r3,[r4]
 1439 066c 6068     	 ldr r0,[r4,#4]
 1440 066e 8342     	 cmp r3,r0
 1441 0670 BFF47BAF 	 bcs .L20
 1442              	.L32:
 1443              	.LBE234:
  95:../Algorithm/src/tracking.c **** 		{
 1444              	 .loc 1 95 0
 1445 0674 0135     	 adds r5,r5,#1
 1446              	.LVL141:
 1447 0676 EDB2     	 uxtb r5,r5
 1448              	.LVL142:
 1449 0678 AA45     	 cmp r10,r5
 1450 067a D4D8     	 bhi .L26
 1451              	.LBE233:
 223:../Algorithm/src/tracking.c **** 
 1452              	 .loc 1 223 0
 1453 067c 27B0     	 add sp,sp,#156
 1454              	.LCFI15:
 1455              	 .cfi_remember_state
 1456              	 .cfi_def_cfa_offset 84
 1457              	 
 1458 067e BDEC0C8B 	 fldmfdd sp!,{d8-d13}
 1459              	.LCFI16:
 1460              	 .cfi_restore 80
 1461              	 .cfi_restore 81
 1462              	 .cfi_restore 82
 1463              	 .cfi_restore 83
 1464              	 .cfi_restore 84
 1465              	 .cfi_restore 85
 1466              	 .cfi_restore 86
 1467              	 .cfi_restore 87
 1468              	 .cfi_restore 88
 1469              	 .cfi_restore 89
 1470              	 .cfi_restore 90
 1471              	 .cfi_restore 91
 1472              	 .cfi_def_cfa_offset 36
 1473 0682 BDE8F08F 	 pop {r4,r5,r6,r7,r8,r9,r10,fp,pc}
 1474              	.LVL143:
 1475              	.L84:
 1476              	.LCFI17:
 1477              	 .cfi_restore_state
 1478              	.LBB240:
 1479              	.LBB228:
 1480              	.LBB209:
 1481              	.LBB197:
 1482              	.LBB136:
 1483              	.LBB131:
 1484              	.LBB123:
 1485              	.LBB114:
 495:../Algorithm/src/tracking.c **** 		{
 1486              	 .loc 1 495 0
 1487 0686 49B1     	 cbz r1,.L88
 1488              	.LVL144:
 1489              	.L82:
 1490 0688 3C22     	 movs r2,#60
 1491 068a 02FB09C2 	 mla r2,r2,r9,ip
 1492 068e 0832     	 adds r2,r2,#8
 1493              	.LBE114:
 493:../Algorithm/src/tracking.c **** 	{
 1494              	 .loc 1 493 0
 1495 0690 0023     	 movs r3,#0
 1496              	.LVL145:
 1497              	.L87:
 1498              	.LBB115:
 495:../Algorithm/src/tracking.c **** 		{
 1499              	 .loc 1 495 0
 1500 0692 0133     	 adds r3,r3,#1
 1501              	.LVL146:
 1502 0694 9942     	 cmp r1,r3
 497:../Algorithm/src/tracking.c **** 		}
 1503              	 .loc 1 497 0
 1504 0696 42F804AB 	 str r10,[r2],#4
 495:../Algorithm/src/tracking.c **** 		{
 1505              	 .loc 1 495 0
 1506 069a FAD8     	 bhi .L87
 1507              	.LVL147:
 1508              	.L88:
 1509              	.LBE115:
 500:../Algorithm/src/tracking.c **** 
 1510              	 .loc 1 500 0
 1511 069c C9EB0706 	 rsb r6,r9,r7
 1512 06a0 0123     	 movs r3,#1
 1513 06a2 0CF82630 	 strb r3,[ip,r6,lsl#2]
 1514              	.LBE123:
 1515              	.LBE131:
 387:../Algorithm/src/tracking.c **** 		}
 1516              	 .loc 1 387 0
 1517 06a6 05EB0903 	 add r3,r5,r9
 1518 06aa 08EB4313 	 add r3,r8,r3,lsl#5
 1519              	.LBE136:
 1520              	.LBE197:
 1521              	.LBE209:
 179:../Algorithm/src/tracking.c **** 			}
 1522              	 .loc 1 179 0
 1523 06ae 089A     	 ldr r2,[sp,#32]
 1524              	.LBB210:
 1525              	.LBB198:
 1526              	.LBB137:
 387:../Algorithm/src/tracking.c **** 		}
 1527              	 .loc 1 387 0
 1528 06b0 C3F820A0 	 str r10,[r3,#32]
 1529              	.LBE137:
 1530              	.LBE198:
 1531              	.LBE210:
 179:../Algorithm/src/tracking.c **** 			}
 1532              	 .loc 1 179 0
 1533 06b4 0123     	 movs r3,#1
 1534 06b6 D8F80470 	 ldr r7,[r8,#4]
 1535 06ba 2BF80230 	 strh r3,[fp,r2]
 1536 06be DDE6     	 b .L33
 1537              	.LVL148:
 1538              	.L81:
 1539              	.LBB211:
 1540              	.LBB199:
 1541              	.LBB138:
 1542              	.LBB132:
 1543              	.LBB124:
 493:../Algorithm/src/tracking.c **** 	{
 1544              	 .loc 1 493 0
 1545 06c0 002B     	 cmp r3,#0
 1546 06c2 E0D0     	 beq .L84
 1547 06c4 4B1E     	 subs r3,r1,#1
 1548              	.LVL149:
 1549              	.LBB116:
 1550              	.LBB111:
 509:../Algorithm/src/tracking.c **** 			len = track_median_arr->median_filter_len-1;
 1551              	 .loc 1 509 0
 1552 06c6 0B2B     	 cmp r3,#11
 1553 06c8 00F25481 	 bhi .L257
 1554              	.LVL150:
 1555              	.LBB109:
 512:../Algorithm/src/tracking.c **** 		{
 1556              	 .loc 1 512 0
 1557 06cc 002B     	 cmp r3,#0
 1558 06ce 3FF4AAAE 	 beq .L90
 515:../Algorithm/src/tracking.c **** 
 1559              	 .loc 1 515 0
 1560 06d2 D068     	 ldr r0,[r2,#12]
 1561 06d4 1990     	 str r0,[sp,#100]
 512:../Algorithm/src/tracking.c **** 		{
 1562              	 .loc 1 512 0
 1563 06d6 012B     	 cmp r3,#1
 517:../Algorithm/src/tracking.c **** 
 1564              	 .loc 1 517 0
 1565 06d8 9060     	 str r0,[r2,#8]
 1566              	.LVL151:
 512:../Algorithm/src/tracking.c **** 		{
 1567              	 .loc 1 512 0
 1568 06da 00F04581 	 beq .L122
 515:../Algorithm/src/tracking.c **** 
 1569              	 .loc 1 515 0
 1570 06de 1069     	 ldr r0,[r2,#16]
 1571 06e0 1A90     	 str r0,[sp,#104]
 512:../Algorithm/src/tracking.c **** 		{
 1572              	 .loc 1 512 0
 1573 06e2 022B     	 cmp r3,#2
 517:../Algorithm/src/tracking.c **** 
 1574              	 .loc 1 517 0
 1575 06e4 D060     	 str r0,[r2,#12]
 1576              	.LVL152:
 512:../Algorithm/src/tracking.c **** 		{
 1577              	 .loc 1 512 0
 1578 06e6 00F03F81 	 beq .L122
 515:../Algorithm/src/tracking.c **** 
 1579              	 .loc 1 515 0
 1580 06ea 5069     	 ldr r0,[r2,#20]
 1581 06ec 1B90     	 str r0,[sp,#108]
 512:../Algorithm/src/tracking.c **** 		{
 1582              	 .loc 1 512 0
 1583 06ee 032B     	 cmp r3,#3
 517:../Algorithm/src/tracking.c **** 
 1584              	 .loc 1 517 0
 1585 06f0 1061     	 str r0,[r2,#16]
 1586              	.LVL153:
 512:../Algorithm/src/tracking.c **** 		{
 1587              	 .loc 1 512 0
 1588 06f2 0A93     	 str r3,[sp,#40]
 1589 06f4 7FF468AE 	 bne .L104
 1590 06f8 95E6     	 b .L90
 1591              	.LVL154:
 1592              	.L253:
 1593              	.LBE109:
 1594              	.LBE111:
 1595              	.LBE116:
 1596              	.LBE124:
 1597              	.LBE132:
 1598              	.LBE138:
 1599              	.LBB139:
 328:../Algorithm/src/tracking.c **** 
 1600              	 .loc 1 328 0
 1601 06fa 013B     	 subs r3,r3,#1
 1602 06fc 4821     	 movs r1,#72
 1603 06fe 11FB0931 	 smlabb r1,r1,r9,r3
 1604 0702 08EB8101 	 add r1,r8,r1,lsl#2
 330:../Algorithm/src/tracking.c **** 
 1605              	 .loc 1 330 0
 1606 0706 DAF81070 	 ldr r7,[r10,#16]
 1607 070a 4F62     	 str r7,[r1,#36]
 332:../Algorithm/src/tracking.c **** 
 1608              	 .loc 1 332 0
 1609 070c DAF81420 	 ldr r2,[r10,#20]
 1610 0710 4A66     	 str r2,[r1,#100]
 328:../Algorithm/src/tracking.c **** 
 1611              	 .loc 1 328 0
 1612 0712 1393     	 str r3,[sp,#76]
 334:../Algorithm/src/tracking.c **** 
 1613              	 .loc 1 334 0
 1614 0714 DAF81830 	 ldr r3,[r10,#24]
 1615 0718 C1F8A430 	 str r3,[r1,#164]
 336:../Algorithm/src/tracking.c **** 
 1616              	 .loc 1 336 0
 1617 071c DAF81C00 	 ldr r0,[r10,#28]
 1618 0720 C1F8E400 	 str r0,[r1,#228]
 340:../Algorithm/src/tracking.c **** 					track_ptr->rx2_angle_arg_re[idx], track_ptr->rx2_angle_arg_im[idx],track_ptr->d_phi, angle_off
 1619              	 .loc 1 340 0
 1620 0724 0090     	 str r0,[sp]
 1621              	.LBB140:
 1622              	.LBB141:
 490:../Algorithm/src/tracking.c **** 		track_median_arr->median_filter_len = MAX_MEDIAN_FILTER_LEN;
 1623              	 .loc 1 490 0
 1624 0726 DFF850C2 	 ldr ip,.L263
 1625              	.LBE141:
 1626              	.LBE140:
 340:../Algorithm/src/tracking.c **** 					track_ptr->rx2_angle_arg_re[idx], track_ptr->rx2_angle_arg_im[idx],track_ptr->d_phi, angle_off
 1627              	 .loc 1 340 0
 1628 072a D6F82401 	 ldr r0,[r6,#292]
 1629              	.LBB162:
 1630              	.LBB156:
 490:../Algorithm/src/tracking.c **** 		track_median_arr->median_filter_len = MAX_MEDIAN_FILTER_LEN;
 1631              	 .loc 1 490 0
 1632 072e CDF834C0 	 str ip,[sp,#52]
 1633              	.LBE156:
 1634              	.LBE162:
 332:../Algorithm/src/tracking.c **** 
 1635              	 .loc 1 332 0
 1636 0732 0C92     	 str r2,[sp,#48]
 334:../Algorithm/src/tracking.c **** 
 1637              	 .loc 1 334 0
 1638 0734 0A93     	 str r3,[sp,#40]
 340:../Algorithm/src/tracking.c **** 					track_ptr->rx2_angle_arg_re[idx], track_ptr->rx2_angle_arg_im[idx],track_ptr->d_phi, angle_off
 1639              	 .loc 1 340 0
 1640 0736 FFF7FEFF 	 bl __aeabi_f2d
 1641              	.LVL155:
 1642 073a BDF924E0 	 ldrsh lr,[sp,#36]
 1643 073e 0A9B     	 ldr r3,[sp,#40]
 1644 0740 0C9A     	 ldr r2,[sp,#48]
 1645 0742 CDF810E0 	 str lr,[sp,#16]
 1646 0746 CDE90201 	 strd r0,[sp,#8]
 1647 074a CDED05CA 	 fsts s25,[sp,#20]
 1648 074e 3946     	 mov r1,r7
 1649 0750 14A8     	 add r0,sp,#80
 1650 0752 FFF7FEFF 	 bl compute_angle
 1651              	.LVL156:
 343:../Algorithm/src/tracking.c **** 			track_ptr->d_phi = T.d_phi;
 1652              	 .loc 1 343 0
 1653 0756 DDF858A0 	 ldr r10,[sp,#88]
 1654              	.LVL157:
 1655 075a C6F820A0 	 str r10,[r6,#32]
 344:../Algorithm/src/tracking.c **** 
 1656              	 .loc 1 344 0
 1657 075e DDE91401 	 ldrd r0,[sp,#80]
 1658 0762 FFF7FEFF 	 bl __aeabi_d2f
 1659              	.LVL158:
 1660              	.LBB163:
 1661              	.LBB157:
 490:../Algorithm/src/tracking.c **** 		track_median_arr->median_filter_len = MAX_MEDIAN_FILTER_LEN;
 1662              	 .loc 1 490 0
 1663 0766 4FEA0917 	 lsl r7,r9,#4
 1664 076a DDF834C0 	 ldr ip,[sp,#52]
 1665              	.LBE157:
 1666              	.LBE163:
 344:../Algorithm/src/tracking.c **** 
 1667              	 .loc 1 344 0
 1668 076e C6F82401 	 str r0,[r6,#292]
 1669              	.LVL159:
 1670              	.LBB164:
 1671              	.LBB158:
 490:../Algorithm/src/tracking.c **** 		track_median_arr->median_filter_len = MAX_MEDIAN_FILTER_LEN;
 1672              	 .loc 1 490 0
 1673 0772 C9EB0702 	 rsb r2,r9,r7
 1674 0776 0CEB8203 	 add r3,ip,r2,lsl#2
 493:../Algorithm/src/tracking.c **** 	{
 1675              	 .loc 1 493 0
 1676 077a 1CF82220 	 ldrb r2,[ip,r2,lsl#2]
 490:../Algorithm/src/tracking.c **** 		track_median_arr->median_filter_len = MAX_MEDIAN_FILTER_LEN;
 1677              	 .loc 1 490 0
 1678 077e 5968     	 ldr r1,[r3,#4]
 1679 0780 0D29     	 cmp r1,#13
 1680 0782 17D9     	 bls .L67
 491:../Algorithm/src/tracking.c **** 
 1681              	 .loc 1 491 0
 1682 0784 0D21     	 movs r1,#13
 1683 0786 5960     	 str r1,[r3,#4]
 493:../Algorithm/src/tracking.c **** 	{
 1684              	 .loc 1 493 0
 1685 0788 002A     	 cmp r2,#0
 1686 078a 00F0C480 	 beq .L68
 1687              	.LVL160:
 1688              	.L248:
 1689 078e 0C22     	 movs r2,#12
 1690              	.L69:
 1691              	.LVL161:
 1692              	.LBB142:
 1693              	.LBB143:
 1694              	.LBB144:
 515:../Algorithm/src/tracking.c **** 
 1695              	 .loc 1 515 0
 1696 0790 C9EB0703 	 rsb r3,r9,r7
 1697 0794 0CEB8303 	 add r3,ip,r3,lsl#2
 1698 0798 D3F80CE0 	 ldr lr,[r3,#12]
 1699 079c 1E69     	 ldr r6,[r3,#16]
 1700 079e 5869     	 ldr r0,[r3,#20]
 1701 07a0 CDF864E0 	 str lr,[sp,#100]
 517:../Algorithm/src/tracking.c **** 
 1702              	 .loc 1 517 0
 1703 07a4 C3F808E0 	 str lr,[r3,#8]
 1704              	.LVL162:
 515:../Algorithm/src/tracking.c **** 
 1705              	 .loc 1 515 0
 1706 07a8 1A96     	 str r6,[sp,#104]
 517:../Algorithm/src/tracking.c **** 
 1707              	 .loc 1 517 0
 1708 07aa DE60     	 str r6,[r3,#12]
 1709              	.LVL163:
 515:../Algorithm/src/tracking.c **** 
 1710              	 .loc 1 515 0
 1711 07ac 1B90     	 str r0,[sp,#108]
 517:../Algorithm/src/tracking.c **** 
 1712              	 .loc 1 517 0
 1713 07ae 1861     	 str r0,[r3,#16]
 1714              	.LVL164:
 1715              	.LBE144:
 508:../Algorithm/src/tracking.c **** 		if( len > track_median_arr->median_filter_len-1)
 1716              	 .loc 1 508 0
 1717 07b0 0C20     	 movs r0,#12
 1718 07b2 1CE0     	 b .L103
 1719              	.LVL165:
 1720              	.L67:
 1721              	.LBE143:
 1722              	.LBE142:
 493:../Algorithm/src/tracking.c **** 	{
 1723              	 .loc 1 493 0
 1724 07b4 002A     	 cmp r2,#0
 1725 07b6 00F0AB80 	 beq .L70
 1726 07ba 481E     	 subs r0,r1,#1
 1727              	.LVL166:
 1728              	.LBB151:
 1729              	.LBB148:
 509:../Algorithm/src/tracking.c **** 			len = track_median_arr->median_filter_len-1;
 1730              	 .loc 1 509 0
 1731 07bc 0B28     	 cmp r0,#11
 1732 07be 00F2D780 	 bhi .L247
 1733              	.LVL167:
 1734              	.LBB145:
 512:../Algorithm/src/tracking.c **** 		{
 1735              	 .loc 1 512 0
 1736 07c2 0028     	 cmp r0,#0
 1737 07c4 00F0C880 	 beq .L118
 515:../Algorithm/src/tracking.c **** 
 1738              	 .loc 1 515 0
 1739 07c8 DA68     	 ldr r2,[r3,#12]
 1740 07ca 1992     	 str r2,[sp,#100]
 512:../Algorithm/src/tracking.c **** 		{
 1741              	 .loc 1 512 0
 1742 07cc 0128     	 cmp r0,#1
 517:../Algorithm/src/tracking.c **** 
 1743              	 .loc 1 517 0
 1744 07ce 9A60     	 str r2,[r3,#8]
 1745              	.LVL168:
 512:../Algorithm/src/tracking.c **** 		{
 1746              	 .loc 1 512 0
 1747 07d0 00F0C280 	 beq .L118
 515:../Algorithm/src/tracking.c **** 
 1748              	 .loc 1 515 0
 1749 07d4 1A69     	 ldr r2,[r3,#16]
 1750 07d6 1A92     	 str r2,[sp,#104]
 512:../Algorithm/src/tracking.c **** 		{
 1751              	 .loc 1 512 0
 1752 07d8 0228     	 cmp r0,#2
 517:../Algorithm/src/tracking.c **** 
 1753              	 .loc 1 517 0
 1754 07da DA60     	 str r2,[r3,#12]
 1755              	.LVL169:
 512:../Algorithm/src/tracking.c **** 		{
 1756              	 .loc 1 512 0
 1757 07dc 00F0BC80 	 beq .L118
 515:../Algorithm/src/tracking.c **** 
 1758              	 .loc 1 515 0
 1759 07e0 5A69     	 ldr r2,[r3,#20]
 1760 07e2 1B92     	 str r2,[sp,#108]
 512:../Algorithm/src/tracking.c **** 		{
 1761              	 .loc 1 512 0
 1762 07e4 0328     	 cmp r0,#3
 517:../Algorithm/src/tracking.c **** 
 1763              	 .loc 1 517 0
 1764 07e6 1A61     	 str r2,[r3,#16]
 1765              	.LVL170:
 512:../Algorithm/src/tracking.c **** 		{
 1766              	 .loc 1 512 0
 1767 07e8 00F0C080 	 beq .L119
 1768 07ec 0246     	 mov r2,r0
 1769              	.LVL171:
 1770              	.L103:
 515:../Algorithm/src/tracking.c **** 
 1771              	 .loc 1 515 0
 1772 07ee C9EB0703 	 rsb r3,r9,r7
 1773 07f2 0CEB8303 	 add r3,ip,r3,lsl#2
 512:../Algorithm/src/tracking.c **** 		{
 1774              	 .loc 1 512 0
 1775 07f6 0428     	 cmp r0,#4
 515:../Algorithm/src/tracking.c **** 
 1776              	 .loc 1 515 0
 1777 07f8 9E69     	 ldr r6,[r3,#24]
 1778 07fa 1C96     	 str r6,[sp,#112]
 517:../Algorithm/src/tracking.c **** 
 1779              	 .loc 1 517 0
 1780 07fc 5E61     	 str r6,[r3,#20]
 1781              	.LVL172:
 512:../Algorithm/src/tracking.c **** 		{
 1782              	 .loc 1 512 0
 1783 07fe 25D0     	 beq .L76
 515:../Algorithm/src/tracking.c **** 
 1784              	 .loc 1 515 0
 1785 0800 DE69     	 ldr r6,[r3,#28]
 1786 0802 1D96     	 str r6,[sp,#116]
 512:../Algorithm/src/tracking.c **** 		{
 1787              	 .loc 1 512 0
 1788 0804 0528     	 cmp r0,#5
 517:../Algorithm/src/tracking.c **** 
 1789              	 .loc 1 517 0
 1790 0806 9E61     	 str r6,[r3,#24]
 1791              	.LVL173:
 512:../Algorithm/src/tracking.c **** 		{
 1792              	 .loc 1 512 0
 1793 0808 20D0     	 beq .L76
 515:../Algorithm/src/tracking.c **** 
 1794              	 .loc 1 515 0
 1795 080a 1E6A     	 ldr r6,[r3,#32]
 1796 080c 1E96     	 str r6,[sp,#120]
 512:../Algorithm/src/tracking.c **** 		{
 1797              	 .loc 1 512 0
 1798 080e 0628     	 cmp r0,#6
 517:../Algorithm/src/tracking.c **** 
 1799              	 .loc 1 517 0
 1800 0810 DE61     	 str r6,[r3,#28]
 1801              	.LVL174:
 512:../Algorithm/src/tracking.c **** 		{
 1802              	 .loc 1 512 0
 1803 0812 1BD0     	 beq .L76
 515:../Algorithm/src/tracking.c **** 
 1804              	 .loc 1 515 0
 1805 0814 5E6A     	 ldr r6,[r3,#36]
 1806 0816 1F96     	 str r6,[sp,#124]
 512:../Algorithm/src/tracking.c **** 		{
 1807              	 .loc 1 512 0
 1808 0818 0728     	 cmp r0,#7
 517:../Algorithm/src/tracking.c **** 
 1809              	 .loc 1 517 0
 1810 081a 1E62     	 str r6,[r3,#32]
 1811              	.LVL175:
 512:../Algorithm/src/tracking.c **** 		{
 1812              	 .loc 1 512 0
 1813 081c 16D0     	 beq .L76
 515:../Algorithm/src/tracking.c **** 
 1814              	 .loc 1 515 0
 1815 081e 9E6A     	 ldr r6,[r3,#40]
 1816 0820 2096     	 str r6,[sp,#128]
 512:../Algorithm/src/tracking.c **** 		{
 1817              	 .loc 1 512 0
 1818 0822 0828     	 cmp r0,#8
 517:../Algorithm/src/tracking.c **** 
 1819              	 .loc 1 517 0
 1820 0824 5E62     	 str r6,[r3,#36]
 1821              	.LVL176:
 512:../Algorithm/src/tracking.c **** 		{
 1822              	 .loc 1 512 0
 1823 0826 11D0     	 beq .L76
 515:../Algorithm/src/tracking.c **** 
 1824              	 .loc 1 515 0
 1825 0828 DE6A     	 ldr r6,[r3,#44]
 1826 082a 2196     	 str r6,[sp,#132]
 512:../Algorithm/src/tracking.c **** 		{
 1827              	 .loc 1 512 0
 1828 082c 0928     	 cmp r0,#9
 517:../Algorithm/src/tracking.c **** 
 1829              	 .loc 1 517 0
 1830 082e 9E62     	 str r6,[r3,#40]
 1831              	.LVL177:
 512:../Algorithm/src/tracking.c **** 		{
 1832              	 .loc 1 512 0
 1833 0830 0CD0     	 beq .L76
 515:../Algorithm/src/tracking.c **** 
 1834              	 .loc 1 515 0
 1835 0832 1E6B     	 ldr r6,[r3,#48]
 1836 0834 2296     	 str r6,[sp,#136]
 512:../Algorithm/src/tracking.c **** 		{
 1837              	 .loc 1 512 0
 1838 0836 0A28     	 cmp r0,#10
 517:../Algorithm/src/tracking.c **** 
 1839              	 .loc 1 517 0
 1840 0838 DE62     	 str r6,[r3,#44]
 1841              	.LVL178:
 512:../Algorithm/src/tracking.c **** 		{
 1842              	 .loc 1 512 0
 1843 083a 07D0     	 beq .L76
 515:../Algorithm/src/tracking.c **** 
 1844              	 .loc 1 515 0
 1845 083c 5E6B     	 ldr r6,[r3,#52]
 1846 083e 2396     	 str r6,[sp,#140]
 512:../Algorithm/src/tracking.c **** 		{
 1847              	 .loc 1 512 0
 1848 0840 0C28     	 cmp r0,#12
 517:../Algorithm/src/tracking.c **** 
 1849              	 .loc 1 517 0
 1850 0842 1E63     	 str r6,[r3,#48]
 1851              	.LVL179:
 512:../Algorithm/src/tracking.c **** 		{
 1852              	 .loc 1 512 0
 1853 0844 02D1     	 bne .L76
 515:../Algorithm/src/tracking.c **** 
 1854              	 .loc 1 515 0
 1855 0846 986B     	 ldr r0,[r3,#56]
 1856              	.LVL180:
 1857 0848 2490     	 str r0,[sp,#144]
 517:../Algorithm/src/tracking.c **** 
 1858              	 .loc 1 517 0
 1859 084a 5863     	 str r0,[r3,#52]
 1860              	.LVL181:
 1861              	.L76:
 1862              	.LBE145:
 521:../Algorithm/src/tracking.c **** 
 1863              	 .loc 1 521 0
 1864 084c C9EB0706 	 rsb r6,r9,r7
 1865 0850 B318     	 adds r3,r6,r2
 523:../Algorithm/src/tracking.c **** 
 1866              	 .loc 1 523 0
 1867 0852 26A8     	 add r0,sp,#152
 1868 0854 00EB8207 	 add r7,r0,r2,lsl#2
 521:../Algorithm/src/tracking.c **** 
 1869              	 .loc 1 521 0
 1870 0858 0CEB8303 	 add r3,ip,r3,lsl#2
 1871 085c CDF824C0 	 str ip,[sp,#36]
 1872              	.LVL182:
 1873 0860 C3F808A0 	 str r10,[r3,#8]
 525:../Algorithm/src/tracking.c **** 
 1874              	 .loc 1 525 0
 1875 0864 19A8     	 add r0,sp,#100
 1876 0866 0422     	 movs r2,#4
 523:../Algorithm/src/tracking.c **** 
 1877              	 .loc 1 523 0
 1878 0868 47F834AC 	 str r10,[r7,#-52]
 1879 086c ECE5     	 b .L230
 1880              	.LVL183:
 1881              	.L252:
 1882              	.LBE148:
 1883              	.LBE151:
 1884              	.LBE158:
 1885              	.LBE164:
 1886              	.LBE139:
 1887              	.LBB168:
 307:../Algorithm/src/tracking.c **** 
 1888              	 .loc 1 307 0
 1889 086e DAF81070 	 ldr r7,[r10,#16]
 1890 0872 7762     	 str r7,[r6,#36]
 309:../Algorithm/src/tracking.c **** 
 1891              	 .loc 1 309 0
 1892 0874 DAF81420 	 ldr r2,[r10,#20]
 1893 0878 7266     	 str r2,[r6,#100]
 311:../Algorithm/src/tracking.c **** 
 1894              	 .loc 1 311 0
 1895 087a DAF81830 	 ldr r3,[r10,#24]
 1896 087e C6F8A430 	 str r3,[r6,#164]
 313:../Algorithm/src/tracking.c **** 
 1897              	 .loc 1 313 0
 1898 0882 DAF81C10 	 ldr r1,[r10,#28]
 1899 0886 C6F8E410 	 str r1,[r6,#228]
 317:../Algorithm/src/tracking.c **** 					track_ptr->rx2_angle_arg_re[0], track_ptr->rx2_angle_arg_im[0],track_ptr->d_phi, angle_offset_
 1900              	 .loc 1 317 0
 1901 088a 0091     	 str r1,[sp]
 1902              	.LBB169:
 1903              	.LBB170:
 490:../Algorithm/src/tracking.c **** 		track_median_arr->median_filter_len = MAX_MEDIAN_FILTER_LEN;
 1904              	 .loc 1 490 0
 1905 088c DFF8E8C0 	 ldr ip,.L263
 1906              	.LBE170:
 1907              	.LBE169:
 317:../Algorithm/src/tracking.c **** 					track_ptr->rx2_angle_arg_re[0], track_ptr->rx2_angle_arg_im[0],track_ptr->d_phi, angle_offset_
 1908              	 .loc 1 317 0
 1909 0890 D6F82401 	 ldr r0,[r6,#292]
 1910              	.LBB180:
 1911              	.LBB176:
 490:../Algorithm/src/tracking.c **** 		track_median_arr->median_filter_len = MAX_MEDIAN_FILTER_LEN;
 1912              	 .loc 1 490 0
 1913 0894 CDF834C0 	 str ip,[sp,#52]
 1914              	.LBE176:
 1915              	.LBE180:
 309:../Algorithm/src/tracking.c **** 
 1916              	 .loc 1 309 0
 1917 0898 0C92     	 str r2,[sp,#48]
 311:../Algorithm/src/tracking.c **** 
 1918              	 .loc 1 311 0
 1919 089a 0A93     	 str r3,[sp,#40]
 317:../Algorithm/src/tracking.c **** 					track_ptr->rx2_angle_arg_re[0], track_ptr->rx2_angle_arg_im[0],track_ptr->d_phi, angle_offset_
 1920              	 .loc 1 317 0
 1921 089c FFF7FEFF 	 bl __aeabi_f2d
 1922              	.LVL184:
 1923 08a0 BDF924E0 	 ldrsh lr,[sp,#36]
 1924 08a4 0A9B     	 ldr r3,[sp,#40]
 1925 08a6 0C9A     	 ldr r2,[sp,#48]
 1926 08a8 CDF810E0 	 str lr,[sp,#16]
 1927 08ac CDE90201 	 strd r0,[sp,#8]
 1928 08b0 CDED05CA 	 fsts s25,[sp,#20]
 1929 08b4 3946     	 mov r1,r7
 1930 08b6 14A8     	 add r0,sp,#80
 1931 08b8 FFF7FEFF 	 bl compute_angle
 1932              	.LVL185:
 320:../Algorithm/src/tracking.c **** 			track_ptr->d_phi = T.d_phi;
 1933              	 .loc 1 320 0
 1934 08bc DDF858A0 	 ldr r10,[sp,#88]
 1935              	.LVL186:
 1936 08c0 C6F820A0 	 str r10,[r6,#32]
 321:../Algorithm/src/tracking.c **** 
 1937              	 .loc 1 321 0
 1938 08c4 DDE91401 	 ldrd r0,[sp,#80]
 1939 08c8 FFF7FEFF 	 bl __aeabi_d2f
 1940              	.LVL187:
 1941              	.LBB181:
 1942              	.LBB177:
 490:../Algorithm/src/tracking.c **** 		track_median_arr->median_filter_len = MAX_MEDIAN_FILTER_LEN;
 1943              	 .loc 1 490 0
 1944 08cc 4FEA0917 	 lsl r7,r9,#4
 1945 08d0 DDF834C0 	 ldr ip,[sp,#52]
 1946              	.LBE177:
 1947              	.LBE181:
 321:../Algorithm/src/tracking.c **** 
 1948              	 .loc 1 321 0
 1949 08d4 C6F82401 	 str r0,[r6,#292]
 1950              	.LVL188:
 1951              	.LBB182:
 1952              	.LBB178:
 490:../Algorithm/src/tracking.c **** 		track_median_arr->median_filter_len = MAX_MEDIAN_FILTER_LEN;
 1953              	 .loc 1 490 0
 1954 08d8 C9EB0702 	 rsb r2,r9,r7
 1955 08dc 0CEB8203 	 add r3,ip,r2,lsl#2
 493:../Algorithm/src/tracking.c **** 	{
 1956              	 .loc 1 493 0
 1957 08e0 1CF82220 	 ldrb r2,[ip,r2,lsl#2]
 490:../Algorithm/src/tracking.c **** 		track_median_arr->median_filter_len = MAX_MEDIAN_FILTER_LEN;
 1958              	 .loc 1 490 0
 1959 08e4 5968     	 ldr r1,[r3,#4]
 1960 08e6 0D29     	 cmp r1,#13
 1961 08e8 03D9     	 bls .L55
 491:../Algorithm/src/tracking.c **** 
 1962              	 .loc 1 491 0
 1963 08ea 0D21     	 movs r1,#13
 1964 08ec 5960     	 str r1,[r3,#4]
 493:../Algorithm/src/tracking.c **** 	{
 1965              	 .loc 1 493 0
 1966 08ee 22B1     	 cbz r2,.L56
 1967 08f0 4DE7     	 b .L248
 1968              	.L55:
 1969 08f2 DAB9     	 cbnz r2,.L258
 1970              	.LVL189:
 1971              	.LBB171:
 495:../Algorithm/src/tracking.c **** 		{
 1972              	 .loc 1 495 0
 1973 08f4 0029     	 cmp r1,#0
 1974 08f6 3FF4D1AE 	 beq .L88
 1975              	.LVL190:
 1976              	.L56:
 1977 08fa 3C22     	 movs r2,#60
 1978 08fc 02FB09C2 	 mla r2,r2,r9,ip
 1979 0900 0832     	 adds r2,r2,#8
 1980              	.LBE171:
 493:../Algorithm/src/tracking.c **** 	{
 1981              	 .loc 1 493 0
 1982 0902 0023     	 movs r3,#0
 1983              	.LVL191:
 1984              	.L61:
 1985              	.LBB172:
 495:../Algorithm/src/tracking.c **** 		{
 1986              	 .loc 1 495 0
 1987 0904 0133     	 adds r3,r3,#1
 1988              	.LVL192:
 1989 0906 8B42     	 cmp r3,r1
 497:../Algorithm/src/tracking.c **** 		}
 1990              	 .loc 1 497 0
 1991 0908 42F804AB 	 str r10,[r2],#4
 495:../Algorithm/src/tracking.c **** 		{
 1992              	 .loc 1 495 0
 1993 090c FAD3     	 bcc .L61
 1994 090e C5E6     	 b .L88
 1995              	.LVL193:
 1996              	.L70:
 1997              	.LBE172:
 1998              	.LBE178:
 1999              	.LBE182:
 2000              	.LBE168:
 2001              	.LBB184:
 2002              	.LBB165:
 2003              	.LBB159:
 2004              	.LBB152:
 2005 0910 0029     	 cmp r1,#0
 2006 0912 3FF4C3AE 	 beq .L88
 2007              	.LVL194:
 2008              	.L68:
 2009 0916 3C22     	 movs r2,#60
 2010 0918 02FB09C2 	 mla r2,r2,r9,ip
 2011 091c 0832     	 adds r2,r2,#8
 2012              	.LBE152:
 493:../Algorithm/src/tracking.c **** 	{
 2013              	 .loc 1 493 0
 2014 091e 0023     	 movs r3,#0
 2015              	.LVL195:
 2016              	.L73:
 2017              	.LBB153:
 495:../Algorithm/src/tracking.c **** 		{
 2018              	 .loc 1 495 0
 2019 0920 0133     	 adds r3,r3,#1
 2020              	.LVL196:
 2021 0922 8B42     	 cmp r3,r1
 497:../Algorithm/src/tracking.c **** 		}
 2022              	 .loc 1 497 0
 2023 0924 42F804AB 	 str r10,[r2],#4
 495:../Algorithm/src/tracking.c **** 		{
 2024              	 .loc 1 495 0
 2025 0928 FAD3     	 bcc .L73
 2026 092a B7E6     	 b .L88
 2027              	.LVL197:
 2028              	.L258:
 2029 092c 481E     	 subs r0,r1,#1
 2030              	.LVL198:
 2031              	.LBE153:
 2032              	.LBE159:
 2033              	.LBE165:
 2034              	.LBE184:
 2035              	.LBB185:
 2036              	.LBB183:
 2037              	.LBB179:
 2038              	.LBB173:
 2039              	.LBB174:
 509:../Algorithm/src/tracking.c **** 			len = track_median_arr->median_filter_len-1;
 2040              	 .loc 1 509 0
 2041 092e 0B28     	 cmp r0,#11
 2042 0930 1ED8     	 bhi .L247
 2043              	.LVL199:
 2044              	.LBB175:
 512:../Algorithm/src/tracking.c **** 		{
 2045              	 .loc 1 512 0
 2046 0932 88B1     	 cbz r0,.L118
 515:../Algorithm/src/tracking.c **** 
 2047              	 .loc 1 515 0
 2048 0934 DA68     	 ldr r2,[r3,#12]
 2049 0936 1992     	 str r2,[sp,#100]
 512:../Algorithm/src/tracking.c **** 		{
 2050              	 .loc 1 512 0
 2051 0938 0128     	 cmp r0,#1
 517:../Algorithm/src/tracking.c **** 
 2052              	 .loc 1 517 0
 2053 093a 9A60     	 str r2,[r3,#8]
 2054              	.LVL200:
 512:../Algorithm/src/tracking.c **** 		{
 2055              	 .loc 1 512 0
 2056 093c 0CD0     	 beq .L118
 515:../Algorithm/src/tracking.c **** 
 2057              	 .loc 1 515 0
 2058 093e 1A69     	 ldr r2,[r3,#16]
 2059 0940 1A92     	 str r2,[sp,#104]
 512:../Algorithm/src/tracking.c **** 		{
 2060              	 .loc 1 512 0
 2061 0942 0228     	 cmp r0,#2
 517:../Algorithm/src/tracking.c **** 
 2062              	 .loc 1 517 0
 2063 0944 DA60     	 str r2,[r3,#12]
 2064              	.LVL201:
 512:../Algorithm/src/tracking.c **** 		{
 2065              	 .loc 1 512 0
 2066 0946 07D0     	 beq .L118
 515:../Algorithm/src/tracking.c **** 
 2067              	 .loc 1 515 0
 2068 0948 5A69     	 ldr r2,[r3,#20]
 2069 094a 1B92     	 str r2,[sp,#108]
 512:../Algorithm/src/tracking.c **** 		{
 2070              	 .loc 1 512 0
 2071 094c 0328     	 cmp r0,#3
 517:../Algorithm/src/tracking.c **** 
 2072              	 .loc 1 517 0
 2073 094e 1A61     	 str r2,[r3,#16]
 512:../Algorithm/src/tracking.c **** 		{
 2074              	 .loc 1 512 0
 2075 0950 0246     	 mov r2,r0
 2076              	.LVL202:
 2077 0952 7FF44CAF 	 bne .L103
 2078 0956 79E7     	 b .L76
 2079              	.LVL203:
 2080              	.L118:
 2081              	.LBE175:
 2082              	.LBE174:
 2083              	.LBE173:
 2084              	.LBE179:
 2085              	.LBE183:
 2086              	.LBE185:
 2087              	.LBB186:
 2088              	.LBB166:
 2089              	.LBB160:
 2090              	.LBB154:
 2091              	.LBB149:
 2092              	.LBB146:
 2093 0958 0246     	 mov r2,r0
 2094 095a 77E7     	 b .L76
 2095              	.LVL204:
 2096              	.L124:
 2097              	.LBE146:
 2098              	.LBE149:
 2099              	.LBE154:
 2100              	.LBE160:
 2101              	.LBE166:
 2102              	.LBE186:
 2103              	.LBE199:
 2104              	.LBE211:
 2105              	.LBE228:
 2106              	.LBB229:
 2107              	.LBB226:
 2108              	.LBB225:
 2109              	.LBB224:
 453:../Algorithm/src/tracking.c **** 	{
 2110              	 .loc 1 453 0
 2111 095c 0246     	 mov r2,r0
 2112 095e F4E5     	 b .L99
 2113              	.L255:
 455:../Algorithm/src/tracking.c **** 		{
 2114              	 .loc 1 455 0
 2115 0960 1A46     	 mov r2,r3
 2116 0962 F2E5     	 b .L99
 2117              	.LVL205:
 2118              	.L106:
 2119              	.LBE224:
 2120              	.LBE225:
 2121              	.LBE226:
 2122              	.LBE229:
 2123              	.LBE240:
 2124              	.LBB241:
 2125              	.LBB239:
 2126              	.LBB238:
 2127              	.LBB237:
 453:../Algorithm/src/tracking.c **** 	{
 2128              	 .loc 1 453 0
 2129 0964 0246     	 mov r2,r0
 2130 0966 78E6     	 b .L29
 2131              	.LVL206:
 2132              	.L122:
 2133              	.LBE237:
 2134              	.LBE238:
 2135              	.LBE239:
 2136              	.LBE241:
 2137              	.LBB242:
 2138              	.LBB230:
 2139              	.LBB212:
 2140              	.LBB200:
 2141              	.LBB187:
 2142              	.LBB133:
 2143              	.LBB125:
 2144              	.LBB117:
 2145              	.LBB112:
 2146              	.LBB110:
 512:../Algorithm/src/tracking.c **** 		{
 2147              	 .loc 1 512 0
 2148 0968 0A93     	 str r3,[sp,#40]
 2149 096a 5CE5     	 b .L90
 2150              	.LVL207:
 2151              	.L119:
 2152              	.LBE110:
 2153              	.LBE112:
 2154              	.LBE117:
 2155              	.LBE125:
 2156              	.LBE133:
 2157              	.LBE187:
 2158              	.LBB188:
 2159              	.LBB167:
 2160              	.LBB161:
 2161              	.LBB155:
 2162              	.LBB150:
 2163              	.LBB147:
 2164 096c 0322     	 movs r2,#3
 2165 096e 6DE7     	 b .L76
 2166              	.LVL208:
 2167              	.L247:
 2168              	.LBE147:
 509:../Algorithm/src/tracking.c **** 			len = track_median_arr->median_filter_len-1;
 2169              	 .loc 1 509 0
 2170 0970 0246     	 mov r2,r0
 2171 0972 0DE7     	 b .L69
 2172              	.LVL209:
 2173              	.L257:
 2174              	.LBE150:
 2175              	.LBE155:
 2176              	.LBE161:
 2177              	.LBE167:
 2178              	.LBE188:
 2179              	.LBB189:
 2180              	.LBB134:
 2181              	.LBB126:
 2182              	.LBB118:
 2183              	.LBB113:
 2184 0974 0A93     	 str r3,[sp,#40]
 2185 0976 19E5     	 b .L83
 2186              	.L264:
 2187              	 .align 2
 2188              	.L263:
 2189 0978 00000000 	 .word .LANCHOR0
 2190              	.LBE113:
 2191              	.LBE118:
 2192              	.LBE126:
 2193              	.LBE134:
 2194              	.LBE189:
 2195              	.LBE200:
 2196              	.LBE212:
 2197              	.LBE230:
 2198              	.LBE242:
 2199              	 .cfi_endproc
 2200              	.LFE470:
 2202 097c AFF30080 	 .section .text.median_filter_init,"ax",%progbits
 2203              	 .align 2
 2204              	 .global median_filter_init
 2205              	 .thumb
 2206              	 .thumb_func
 2208              	median_filter_init:
 2209              	.LFB477:
 528:../Algorithm/src/tracking.c **** 	}
 529:../Algorithm/src/tracking.c **** }
 530:../Algorithm/src/tracking.c **** 
 531:../Algorithm/src/tracking.c **** //===========================================================================
 532:../Algorithm/src/tracking.c **** 
 533:../Algorithm/src/tracking.c **** void median_filter_init( uint32_t median_filter_len )
 534:../Algorithm/src/tracking.c **** {
 2210              	 .loc 1 534 0
 2211              	 .cfi_startproc
 2212              	 
 2213              	 
 2214              	 
 2215              	.LVL210:
 2216 0000 0C28     	 cmp r0,#12
 2217              	.LBB243:
 535:../Algorithm/src/tracking.c **** 	for (uint32_t j = 0; j < sizeof(median_angle_arr)/sizeof(median_angle_arr[0]); j++)
 536:../Algorithm/src/tracking.c **** 	{
 537:../Algorithm/src/tracking.c **** 		median_angle_arr[j].is_full = 0;
 2218              	 .loc 1 537 0
 2219 0002 134B     	 ldr r3,.L268
 2220 0004 12D9     	 bls .L266
 2221 0006 0021     	 movs r1,#0
 538:../Algorithm/src/tracking.c **** 		median_angle_arr[j].median_filter_len = MAX_MEDIAN_FILTER_LEN;
 2222              	 .loc 1 538 0
 2223 0008 0D22     	 movs r2,#13
 537:../Algorithm/src/tracking.c **** 		median_angle_arr[j].median_filter_len = MAX_MEDIAN_FILTER_LEN;
 2224              	 .loc 1 537 0
 2225 000a 1970     	 strb r1,[r3]
 2226 000c 83F83C10 	 strb r1,[r3,#60]
 2227 0010 83F87810 	 strb r1,[r3,#120]
 2228 0014 83F8B410 	 strb r1,[r3,#180]
 2229 0018 83F8F010 	 strb r1,[r3,#240]
 2230              	 .loc 1 538 0
 2231 001c 5A60     	 str r2,[r3,#4]
 2232              	.LVL211:
 2233 001e 1A64     	 str r2,[r3,#64]
 2234              	.LVL212:
 2235 0020 DA67     	 str r2,[r3,#124]
 2236              	.LVL213:
 2237 0022 C3F8B820 	 str r2,[r3,#184]
 2238              	.LVL214:
 2239 0026 C3F8F420 	 str r2,[r3,#244]
 2240              	.LVL215:
 2241 002a 7047     	 bx lr
 2242              	.LVL216:
 2243              	.L266:
 537:../Algorithm/src/tracking.c **** 		median_angle_arr[j].median_filter_len = MAX_MEDIAN_FILTER_LEN;
 2244              	 .loc 1 537 0
 2245 002c 0022     	 movs r2,#0
 539:../Algorithm/src/tracking.c **** 		if( median_filter_len < MAX_MEDIAN_FILTER_LEN)
 540:../Algorithm/src/tracking.c **** 			median_angle_arr[j].median_filter_len = median_filter_len;
 2246              	 .loc 1 540 0
 2247 002e 5860     	 str r0,[r3,#4]
 2248              	.LVL217:
 2249 0030 1864     	 str r0,[r3,#64]
 2250              	.LVL218:
 2251 0032 D867     	 str r0,[r3,#124]
 2252              	.LVL219:
 2253 0034 C3F8B800 	 str r0,[r3,#184]
 2254              	.LVL220:
 2255 0038 C3F8F400 	 str r0,[r3,#244]
 2256              	.LVL221:
 537:../Algorithm/src/tracking.c **** 		median_angle_arr[j].median_filter_len = MAX_MEDIAN_FILTER_LEN;
 2257              	 .loc 1 537 0
 2258 003c 1A70     	 strb r2,[r3]
 2259 003e 83F83C20 	 strb r2,[r3,#60]
 2260 0042 83F87820 	 strb r2,[r3,#120]
 2261 0046 83F8B420 	 strb r2,[r3,#180]
 2262 004a 83F8F020 	 strb r2,[r3,#240]
 2263 004e 7047     	 bx lr
 2264              	.L269:
 2265              	 .align 2
 2266              	.L268:
 2267 0050 00000000 	 .word .LANCHOR0
 2268              	.LBE243:
 2269              	 .cfi_endproc
 2270              	.LFE477:
 2272              	 .section .bss.rx_angle_fft_spectrum,"aw",%nobits
 2273              	 .align 2
 2274              	 .set .LANCHOR2,.+0
 2277              	rx_angle_fft_spectrum:
 2278 0000 00000000 	 .space 256
 2278      00000000 
 2278      00000000 
 2278      00000000 
 2278      00000000 
 2279              	 .section .bss.rx_angle_fft,"aw",%nobits
 2280              	 .align 2
 2281              	 .set .LANCHOR1,.+0
 2284              	rx_angle_fft:
 2285 0000 00000000 	 .space 512
 2285      00000000 
 2285      00000000 
 2285      00000000 
 2285      00000000 
 2286              	 .section .bss.median_angle_arr,"aw",%nobits
 2287              	 .align 2
 2288              	 .set .LANCHOR0,.+0
 2291              	median_angle_arr:
 2292 0000 00000000 	 .space 300
 2292      00000000 
 2292      00000000 
 2292      00000000 
 2292      00000000 
 2293              	 .text
 2294              	.Letext0:
 2295              	 .file 2 "c:\\infineon\\tools\\dave ide\\4.5.0.202105191637\\eclipse\\arm-gcc-49\\lib\\gcc\\arm-none-eabi\\4.9.3\\include\\stddef.h"
 2296              	 .file 3 "c:\\infineon\\tools\\dave ide\\4.5.0.202105191637\\eclipse\\arm-gcc-49\\arm-none-eabi\\include\\machine\\_default_types.h"
 2297              	 .file 4 "c:\\infineon\\tools\\dave ide\\4.5.0.202105191637\\eclipse\\arm-gcc-49\\arm-none-eabi\\include\\stdlib.h"
 2298              	 .file 5 "c:\\infineon\\tools\\dave ide\\4.5.0.202105191637\\eclipse\\arm-gcc-49\\arm-none-eabi\\include\\stdint.h"
 2299              	 .file 6 "E:/NOVA/Assets/IFX_P2G-HW-SW_V1.0.4/Firmware_Software/DAVE project/P2G_FW/Store/inc/datastore.h"
 2300              	 .file 7 "E:/NOVA/Assets/IFX_P2G-HW-SW_V1.0.4/Firmware_Software/DAVE project/P2G_FMCW/Algorithm/inc/tracking.h"
 2301              	 .file 8 "E:/NOVA/Assets/IFX_P2G-HW-SW_V1.0.4/Firmware_Software/DAVE project/P2G_FMCW/Libraries/CMSIS/Infineon/XMC4700_series/Include/XMC4700.h"
 2302              	 .file 9 "E:/NOVA/Assets/IFX_P2G-HW-SW_V1.0.4/Firmware_Software/DAVE project/P2G_FMCW/Libraries/XMCLib/inc/xmc_vadc.h"
 2303              	 .file 10 "E:/NOVA/Assets/IFX_P2G-HW-SW_V1.0.4/Firmware_Software/DAVE project/P2G_FW/Dave/Generated/CMSIS_DSP/arm_math.h"
 2304              	 .file 11 "E:/NOVA/Assets/IFX_P2G-HW-SW_V1.0.4/Firmware_Software/DAVE project/P2G_FMCW/Libraries/XMCLib/inc/xmc_usbd_regs.h"
 2305              	 .file 12 "E:/NOVA/Assets/IFX_P2G-HW-SW_V1.0.4/Firmware_Software/DAVE project/P2G_FMCW/Libraries/XMCLib/inc/xmc_usbd.h"
 2306              	 .file 13 "E:/NOVA/Assets/IFX_P2G-HW-SW_V1.0.4/Firmware_Software/DAVE project/P2G_FW/Dave/Generated/USBD/usbd.h"
 2307              	 .file 14 "E:/NOVA/Assets/IFX_P2G-HW-SW_V1.0.4/Firmware_Software/DAVE project/P2G_FW/DSP_LIB/inc/dsp_lib.h"
 2308              	 .file 15 "E:/NOVA/Assets/IFX_P2G-HW-SW_V1.0.4/Firmware_Software/DAVE project/P2G_FMCW/Libraries/CMSIS/Include/core_cm4.h"
 2309              	 .file 16 "E:/NOVA/Assets/IFX_P2G-HW-SW_V1.0.4/Firmware_Software/DAVE project/P2G_FMCW/Libraries/CMSIS/Infineon/XMC4700_series/Include/system_XMC4700.h"
 2310              	 .file 17 "E:/NOVA/Assets/IFX_P2G-HW-SW_V1.0.4/Firmware_Software/DAVE project/P2G_FW/Dave/Generated/ADC_MEASUREMENT_ADV/adc_measurement_adv.h"
 2311              	 .file 18 "E:/NOVA/Assets/IFX_P2G-HW-SW_V1.0.4/Firmware_Software/DAVE project/P2G_FW/Dave/Generated/USBD/usbd_extern.h"