   1              	 .syntax unified
   2              	 .cpu cortex-m4
   3              	 .eabi_attribute 27,3
   4              	 .fpu fpv4-sp-d16
   5              	 .eabi_attribute 20,1
   6              	 .eabi_attribute 21,1
   7              	 .eabi_attribute 23,3
   8              	 .eabi_attribute 24,1
   9              	 .eabi_attribute 25,1
  10              	 .eabi_attribute 26,1
  11              	 .eabi_attribute 30,2
  12              	 .eabi_attribute 34,1
  13              	 .eabi_attribute 18,4
  14              	 .thumb
  15              	 .file "event_generator.c"
  16              	 .text
  17              	.Ltext0:
  18              	 .cfi_sections .debug_frame
  19              	 .section .text.EVENT_GENERATOR_GetAppVersion,"ax",%progbits
  20              	 .align 2
  21              	 .global EVENT_GENERATOR_GetAppVersion
  22              	 .thumb
  23              	 .thumb_func
  25              	EVENT_GENERATOR_GetAppVersion:
  26              	.LFB167:
  27              	 .file 1 "../Dave/Generated/EVENT_GENERATOR/event_generator.c"
   1:../Dave/Generated/EVENT_GENERATOR/event_generator.c **** /**
   2:../Dave/Generated/EVENT_GENERATOR/event_generator.c ****  * @file event_generator.c
   3:../Dave/Generated/EVENT_GENERATOR/event_generator.c ****  * @date 2015-12-18
   4:../Dave/Generated/EVENT_GENERATOR/event_generator.c ****  *
   5:../Dave/Generated/EVENT_GENERATOR/event_generator.c ****  * NOTE:
   6:../Dave/Generated/EVENT_GENERATOR/event_generator.c ****  * This file is generated by DAVE. Any manual modification done to this file will be lost when the 
   7:../Dave/Generated/EVENT_GENERATOR/event_generator.c ****  *
   8:../Dave/Generated/EVENT_GENERATOR/event_generator.c ****  * @cond
   9:../Dave/Generated/EVENT_GENERATOR/event_generator.c ****  **************************************************************************************************
  10:../Dave/Generated/EVENT_GENERATOR/event_generator.c ****  * EVENT_GENERATOR v4.1.14 - Configures the properties of ERU_OGU peripheral instance
  11:../Dave/Generated/EVENT_GENERATOR/event_generator.c ****  *
  12:../Dave/Generated/EVENT_GENERATOR/event_generator.c ****  * Copyright (c) 2015, Infineon Technologies AG
  13:../Dave/Generated/EVENT_GENERATOR/event_generator.c ****  * All rights reserved.
  14:../Dave/Generated/EVENT_GENERATOR/event_generator.c ****  *
  15:../Dave/Generated/EVENT_GENERATOR/event_generator.c ****  * Redistribution and use in source and binary forms, with or without modification,are permitted pr
  16:../Dave/Generated/EVENT_GENERATOR/event_generator.c ****  * following conditions are met:
  17:../Dave/Generated/EVENT_GENERATOR/event_generator.c ****  *
  18:../Dave/Generated/EVENT_GENERATOR/event_generator.c ****  *   Redistributions of source code must retain the above copyright notice, this list of conditions
  19:../Dave/Generated/EVENT_GENERATOR/event_generator.c ****  *   disclaimer.
  20:../Dave/Generated/EVENT_GENERATOR/event_generator.c ****  *
  21:../Dave/Generated/EVENT_GENERATOR/event_generator.c ****  *   Redistributions in binary form must reproduce the above copyright notice, this list of conditi
  22:../Dave/Generated/EVENT_GENERATOR/event_generator.c ****  *   following disclaimer in the documentation and/or other materials provided with the distributio
  23:../Dave/Generated/EVENT_GENERATOR/event_generator.c ****  *
  24:../Dave/Generated/EVENT_GENERATOR/event_generator.c ****  *   Neither the name of the copyright holders nor the names of its contributors may be used to end
  25:../Dave/Generated/EVENT_GENERATOR/event_generator.c ****  *   products derived from this software without specific prior written permission.
  26:../Dave/Generated/EVENT_GENERATOR/event_generator.c ****  *
  27:../Dave/Generated/EVENT_GENERATOR/event_generator.c ****  * THIS SOFTWARE IS PROVIDED BY THE COPYRIGHT HOLDERS AND CONTRIBUTORS "AS IS" AND ANY EXPRESS OR I
  28:../Dave/Generated/EVENT_GENERATOR/event_generator.c ****  * INCLUDING, BUT NOT LIMITED TO, THE IMPLIED WARRANTIES OF MERCHANTABILITY AND FITNESS FOR A PARTI
  29:../Dave/Generated/EVENT_GENERATOR/event_generator.c ****  * DISCLAIMED. IN NO EVENT SHALL THE COPYRIGHT HOLDER OR CONTRIBUTORS BE LIABLE  FOR ANY DIRECT, IN
  30:../Dave/Generated/EVENT_GENERATOR/event_generator.c ****  * SPECIAL, EXEMPLARY, OR CONSEQUENTIAL DAMAGES (INCLUDING, BUT NOT LIMITED TO, PROCUREMENT OF SUBS
  31:../Dave/Generated/EVENT_GENERATOR/event_generator.c ****  * SERVICES; LOSS OF USE, DATA, OR PROFITS; OR BUSINESS INTERRUPTION) HOWEVER CAUSED AND ON ANY THE
  32:../Dave/Generated/EVENT_GENERATOR/event_generator.c ****  * WHETHER IN CONTRACT, STRICT LIABILITY,OR TORT (INCLUDING NEGLIGENCE OR OTHERWISE) ARISING IN ANY
  33:../Dave/Generated/EVENT_GENERATOR/event_generator.c ****  * USE OF THIS SOFTWARE, EVEN IF ADVISED OF THE POSSIBILITY OF SUCH DAMAGE.
  34:../Dave/Generated/EVENT_GENERATOR/event_generator.c ****  *
  35:../Dave/Generated/EVENT_GENERATOR/event_generator.c ****  * To improve the quality of the software, users are encouraged to share modifications, enhancement
  36:../Dave/Generated/EVENT_GENERATOR/event_generator.c ****  * with Infineon Technologies AG (dave@infineon.com).
  37:../Dave/Generated/EVENT_GENERATOR/event_generator.c ****  **************************************************************************************************
  38:../Dave/Generated/EVENT_GENERATOR/event_generator.c ****  *
  39:../Dave/Generated/EVENT_GENERATOR/event_generator.c ****  * Change History
  40:../Dave/Generated/EVENT_GENERATOR/event_generator.c ****  * --------------
  41:../Dave/Generated/EVENT_GENERATOR/event_generator.c ****  *
  42:../Dave/Generated/EVENT_GENERATOR/event_generator.c ****  * 2015-02-16:
  43:../Dave/Generated/EVENT_GENERATOR/event_generator.c ****  *     - Initial version<br>
  44:../Dave/Generated/EVENT_GENERATOR/event_generator.c ****  *
  45:../Dave/Generated/EVENT_GENERATOR/event_generator.c ****  * 2015-05-08:
  46:../Dave/Generated/EVENT_GENERATOR/event_generator.c ****  *     - Guidelines updated<br>
  47:../Dave/Generated/EVENT_GENERATOR/event_generator.c ****  *
  48:../Dave/Generated/EVENT_GENERATOR/event_generator.c ****  * 2015-06-29:
  49:../Dave/Generated/EVENT_GENERATOR/event_generator.c ****  *     - Added XMC_SCU_INTERRUPT_EnableNmiRequest() call during APP initialization, to enable the p
  50:../Dave/Generated/EVENT_GENERATOR/event_generator.c ****  *       eru event as NMI.<br>
  51:../Dave/Generated/EVENT_GENERATOR/event_generator.c ****  *
  52:../Dave/Generated/EVENT_GENERATOR/event_generator.c ****  * 2015-09-30:
  53:../Dave/Generated/EVENT_GENERATOR/event_generator.c ****  *     - EVENT_GENERATOR_NMI_ENABLED is changed as  EVENT_GENERATOR_NMI_SUPPORTED.
  54:../Dave/Generated/EVENT_GENERATOR/event_generator.c ****  *
  55:../Dave/Generated/EVENT_GENERATOR/event_generator.c ****  * @endcond
  56:../Dave/Generated/EVENT_GENERATOR/event_generator.c ****  *
  57:../Dave/Generated/EVENT_GENERATOR/event_generator.c ****  */
  58:../Dave/Generated/EVENT_GENERATOR/event_generator.c **** /**************************************************************************************************
  59:../Dave/Generated/EVENT_GENERATOR/event_generator.c ****  * HEADER FILES
  60:../Dave/Generated/EVENT_GENERATOR/event_generator.c **** ***************************************************************************************************
  61:../Dave/Generated/EVENT_GENERATOR/event_generator.c **** #include "event_generator.h"
  62:../Dave/Generated/EVENT_GENERATOR/event_generator.c **** 
  63:../Dave/Generated/EVENT_GENERATOR/event_generator.c **** /**************************************************************************************************
  64:../Dave/Generated/EVENT_GENERATOR/event_generator.c ****  * MACROS
  65:../Dave/Generated/EVENT_GENERATOR/event_generator.c ****  **************************************************************************************************
  66:../Dave/Generated/EVENT_GENERATOR/event_generator.c **** /**************************************************************************************************
  67:../Dave/Generated/EVENT_GENERATOR/event_generator.c ****  * LOCAL DATA
  68:../Dave/Generated/EVENT_GENERATOR/event_generator.c ****  **************************************************************************************************
  69:../Dave/Generated/EVENT_GENERATOR/event_generator.c **** 
  70:../Dave/Generated/EVENT_GENERATOR/event_generator.c **** /**************************************************************************************************
  71:../Dave/Generated/EVENT_GENERATOR/event_generator.c ****  * LOCAL ROUTINES
  72:../Dave/Generated/EVENT_GENERATOR/event_generator.c ****  **************************************************************************************************
  73:../Dave/Generated/EVENT_GENERATOR/event_generator.c **** 
  74:../Dave/Generated/EVENT_GENERATOR/event_generator.c ****  /*************************************************************************************************
  75:../Dave/Generated/EVENT_GENERATOR/event_generator.c ****  * API IMPLEMENTATION
  76:../Dave/Generated/EVENT_GENERATOR/event_generator.c ****  **************************************************************************************************
  77:../Dave/Generated/EVENT_GENERATOR/event_generator.c **** /* Returns the version of the EVENT_GENERATOR APP. */
  78:../Dave/Generated/EVENT_GENERATOR/event_generator.c **** DAVE_APP_VERSION_t EVENT_GENERATOR_GetAppVersion(void)
  79:../Dave/Generated/EVENT_GENERATOR/event_generator.c **** {
  28              	 .loc 1 79 0
  29              	 .cfi_startproc
  30              	 
  31              	 
  32              	 
  33              	.LVL0:
  80:../Dave/Generated/EVENT_GENERATOR/event_generator.c ****   DAVE_APP_VERSION_t version;
  81:../Dave/Generated/EVENT_GENERATOR/event_generator.c **** 
  82:../Dave/Generated/EVENT_GENERATOR/event_generator.c ****   version.major = EVENT_GENERATOR_MAJOR_VERSION;
  83:../Dave/Generated/EVENT_GENERATOR/event_generator.c ****   version.minor = EVENT_GENERATOR_MINOR_VERSION;
  84:../Dave/Generated/EVENT_GENERATOR/event_generator.c ****   version.patch = EVENT_GENERATOR_PATCH_VERSION;
  85:../Dave/Generated/EVENT_GENERATOR/event_generator.c **** 
  86:../Dave/Generated/EVENT_GENERATOR/event_generator.c ****   return version;
  34              	 .loc 1 86 0
  35 0000 0423     	 movs r3,#4
  36 0002 0020     	 movs r0,#0
  37 0004 63F30700 	 bfi r0,r3,#0,#8
  38 0008 0123     	 movs r3,#1
  39 000a 63F30F20 	 bfi r0,r3,#8,#8
  40 000e 0E23     	 movs r3,#14
  41 0010 63F31740 	 bfi r0,r3,#16,#8
  79:../Dave/Generated/EVENT_GENERATOR/event_generator.c ****   DAVE_APP_VERSION_t version;
  42              	 .loc 1 79 0
  43 0014 82B0     	 sub sp,sp,#8
  44              	.LCFI0:
  45              	 .cfi_def_cfa_offset 8
  87:../Dave/Generated/EVENT_GENERATOR/event_generator.c **** }
  46              	 .loc 1 87 0
  47 0016 02B0     	 add sp,sp,#8
  48              	.LCFI1:
  49              	 .cfi_def_cfa_offset 0
  50              	 
  51 0018 7047     	 bx lr
  52              	 .cfi_endproc
  53              	.LFE167:
  55 001a 00BF     	 .section .text.EVENT_GENERATOR_Init,"ax",%progbits
  56              	 .align 2
  57              	 .global EVENT_GENERATOR_Init
  58              	 .thumb
  59              	 .thumb_func
  61              	EVENT_GENERATOR_Init:
  62              	.LFB168:
  88:../Dave/Generated/EVENT_GENERATOR/event_generator.c **** 
  89:../Dave/Generated/EVENT_GENERATOR/event_generator.c **** /*
  90:../Dave/Generated/EVENT_GENERATOR/event_generator.c ****  * This function Initializes a EVENT_GENERATOR APP instances based on user configuration.
  91:../Dave/Generated/EVENT_GENERATOR/event_generator.c ****  */
  92:../Dave/Generated/EVENT_GENERATOR/event_generator.c **** EVENT_GENERATOR_STATUS_t EVENT_GENERATOR_Init(EVENT_GENERATOR_t *const handle)
  93:../Dave/Generated/EVENT_GENERATOR/event_generator.c **** {
  63              	 .loc 1 93 0
  64              	 .cfi_startproc
  65              	 
  66              	 
  67              	.LVL1:
  94:../Dave/Generated/EVENT_GENERATOR/event_generator.c ****   /* Checking for null handle */
  95:../Dave/Generated/EVENT_GENERATOR/event_generator.c ****   XMC_ASSERT("EVENT_GENERATOR_Init:handle NULL" , (handle != NULL));
  96:../Dave/Generated/EVENT_GENERATOR/event_generator.c ****   
  97:../Dave/Generated/EVENT_GENERATOR/event_generator.c ****   /* Checking for initialization state of the instance */
  98:../Dave/Generated/EVENT_GENERATOR/event_generator.c ****   if (false == handle->init_status)
  68              	 .loc 1 98 0
  69 0000 437B     	 ldrb r3,[r0,#13]
  70 0002 0BB1     	 cbz r3,.L8
  99:../Dave/Generated/EVENT_GENERATOR/event_generator.c ****   {
 100:../Dave/Generated/EVENT_GENERATOR/event_generator.c ****     /* Hardware initialization based on UI */
 101:../Dave/Generated/EVENT_GENERATOR/event_generator.c ****     XMC_ERU_OGU_Init(handle->eru, handle->channel, handle->config);
 102:../Dave/Generated/EVENT_GENERATOR/event_generator.c ****     #if (EVENT_GENERATOR_NMI_SUPPORTED == 1U)
 103:../Dave/Generated/EVENT_GENERATOR/event_generator.c ****     /* Promote the eru event as NMI, Applicable only for XMC4000 devices */
 104:../Dave/Generated/EVENT_GENERATOR/event_generator.c ****     XMC_SCU_INTERRUPT_EnableNmiRequest(handle->nmi_eru_msk);
 105:../Dave/Generated/EVENT_GENERATOR/event_generator.c ****     #endif
 106:../Dave/Generated/EVENT_GENERATOR/event_generator.c ****     /* Update the init status of the instance */
 107:../Dave/Generated/EVENT_GENERATOR/event_generator.c ****     handle->init_status = true;
 108:../Dave/Generated/EVENT_GENERATOR/event_generator.c ****   }
 109:../Dave/Generated/EVENT_GENERATOR/event_generator.c ****   
 110:../Dave/Generated/EVENT_GENERATOR/event_generator.c ****   return EVENT_GENERATOR_STATUS_SUCCESS;
 111:../Dave/Generated/EVENT_GENERATOR/event_generator.c **** }
  71              	 .loc 1 111 0
  72 0004 0020     	 movs r0,#0
  73              	.LVL2:
  74 0006 7047     	 bx lr
  75              	.LVL3:
  76              	.L8:
  93:../Dave/Generated/EVENT_GENERATOR/event_generator.c ****   /* Checking for null handle */
  77              	 .loc 1 93 0
  78 0008 10B5     	 push {r4,lr}
  79              	.LCFI2:
  80              	 .cfi_def_cfa_offset 8
  81              	 .cfi_offset 4,-8
  82              	 .cfi_offset 14,-4
  83 000a 0446     	 mov r4,r0
 101:../Dave/Generated/EVENT_GENERATOR/event_generator.c ****     #if (EVENT_GENERATOR_NMI_SUPPORTED == 1U)
  84              	 .loc 1 101 0
  85 000c 0068     	 ldr r0,[r0]
  86              	.LVL4:
  87 000e 217B     	 ldrb r1,[r4,#12]
  88 0010 6268     	 ldr r2,[r4,#4]
  89 0012 FFF7FEFF 	 bl XMC_ERU_OGU_Init
  90              	.LVL5:
 104:../Dave/Generated/EVENT_GENERATOR/event_generator.c ****     #endif
  91              	 .loc 1 104 0
  92 0016 A068     	 ldr r0,[r4,#8]
  93 0018 FFF7FEFF 	 bl XMC_SCU_INTERRUPT_EnableNmiRequest
  94              	.LVL6:
 107:../Dave/Generated/EVENT_GENERATOR/event_generator.c ****   }
  95              	 .loc 1 107 0
  96 001c 0123     	 movs r3,#1
  97 001e 6373     	 strb r3,[r4,#13]
  98              	 .loc 1 111 0
  99 0020 0020     	 movs r0,#0
 100 0022 10BD     	 pop {r4,pc}
 101              	 .cfi_endproc
 102              	.LFE168:
 104              	 .text
 105              	.Letext0:
 106              	 .file 2 "c:\\infineon\\tools\\dave ide\\4.5.0.202105191637\\eclipse\\arm-gcc-49\\arm-none-eabi\\include\\machine\\_default_types.h"
 107              	 .file 3 "c:\\infineon\\tools\\dave ide\\4.5.0.202105191637\\eclipse\\arm-gcc-49\\arm-none-eabi\\include\\stdint.h"
 108              	 .file 4 "E:/NOVA/Assets/IFX_P2G-HW-SW_V1.0.4/Firmware_Software/DAVE project/P2G_FW/Libraries/XMCLib/inc/xmc_eru.h"
 109              	 .file 5 "E:/NOVA/Assets/IFX_P2G-HW-SW_V1.0.4/Firmware_Software/DAVE project/P2G_FW/Dave/Generated/DAVE_Common.h"
 110              	 .file 6 "../Dave/Generated/EVENT_GENERATOR/event_generator.h"
 111              	 .file 7 "E:/NOVA/Assets/IFX_P2G-HW-SW_V1.0.4/Firmware_Software/DAVE project/P2G_FW/Libraries/CMSIS/Include/core_cm4.h"
 112              	 .file 8 "E:/NOVA/Assets/IFX_P2G-HW-SW_V1.0.4/Firmware_Software/DAVE project/P2G_FW/Libraries/CMSIS/Infineon/XMC4700_series/Include/system_XMC4700.h"
 113              	 .file 9 "E:/NOVA/Assets/IFX_P2G-HW-SW_V1.0.4/Firmware_Software/DAVE project/P2G_FW/Libraries/XMCLib/inc/xmc4_scu.h"