   1              	 .syntax unified
   2              	 .cpu cortex-m4
   3              	 .eabi_attribute 27,3
   4              	 .fpu fpv4-sp-d16
   5              	 .eabi_attribute 20,1
   6              	 .eabi_attribute 21,1
   7              	 .eabi_attribute 23,3
   8              	 .eabi_attribute 24,1
   9              	 .eabi_attribute 25,1
  10              	 .eabi_attribute 26,1
  11              	 .eabi_attribute 30,2
  12              	 .eabi_attribute 34,1
  13              	 .eabi_attribute 18,4
  14              	 .thumb
  15              	 .file "event_detector.c"
  16              	 .text
  17              	.Ltext0:
  18              	 .cfi_sections .debug_frame
  19              	 .section .text.EVENT_DETECTOR_GetAppVersion,"ax",%progbits
  20              	 .align 2
  21              	 .global EVENT_DETECTOR_GetAppVersion
  22              	 .thumb
  23              	 .thumb_func
  25              	EVENT_DETECTOR_GetAppVersion:
  26              	.LFB135:
  27              	 .file 1 "../Dave/Generated/EVENT_DETECTOR/event_detector.c"
   1:../Dave/Generated/EVENT_DETECTOR/event_detector.c **** /**
   2:../Dave/Generated/EVENT_DETECTOR/event_detector.c ****  * @file event_detector.c
   3:../Dave/Generated/EVENT_DETECTOR/event_detector.c ****  * @date 2015-12-18
   4:../Dave/Generated/EVENT_DETECTOR/event_detector.c ****  *
   5:../Dave/Generated/EVENT_DETECTOR/event_detector.c ****  * NOTE:
   6:../Dave/Generated/EVENT_DETECTOR/event_detector.c ****  * This file is generated by DAVE. Any manual modification done to this file will be lost when the 
   7:../Dave/Generated/EVENT_DETECTOR/event_detector.c ****  *
   8:../Dave/Generated/EVENT_DETECTOR/event_detector.c ****  * @cond
   9:../Dave/Generated/EVENT_DETECTOR/event_detector.c ****  **************************************************************************************************
  10:../Dave/Generated/EVENT_DETECTOR/event_detector.c ****  * EVENT_DETECTOR v4.0.6 - Configures the properties of ERU_ERS and ERU_ETL peripheral instance.
  11:../Dave/Generated/EVENT_DETECTOR/event_detector.c ****  *
  12:../Dave/Generated/EVENT_DETECTOR/event_detector.c ****  * Copyright (c) 2015, Infineon Technologies AG
  13:../Dave/Generated/EVENT_DETECTOR/event_detector.c ****  * All rights reserved.
  14:../Dave/Generated/EVENT_DETECTOR/event_detector.c ****  *
  15:../Dave/Generated/EVENT_DETECTOR/event_detector.c ****  * Redistribution and use in source and binary forms, with or without modification,are permitted pr
  16:../Dave/Generated/EVENT_DETECTOR/event_detector.c ****  * following conditions are met:
  17:../Dave/Generated/EVENT_DETECTOR/event_detector.c ****  *
  18:../Dave/Generated/EVENT_DETECTOR/event_detector.c ****  *   Redistributions of source code must retain the above copyright notice, this list of conditions
  19:../Dave/Generated/EVENT_DETECTOR/event_detector.c ****  *   disclaimer.
  20:../Dave/Generated/EVENT_DETECTOR/event_detector.c ****  *
  21:../Dave/Generated/EVENT_DETECTOR/event_detector.c ****  *   Redistributions in binary form must reproduce the above copyright notice, this list of conditi
  22:../Dave/Generated/EVENT_DETECTOR/event_detector.c ****  *   following disclaimer in the documentation and/or other materials provided with the distributio
  23:../Dave/Generated/EVENT_DETECTOR/event_detector.c ****  *
  24:../Dave/Generated/EVENT_DETECTOR/event_detector.c ****  *   Neither the name of the copyright holders nor the names of its contributors may be used to end
  25:../Dave/Generated/EVENT_DETECTOR/event_detector.c ****  *   products derived from this software without specific prior written permission.
  26:../Dave/Generated/EVENT_DETECTOR/event_detector.c ****  *
  27:../Dave/Generated/EVENT_DETECTOR/event_detector.c ****  * THIS SOFTWARE IS PROVIDED BY THE COPYRIGHT HOLDERS AND CONTRIBUTORS "AS IS" AND ANY EXPRESS OR I
  28:../Dave/Generated/EVENT_DETECTOR/event_detector.c ****  * INCLUDING, BUT NOT LIMITED TO, THE IMPLIED WARRANTIES OF MERCHANTABILITY AND FITNESS FOR A PARTI
  29:../Dave/Generated/EVENT_DETECTOR/event_detector.c ****  * DISCLAIMED. IN NO EVENT SHALL THE COPYRIGHT HOLDER OR CONTRIBUTORS BE LIABLE  FOR ANY DIRECT, IN
  30:../Dave/Generated/EVENT_DETECTOR/event_detector.c ****  * SPECIAL, EXEMPLARY, OR CONSEQUENTIAL DAMAGES (INCLUDING, BUT NOT LIMITED TO, PROCUREMENT OF SUBS
  31:../Dave/Generated/EVENT_DETECTOR/event_detector.c ****  * SERVICES; LOSS OF USE, DATA, OR PROFITS; OR BUSINESS INTERRUPTION) HOWEVER CAUSED AND ON ANY THE
  32:../Dave/Generated/EVENT_DETECTOR/event_detector.c ****  * WHETHER IN CONTRACT, STRICT LIABILITY,OR TORT (INCLUDING NEGLIGENCE OR OTHERWISE) ARISING IN ANY
  33:../Dave/Generated/EVENT_DETECTOR/event_detector.c ****  * USE OF THIS SOFTWARE, EVEN IF ADVISED OF THE POSSIBILITY OF SUCH DAMAGE.
  34:../Dave/Generated/EVENT_DETECTOR/event_detector.c ****  *
  35:../Dave/Generated/EVENT_DETECTOR/event_detector.c ****  * To improve the quality of the software, users are encouraged to share modifications, enhancement
  36:../Dave/Generated/EVENT_DETECTOR/event_detector.c ****  * with Infineon Technologies AG (dave@infineon.com).
  37:../Dave/Generated/EVENT_DETECTOR/event_detector.c ****  **************************************************************************************************
  38:../Dave/Generated/EVENT_DETECTOR/event_detector.c ****  *
  39:../Dave/Generated/EVENT_DETECTOR/event_detector.c ****  * Change History
  40:../Dave/Generated/EVENT_DETECTOR/event_detector.c ****  * --------------
  41:../Dave/Generated/EVENT_DETECTOR/event_detector.c ****  *
  42:../Dave/Generated/EVENT_DETECTOR/event_detector.c ****  * 2015-02-16:
  43:../Dave/Generated/EVENT_DETECTOR/event_detector.c ****  *     - Initial version<br>
  44:../Dave/Generated/EVENT_DETECTOR/event_detector.c ****  *
  45:../Dave/Generated/EVENT_DETECTOR/event_detector.c ****  * 2015-05-08:
  46:../Dave/Generated/EVENT_DETECTOR/event_detector.c ****  *     - Guidelines updated<br>
  47:../Dave/Generated/EVENT_DETECTOR/event_detector.c ****  *
  48:../Dave/Generated/EVENT_DETECTOR/event_detector.c ****  * @endcond
  49:../Dave/Generated/EVENT_DETECTOR/event_detector.c ****  *
  50:../Dave/Generated/EVENT_DETECTOR/event_detector.c ****  */
  51:../Dave/Generated/EVENT_DETECTOR/event_detector.c **** /**************************************************************************************************
  52:../Dave/Generated/EVENT_DETECTOR/event_detector.c ****  * HEADER FILES
  53:../Dave/Generated/EVENT_DETECTOR/event_detector.c ****  **************************************************************************************************
  54:../Dave/Generated/EVENT_DETECTOR/event_detector.c **** #include "event_detector.h"
  55:../Dave/Generated/EVENT_DETECTOR/event_detector.c **** 
  56:../Dave/Generated/EVENT_DETECTOR/event_detector.c **** /**************************************************************************************************
  57:../Dave/Generated/EVENT_DETECTOR/event_detector.c ****  * MACROS
  58:../Dave/Generated/EVENT_DETECTOR/event_detector.c ****  **************************************************************************************************
  59:../Dave/Generated/EVENT_DETECTOR/event_detector.c **** 
  60:../Dave/Generated/EVENT_DETECTOR/event_detector.c **** /**************************************************************************************************
  61:../Dave/Generated/EVENT_DETECTOR/event_detector.c ****  * LOCAL DATA
  62:../Dave/Generated/EVENT_DETECTOR/event_detector.c ****  **************************************************************************************************
  63:../Dave/Generated/EVENT_DETECTOR/event_detector.c **** 
  64:../Dave/Generated/EVENT_DETECTOR/event_detector.c **** /**************************************************************************************************
  65:../Dave/Generated/EVENT_DETECTOR/event_detector.c ****  * LOCAL ROUTINES
  66:../Dave/Generated/EVENT_DETECTOR/event_detector.c ****  **************************************************************************************************
  67:../Dave/Generated/EVENT_DETECTOR/event_detector.c **** 
  68:../Dave/Generated/EVENT_DETECTOR/event_detector.c ****  /*************************************************************************************************
  69:../Dave/Generated/EVENT_DETECTOR/event_detector.c ****  * API IMPLEMENTATION
  70:../Dave/Generated/EVENT_DETECTOR/event_detector.c ****  **************************************************************************************************
  71:../Dave/Generated/EVENT_DETECTOR/event_detector.c **** /* Returns the version of the EVENT_DETECTOR APP. */
  72:../Dave/Generated/EVENT_DETECTOR/event_detector.c **** DAVE_APP_VERSION_t EVENT_DETECTOR_GetAppVersion(void)
  73:../Dave/Generated/EVENT_DETECTOR/event_detector.c **** {
  28              	 .loc 1 73 0
  29              	 .cfi_startproc
  30              	 
  31              	 
  32              	 
  33              	.LVL0:
  74:../Dave/Generated/EVENT_DETECTOR/event_detector.c ****   DAVE_APP_VERSION_t version;
  75:../Dave/Generated/EVENT_DETECTOR/event_detector.c **** 
  76:../Dave/Generated/EVENT_DETECTOR/event_detector.c ****   version.major = EVENT_DETECTOR_MAJOR_VERSION;
  77:../Dave/Generated/EVENT_DETECTOR/event_detector.c ****   version.minor = EVENT_DETECTOR_MINOR_VERSION;
  78:../Dave/Generated/EVENT_DETECTOR/event_detector.c ****   version.patch = EVENT_DETECTOR_PATCH_VERSION;
  79:../Dave/Generated/EVENT_DETECTOR/event_detector.c **** 
  80:../Dave/Generated/EVENT_DETECTOR/event_detector.c ****   return version;
  34              	 .loc 1 80 0
  35 0000 0023     	 movs r3,#0
  36 0002 1846     	 mov r0,r3
  37 0004 0422     	 movs r2,#4
  38 0006 62F30700 	 bfi r0,r2,#0,#8
  39 000a 63F30F20 	 bfi r0,r3,#8,#8
  40 000e 0623     	 movs r3,#6
  41 0010 63F31740 	 bfi r0,r3,#16,#8
  73:../Dave/Generated/EVENT_DETECTOR/event_detector.c ****   DAVE_APP_VERSION_t version;
  42              	 .loc 1 73 0
  43 0014 82B0     	 sub sp,sp,#8
  44              	.LCFI0:
  45              	 .cfi_def_cfa_offset 8
  81:../Dave/Generated/EVENT_DETECTOR/event_detector.c **** }
  46              	 .loc 1 81 0
  47 0016 02B0     	 add sp,sp,#8
  48              	.LCFI1:
  49              	 .cfi_def_cfa_offset 0
  50              	 
  51 0018 7047     	 bx lr
  52              	 .cfi_endproc
  53              	.LFE135:
  55 001a 00BF     	 .section .text.EVENT_DETECTOR_Init,"ax",%progbits
  56              	 .align 2
  57              	 .global EVENT_DETECTOR_Init
  58              	 .thumb
  59              	 .thumb_func
  61              	EVENT_DETECTOR_Init:
  62              	.LFB136:
  82:../Dave/Generated/EVENT_DETECTOR/event_detector.c **** 
  83:../Dave/Generated/EVENT_DETECTOR/event_detector.c **** /*
  84:../Dave/Generated/EVENT_DETECTOR/event_detector.c ****  * This function Initializes a EVENT_DETECTOR APP instances (ERSx+ETLx) based on user configuration
  85:../Dave/Generated/EVENT_DETECTOR/event_detector.c ****  */
  86:../Dave/Generated/EVENT_DETECTOR/event_detector.c **** EVENT_DETECTOR_STATUS_t EVENT_DETECTOR_Init(EVENT_DETECTOR_t *const handle)
  87:../Dave/Generated/EVENT_DETECTOR/event_detector.c **** {
  63              	 .loc 1 87 0
  64              	 .cfi_startproc
  65              	 
  66              	 
  67              	.LVL1:
  88:../Dave/Generated/EVENT_DETECTOR/event_detector.c ****   /* Checking for null handle */
  89:../Dave/Generated/EVENT_DETECTOR/event_detector.c ****   XMC_ASSERT("EVENT_DETECTOR_Init:handle NULL" , (handle != NULL));
  90:../Dave/Generated/EVENT_DETECTOR/event_detector.c **** 
  91:../Dave/Generated/EVENT_DETECTOR/event_detector.c ****   /* Checking for initialization state of the instance */
  92:../Dave/Generated/EVENT_DETECTOR/event_detector.c ****   if (false == handle->init_status)
  68              	 .loc 1 92 0
  69 0000 037B     	 ldrb r3,[r0,#12]
  70 0002 0BB1     	 cbz r3,.L8
  93:../Dave/Generated/EVENT_DETECTOR/event_detector.c ****   {
  94:../Dave/Generated/EVENT_DETECTOR/event_detector.c ****     /* Hardware initialization based on UI */
  95:../Dave/Generated/EVENT_DETECTOR/event_detector.c ****     XMC_ERU_ETL_Init(handle->eru, handle->channel, handle->config);
  96:../Dave/Generated/EVENT_DETECTOR/event_detector.c ****     /* Update the init status of the instance */
  97:../Dave/Generated/EVENT_DETECTOR/event_detector.c ****     handle->init_status = true;
  98:../Dave/Generated/EVENT_DETECTOR/event_detector.c ****   }
  99:../Dave/Generated/EVENT_DETECTOR/event_detector.c ****   
 100:../Dave/Generated/EVENT_DETECTOR/event_detector.c ****   return EVENT_DETECTOR_STATUS_SUCCESS;
 101:../Dave/Generated/EVENT_DETECTOR/event_detector.c **** }
  71              	 .loc 1 101 0
  72 0004 0020     	 movs r0,#0
  73              	.LVL2:
  74 0006 7047     	 bx lr
  75              	.LVL3:
  76              	.L8:
  87:../Dave/Generated/EVENT_DETECTOR/event_detector.c ****   /* Checking for null handle */
  77              	 .loc 1 87 0
  78 0008 10B5     	 push {r4,lr}
  79              	.LCFI2:
  80              	 .cfi_def_cfa_offset 8
  81              	 .cfi_offset 4,-8
  82              	 .cfi_offset 14,-4
  83 000a 0446     	 mov r4,r0
  95:../Dave/Generated/EVENT_DETECTOR/event_detector.c ****     /* Update the init status of the instance */
  84              	 .loc 1 95 0
  85 000c 0068     	 ldr r0,[r0]
  86              	.LVL4:
  87 000e 2179     	 ldrb r1,[r4,#4]
  88 0010 A268     	 ldr r2,[r4,#8]
  89 0012 FFF7FEFF 	 bl XMC_ERU_ETL_Init
  90              	.LVL5:
  97:../Dave/Generated/EVENT_DETECTOR/event_detector.c ****   }
  91              	 .loc 1 97 0
  92 0016 0123     	 movs r3,#1
  93 0018 2373     	 strb r3,[r4,#12]
  94              	 .loc 1 101 0
  95 001a 0020     	 movs r0,#0
  96 001c 10BD     	 pop {r4,pc}
  97              	 .cfi_endproc
  98              	.LFE136:
 100 001e 00BF     	 .text
 101              	.Letext0:
 102              	 .file 2 "c:\\infineon\\tools\\dave ide\\4.5.0.202105191637\\eclipse\\arm-gcc-49\\arm-none-eabi\\include\\machine\\_default_types.h"
 103              	 .file 3 "c:\\infineon\\tools\\dave ide\\4.5.0.202105191637\\eclipse\\arm-gcc-49\\arm-none-eabi\\include\\stdint.h"
 104              	 .file 4 "E:/NOVA/Assets/IFX_P2G-HW-SW_V1.0.4/Firmware_Software/DAVE project/P2G_FW/Libraries/XMCLib/inc/xmc_eru.h"
 105              	 .file 5 "E:/NOVA/Assets/IFX_P2G-HW-SW_V1.0.4/Firmware_Software/DAVE project/P2G_FW/Dave/Generated/DAVE_Common.h"
 106              	 .file 6 "../Dave/Generated/EVENT_DETECTOR/event_detector.h"
 107              	 .file 7 "E:/NOVA/Assets/IFX_P2G-HW-SW_V1.0.4/Firmware_Software/DAVE project/P2G_FW/Libraries/CMSIS/Include/core_cm4.h"