   1              	 .syntax unified
   2              	 .cpu cortex-m4
   3              	 .eabi_attribute 27,3
   4              	 .fpu fpv4-sp-d16
   5              	 .eabi_attribute 20,1
   6              	 .eabi_attribute 21,1
   7              	 .eabi_attribute 23,3
   8              	 .eabi_attribute 24,1
   9              	 .eabi_attribute 25,1
  10              	 .eabi_attribute 26,1
  11              	 .eabi_attribute 30,2
  12              	 .eabi_attribute 34,1
  13              	 .eabi_attribute 18,4
  14              	 .thumb
  15              	 .file "position2go_bsp.c"
  16              	 .text
  17              	.Ltext0:
  18              	 .cfi_sections .debug_frame
  19              	 .section .text.bsp_init,"ax",%progbits
  20              	 .align 2
  21              	 .global bsp_init
  22              	 .thumb
  23              	 .thumb_func
  25              	bsp_init:
  26              	.LFB470:
  27              	 .file 1 "../BSP/Position2Go/src/position2go_bsp.c"
   1:../BSP/Position2Go/src/position2go_bsp.c **** /**
   2:../BSP/Position2Go/src/position2go_bsp.c ****     @file: position2go_bsp.c
   3:../BSP/Position2Go/src/position2go_bsp.c **** 
   4:../BSP/Position2Go/src/position2go_bsp.c ****     @brief: This file provides a set of firmware functions to manage BGT24MTR1x,
   5:../BSP/Position2Go/src/position2go_bsp.c ****             LMX249x and PGA112 available on Position2Go board from Infineon.
   6:../BSP/Position2Go/src/position2go_bsp.c ****  */
   7:../BSP/Position2Go/src/position2go_bsp.c **** 
   8:../BSP/Position2Go/src/position2go_bsp.c **** /* ===========================================================================
   9:../BSP/Position2Go/src/position2go_bsp.c **** ** Copyright (C) 2018-2019 Infineon Technologies AG
  10:../BSP/Position2Go/src/position2go_bsp.c **** ** All rights reserved.
  11:../BSP/Position2Go/src/position2go_bsp.c **** ** ===========================================================================
  12:../BSP/Position2Go/src/position2go_bsp.c **** **
  13:../BSP/Position2Go/src/position2go_bsp.c **** ** ===========================================================================
  14:../BSP/Position2Go/src/position2go_bsp.c **** ** This document contains proprietary information of Infineon Technologies AG.
  15:../BSP/Position2Go/src/position2go_bsp.c **** ** Passing on and copying of this document, and communication of its contents
  16:../BSP/Position2Go/src/position2go_bsp.c **** ** is not permitted without Infineon's prior written authorization.
  17:../BSP/Position2Go/src/position2go_bsp.c **** ** ===========================================================================
  18:../BSP/Position2Go/src/position2go_bsp.c **** */
  19:../BSP/Position2Go/src/position2go_bsp.c **** 
  20:../BSP/Position2Go/src/position2go_bsp.c **** /*
  21:../BSP/Position2Go/src/position2go_bsp.c **** ==============================================================================
  22:../BSP/Position2Go/src/position2go_bsp.c ****    1. INCLUDE FILES
  23:../BSP/Position2Go/src/position2go_bsp.c **** ==============================================================================
  24:../BSP/Position2Go/src/position2go_bsp.c ****  */
  25:../BSP/Position2Go/src/position2go_bsp.c **** 
  26:../BSP/Position2Go/src/position2go_bsp.c **** #include "position2go_bsp.h"
  27:../BSP/Position2Go/src/position2go_bsp.c **** #include "radar_api.h"
  28:../BSP/Position2Go/src/position2go_bsp.c **** #include "radar_control.h"
  29:../BSP/Position2Go/src/position2go_bsp.c **** #include "datastore.h"
  30:../BSP/Position2Go/src/position2go_bsp.c **** #include "config.h"
  31:../BSP/Position2Go/src/position2go_bsp.c **** 
  32:../BSP/Position2Go/src/position2go_bsp.c **** /*
  33:../BSP/Position2Go/src/position2go_bsp.c **** ==============================================================================
  34:../BSP/Position2Go/src/position2go_bsp.c ****    2. DATA
  35:../BSP/Position2Go/src/position2go_bsp.c **** ==============================================================================
  36:../BSP/Position2Go/src/position2go_bsp.c ****  */
  37:../BSP/Position2Go/src/position2go_bsp.c **** 
  38:../BSP/Position2Go/src/position2go_bsp.c **** /**
  39:../BSP/Position2Go/src/position2go_bsp.c ****  * @brief Used to store the DMA source addresses.
  40:../BSP/Position2Go/src/position2go_bsp.c ****  */
  41:../BSP/Position2Go/src/position2go_bsp.c **** uint32_t* pDMA_src_I1 = NULL;
  42:../BSP/Position2Go/src/position2go_bsp.c **** uint32_t* pDMA_src_Q1 = NULL;
  43:../BSP/Position2Go/src/position2go_bsp.c **** uint32_t* pDMA_src_I2 = NULL;
  44:../BSP/Position2Go/src/position2go_bsp.c **** uint32_t* pDMA_src_Q2 = NULL;
  45:../BSP/Position2Go/src/position2go_bsp.c **** 
  46:../BSP/Position2Go/src/position2go_bsp.c **** /**
  47:../BSP/Position2Go/src/position2go_bsp.c ****  * @brief Used to store the DMA destination addresses.
  48:../BSP/Position2Go/src/position2go_bsp.c ****  */
  49:../BSP/Position2Go/src/position2go_bsp.c **** uint32_t* pDMA_dst_I1 = NULL;
  50:../BSP/Position2Go/src/position2go_bsp.c **** uint32_t* pDMA_dst_Q1 = NULL;
  51:../BSP/Position2Go/src/position2go_bsp.c **** uint32_t* pDMA_dst_I2 = NULL;
  52:../BSP/Position2Go/src/position2go_bsp.c **** uint32_t* pDMA_dst_Q2 = NULL;
  53:../BSP/Position2Go/src/position2go_bsp.c **** 
  54:../BSP/Position2Go/src/position2go_bsp.c **** extern const XMC_CCU4_SLICE_COMPARE_CONFIG_t CCU4_SLICE_CONFIG_ADC_TRIG_compare_config;
  55:../BSP/Position2Go/src/position2go_bsp.c **** 
  56:../BSP/Position2Go/src/position2go_bsp.c **** /**
  57:../BSP/Position2Go/src/position2go_bsp.c ****  * @brief The Radar duty cycle state enabled/disabled.
  58:../BSP/Position2Go/src/position2go_bsp.c ****  */
  59:../BSP/Position2Go/src/position2go_bsp.c **** static uint8_t bsp_duty_cycle_enable = DUTY_CYCLE_ENABLE;
  60:../BSP/Position2Go/src/position2go_bsp.c **** 
  61:../BSP/Position2Go/src/position2go_bsp.c **** /**
  62:../BSP/Position2Go/src/position2go_bsp.c ****  * @brief The frame count with current frame interval.
  63:../BSP/Position2Go/src/position2go_bsp.c ****  */
  64:../BSP/Position2Go/src/position2go_bsp.c **** static volatile uint16_t bsp_frame_counter = 0;
  65:../BSP/Position2Go/src/position2go_bsp.c **** 
  66:../BSP/Position2Go/src/position2go_bsp.c **** /**
  67:../BSP/Position2Go/src/position2go_bsp.c ****  * @brief The number of samples captured during each chirp, it holds the DMA block size per ADC cha
  68:../BSP/Position2Go/src/position2go_bsp.c ****  */
  69:../BSP/Position2Go/src/position2go_bsp.c **** static uint32_t bsp_num_samples_per_dma_transfer = 0;
  70:../BSP/Position2Go/src/position2go_bsp.c **** 
  71:../BSP/Position2Go/src/position2go_bsp.c **** /**
  72:../BSP/Position2Go/src/position2go_bsp.c ****  * @brief The current temperature info of BGT chip in C°.
  73:../BSP/Position2Go/src/position2go_bsp.c ****  */
  74:../BSP/Position2Go/src/position2go_bsp.c **** static float32_t bsp_bgt_temperature_C = 0;
  75:../BSP/Position2Go/src/position2go_bsp.c **** 
  76:../BSP/Position2Go/src/position2go_bsp.c **** /**
  77:../BSP/Position2Go/src/position2go_bsp.c ****  * @brief The current output power by BGT chip in dBm.
  78:../BSP/Position2Go/src/position2go_bsp.c ****  */
  79:../BSP/Position2Go/src/position2go_bsp.c **** static float32_t bsp_bgt_vout_tx_power_dBm = 0;
  80:../BSP/Position2Go/src/position2go_bsp.c **** 
  81:../BSP/Position2Go/src/position2go_bsp.c **** /**
  82:../BSP/Position2Go/src/position2go_bsp.c ****  * @brief This buffer is used to measure the current output power and temperature of BGT.
  83:../BSP/Position2Go/src/position2go_bsp.c ****  */
  84:../BSP/Position2Go/src/position2go_bsp.c **** static uint16_t bsp_bgt_ana_out[3];
  85:../BSP/Position2Go/src/position2go_bsp.c **** 
  86:../BSP/Position2Go/src/position2go_bsp.c **** /**
  87:../BSP/Position2Go/src/position2go_bsp.c ****  * @brief  Handle used to control all PLL settings.
  88:../BSP/Position2Go/src/position2go_bsp.c ****  */
  89:../BSP/Position2Go/src/position2go_bsp.c **** Lmx249x_Object_t  	Lmx249x_pll;
  90:../BSP/Position2Go/src/position2go_bsp.c **** void* pll_handle = &Lmx249x_pll;
  91:../BSP/Position2Go/src/position2go_bsp.c **** 
  92:../BSP/Position2Go/src/position2go_bsp.c **** /**
  93:../BSP/Position2Go/src/position2go_bsp.c ****  * \brief  Assign an ADC timer to CCU4 slice3, to trigger ADC at sampling period based on PLL trigg
  94:../BSP/Position2Go/src/position2go_bsp.c ****  *         Rising  edge of PLL output signal is used to start of ADC timer
  95:../BSP/Position2Go/src/position2go_bsp.c ****  *         Falling edge of PLL output signal is used to stop of ADC timer
  96:../BSP/Position2Go/src/position2go_bsp.c ****  *
  97:../BSP/Position2Go/src/position2go_bsp.c ****  */
  98:../BSP/Position2Go/src/position2go_bsp.c **** TIMER_t TIMER_ADC_TRIG =
  99:../BSP/Position2Go/src/position2go_bsp.c **** {
 100:../BSP/Position2Go/src/position2go_bsp.c ****   .ccu4_slice_ptr         = (XMC_CCU4_SLICE_t*) CCU43_CC43,
 101:../BSP/Position2Go/src/position2go_bsp.c ****   .ccu4_slice_number      = 3U,
 102:../BSP/Position2Go/src/position2go_bsp.c ****   .time_interval_value_us = 100000U,
 103:../BSP/Position2Go/src/position2go_bsp.c ****   .timer_max_value_us     = 1533893500U,
 104:../BSP/Position2Go/src/position2go_bsp.c ****   .timer_min_value_us     = 10U,
 105:../BSP/Position2Go/src/position2go_bsp.c ****   .global_ccu4_handler    = (GLOBAL_CCU4_t*)&GLOBAL_CCU4_0,
 106:../BSP/Position2Go/src/position2go_bsp.c ****   .ccu4_slice_config_ptr  = (XMC_CCU4_SLICE_COMPARE_CONFIG_t*)&CCU4_SLICE_CONFIG_ADC_TRIG_compare_c
 107:../BSP/Position2Go/src/position2go_bsp.c ****   .shadow_mask            = (uint32_t)((uint32_t)XMC_CCU4_SHADOW_TRANSFER_SLICE_3 |
 108:../BSP/Position2Go/src/position2go_bsp.c ****                                        (uint32_t)XMC_CCU4_SHADOW_TRANSFER_PRESCALER_SLICE_3),
 109:../BSP/Position2Go/src/position2go_bsp.c ****   .ccu4_period_match_node = XMC_CCU4_SLICE_SR_ID_3,
 110:../BSP/Position2Go/src/position2go_bsp.c ****   .timer_module           = TIMER_MODULE_CCU4,
 111:../BSP/Position2Go/src/position2go_bsp.c ****   .period_value           = 34999U,
 112:../BSP/Position2Go/src/position2go_bsp.c ****   .start_control          = false,
 113:../BSP/Position2Go/src/position2go_bsp.c ****   .period_match_enable    = true,
 114:../BSP/Position2Go/src/position2go_bsp.c ****   .initialized            = false
 115:../BSP/Position2Go/src/position2go_bsp.c **** };
 116:../BSP/Position2Go/src/position2go_bsp.c **** 
 117:../BSP/Position2Go/src/position2go_bsp.c **** /**
 118:../BSP/Position2Go/src/position2go_bsp.c ****  * @brief Global structure to store all data acquisition functions callback \ref Bsp_callback_Struc
 119:../BSP/Position2Go/src/position2go_bsp.c ****  */
 120:../BSP/Position2Go/src/position2go_bsp.c **** static Bsp_callback_Struct_t bsp_cb =
 121:../BSP/Position2Go/src/position2go_bsp.c **** {
 122:../BSP/Position2Go/src/position2go_bsp.c ****   .bsp_acq_started_cb = NULL,
 123:../BSP/Position2Go/src/position2go_bsp.c ****   .bsp_acq_done_cb = NULL
 124:../BSP/Position2Go/src/position2go_bsp.c **** };
 125:../BSP/Position2Go/src/position2go_bsp.c **** 
 126:../BSP/Position2Go/src/position2go_bsp.c **** /**
 127:../BSP/Position2Go/src/position2go_bsp.c ****  * @brief  The current watchdog status.
 128:../BSP/Position2Go/src/position2go_bsp.c ****  */
 129:../BSP/Position2Go/src/position2go_bsp.c **** static uint8_t watchdog_status = 0;
 130:../BSP/Position2Go/src/position2go_bsp.c **** 
 131:../BSP/Position2Go/src/position2go_bsp.c **** /**
 132:../BSP/Position2Go/src/position2go_bsp.c ****  * @brief  The current chrip counter.
 133:../BSP/Position2Go/src/position2go_bsp.c ****  */
 134:../BSP/Position2Go/src/position2go_bsp.c **** static uint32_t chirp_count = 0;
 135:../BSP/Position2Go/src/position2go_bsp.c **** 
 136:../BSP/Position2Go/src/position2go_bsp.c **** /*
 137:../BSP/Position2Go/src/position2go_bsp.c **** ==============================================================================
 138:../BSP/Position2Go/src/position2go_bsp.c ****    3. LOCAL FUNCTION PROTOTYPES
 139:../BSP/Position2Go/src/position2go_bsp.c **** ==============================================================================
 140:../BSP/Position2Go/src/position2go_bsp.c ****  */
 141:../BSP/Position2Go/src/position2go_bsp.c **** 
 142:../BSP/Position2Go/src/position2go_bsp.c **** /**
 143:../BSP/Position2Go/src/position2go_bsp.c ****  * \brief  This function is used to get the raw ADC data for Doppler or FMCW.
 144:../BSP/Position2Go/src/position2go_bsp.c ****  *
 145:../BSP/Position2Go/src/position2go_bsp.c ****  * This is called by \ref radar_get_frame() or by automatic trigger set by \ref radar_set_automatic
 146:../BSP/Position2Go/src/position2go_bsp.c ****  * First Doppler data is acquired and then afterwards FMCW data is acquired.
 147:../BSP/Position2Go/src/position2go_bsp.c ****  * It checks if ADC timer is stopped and the time interval for ADC timer for Doppler data acquisiti
 148:../BSP/Position2Go/src/position2go_bsp.c ****  */
 149:../BSP/Position2Go/src/position2go_bsp.c **** static void get_raw_data(void);
 150:../BSP/Position2Go/src/position2go_bsp.c **** 
 151:../BSP/Position2Go/src/position2go_bsp.c **** /**
 152:../BSP/Position2Go/src/position2go_bsp.c ****  * \brief  This function is called after data acquisition is finished to set global flags and put d
 153:../BSP/Position2Go/src/position2go_bsp.c ****  */
 154:../BSP/Position2Go/src/position2go_bsp.c **** static void done_sampling(void);
 155:../BSP/Position2Go/src/position2go_bsp.c **** 
 156:../BSP/Position2Go/src/position2go_bsp.c **** /**
 157:../BSP/Position2Go/src/position2go_bsp.c ****  * \brief  This function sets the block size for each DMA transfer according to the number of sampl
 158:../BSP/Position2Go/src/position2go_bsp.c ****  *
 159:../BSP/Position2Go/src/position2go_bsp.c ****  * \param[in]  block_size   If samples per chirp changes, then new block size in DMA
 160:../BSP/Position2Go/src/position2go_bsp.c ****  */
 161:../BSP/Position2Go/src/position2go_bsp.c **** static void dma_set_block_size(uint32_t block_size);
 162:../BSP/Position2Go/src/position2go_bsp.c **** 
 163:../BSP/Position2Go/src/position2go_bsp.c **** /**
 164:../BSP/Position2Go/src/position2go_bsp.c ****  * \brief  This function enables the DMA to get further DMA data transactions.
 165:../BSP/Position2Go/src/position2go_bsp.c ****  *         Need to call after reloading the DMA configurations.
 166:../BSP/Position2Go/src/position2go_bsp.c ****  */
 167:../BSP/Position2Go/src/position2go_bsp.c **** static void dma_enable(void);
 168:../BSP/Position2Go/src/position2go_bsp.c **** 
 169:../BSP/Position2Go/src/position2go_bsp.c **** /**
 170:../BSP/Position2Go/src/position2go_bsp.c ****  * \brief  This function disables the DMA to avoid further DMA data transactions.
 171:../BSP/Position2Go/src/position2go_bsp.c ****  *	   Need to call before reloading the DMA configurations or when data acquisition is finished.
 172:../BSP/Position2Go/src/position2go_bsp.c ****  */
 173:../BSP/Position2Go/src/position2go_bsp.c **** static void dma_disable(void);
 174:../BSP/Position2Go/src/position2go_bsp.c **** 
 175:../BSP/Position2Go/src/position2go_bsp.c **** /**
 176:../BSP/Position2Go/src/position2go_bsp.c ****  * \brief  This function resets the DMA channel DLR to kill the last over sampled sample.
 177:../BSP/Position2Go/src/position2go_bsp.c ****  */
 178:../BSP/Position2Go/src/position2go_bsp.c **** static void dma_reset_dlr(void);
 179:../BSP/Position2Go/src/position2go_bsp.c **** 
 180:../BSP/Position2Go/src/position2go_bsp.c **** /*
 181:../BSP/Position2Go/src/position2go_bsp.c **** ==============================================================================
 182:../BSP/Position2Go/src/position2go_bsp.c ****    4. EXPORTED FUNCTIONS
 183:../BSP/Position2Go/src/position2go_bsp.c **** ==============================================================================
 184:../BSP/Position2Go/src/position2go_bsp.c ****  */
 185:../BSP/Position2Go/src/position2go_bsp.c **** 
 186:../BSP/Position2Go/src/position2go_bsp.c **** uint8_t bsp_init(void)
 187:../BSP/Position2Go/src/position2go_bsp.c **** {
  28              	 .loc 1 187 0
  29              	 .cfi_startproc
  30              	 
  31              	 
  32 0000 2DE9F84F 	 push {r3,r4,r5,r6,r7,r8,r9,r10,fp,lr}
  33              	.LCFI0:
  34              	 .cfi_def_cfa_offset 40
  35              	 .cfi_offset 3,-40
  36              	 .cfi_offset 4,-36
  37              	 .cfi_offset 5,-32
  38              	 .cfi_offset 6,-28
  39              	 .cfi_offset 7,-24
  40              	 .cfi_offset 8,-20
  41              	 .cfi_offset 9,-16
  42              	 .cfi_offset 10,-12
  43              	 .cfi_offset 11,-8
  44              	 .cfi_offset 14,-4
  45              	.LBB168:
  46              	.LBB169:
 188:../BSP/Position2Go/src/position2go_bsp.c ****   Pga_Status_t status;
 189:../BSP/Position2Go/src/position2go_bsp.c ****   
 190:../BSP/Position2Go/src/position2go_bsp.c ****   /* Set all data acquisition functions callback to NULL */
 191:../BSP/Position2Go/src/position2go_bsp.c ****   bsp_cb.bsp_acq_started_cb = NULL;
 192:../BSP/Position2Go/src/position2go_bsp.c ****   bsp_cb.bsp_acq_done_cb = NULL;
 193:../BSP/Position2Go/src/position2go_bsp.c ****   
 194:../BSP/Position2Go/src/position2go_bsp.c **** #if (FW_MODULATION_TYPE == 0U) /* Doppler modulation */
 195:../BSP/Position2Go/src/position2go_bsp.c ****   bsp_timer_init();
 196:../BSP/Position2Go/src/position2go_bsp.c **** #endif
 197:../BSP/Position2Go/src/position2go_bsp.c ****   
 198:../BSP/Position2Go/src/position2go_bsp.c ****   /* Set memory sections to DMA source pointers */
 199:../BSP/Position2Go/src/position2go_bsp.c ****   bsp_dma_set_source_addr();
 200:../BSP/Position2Go/src/position2go_bsp.c ****   
 201:../BSP/Position2Go/src/position2go_bsp.c ****   /* Enable LDO for BGT */
 202:../BSP/Position2Go/src/position2go_bsp.c ****   bgt_ldo_enable();
 203:../BSP/Position2Go/src/position2go_bsp.c ****   bsp_time_delay_usec(1000U);
 204:../BSP/Position2Go/src/position2go_bsp.c ****   
 205:../BSP/Position2Go/src/position2go_bsp.c ****   /* Enable LDO for PGA */
 206:../BSP/Position2Go/src/position2go_bsp.c ****   pga_ldo_enable();
 207:../BSP/Position2Go/src/position2go_bsp.c ****   bsp_time_delay_usec(1000U);
 208:../BSP/Position2Go/src/position2go_bsp.c ****   
 209:../BSP/Position2Go/src/position2go_bsp.c ****   /* Power-up BGT */
 210:../BSP/Position2Go/src/position2go_bsp.c ****   bgt_power_up();
 211:../BSP/Position2Go/src/position2go_bsp.c ****   bsp_time_delay_usec(100U); /* Delay for BGT power-up */
 212:../BSP/Position2Go/src/position2go_bsp.c ****   
 213:../BSP/Position2Go/src/position2go_bsp.c ****   bgt_lowest_power_with_q2_disable(); /* To avoid out of band spurs */
 214:../BSP/Position2Go/src/position2go_bsp.c ****   bsp_time_delay_usec(50U); /* Delay for BGT Power down SPI settings */
 215:../BSP/Position2Go/src/position2go_bsp.c ****   
 216:../BSP/Position2Go/src/position2go_bsp.c ****   /* Enable PLL power supply */
 217:../BSP/Position2Go/src/position2go_bsp.c ****   pll_power_up();
 218:../BSP/Position2Go/src/position2go_bsp.c ****   bsp_time_delay_usec(100U); /* Delay for PLL power-up */
 219:../BSP/Position2Go/src/position2go_bsp.c ****   
 220:../BSP/Position2Go/src/position2go_bsp.c ****   /* Initialize BGT */
 221:../BSP/Position2Go/src/position2go_bsp.c ****   bgt_init(LNA_GAIN_ENABLE, BGT_TX_POWER);
 222:../BSP/Position2Go/src/position2go_bsp.c ****   
 223:../BSP/Position2Go/src/position2go_bsp.c ****   /* Initialize PLL */
 224:../BSP/Position2Go/src/position2go_bsp.c ****   pll_init(pll_handle);
 225:../BSP/Position2Go/src/position2go_bsp.c ****   bsp_time_delay_usec(100U);
 226:../BSP/Position2Go/src/position2go_bsp.c ****   
 227:../BSP/Position2Go/src/position2go_bsp.c ****   /* Update PLL configuration */
 228:../BSP/Position2Go/src/position2go_bsp.c **** #if (FW_MODULATION_TYPE == 0U) /* Doppler modulation */
 229:../BSP/Position2Go/src/position2go_bsp.c ****   pll_update_configuration(pll_handle, DOPPLER_MODULATION);
 230:../BSP/Position2Go/src/position2go_bsp.c ****   
 231:../BSP/Position2Go/src/position2go_bsp.c **** #elif (FW_MODULATION_TYPE == 1U) /* FMCW modulation */
 232:../BSP/Position2Go/src/position2go_bsp.c ****   pll_update_configuration(pll_handle, FMCW_MODULATION);
 233:../BSP/Position2Go/src/position2go_bsp.c **** #endif
 234:../BSP/Position2Go/src/position2go_bsp.c ****   
 235:../BSP/Position2Go/src/position2go_bsp.c ****   bsp_time_delay_usec(100U);
 236:../BSP/Position2Go/src/position2go_bsp.c ****   
 237:../BSP/Position2Go/src/position2go_bsp.c ****   /* Initialize PGA and set its gain */
 238:../BSP/Position2Go/src/position2go_bsp.c ****   status = pga_init(PGA_GAIN);
 239:../BSP/Position2Go/src/position2go_bsp.c ****   bsp_time_delay_usec(50U);
 240:../BSP/Position2Go/src/position2go_bsp.c ****   
 241:../BSP/Position2Go/src/position2go_bsp.c ****   /* Disable DMA */
 242:../BSP/Position2Go/src/position2go_bsp.c ****   dma_disable();
 243:../BSP/Position2Go/src/position2go_bsp.c ****   
 244:../BSP/Position2Go/src/position2go_bsp.c ****   /* Check if duty cycle is enabled */
 245:../BSP/Position2Go/src/position2go_bsp.c ****   if(bsp_duty_cycle_enable == ENABLED)
 246:../BSP/Position2Go/src/position2go_bsp.c ****   {
 247:../BSP/Position2Go/src/position2go_bsp.c ****     bsp_components_power_down();
 248:../BSP/Position2Go/src/position2go_bsp.c ****   }
 249:../BSP/Position2Go/src/position2go_bsp.c ****   else	/* duty cycle disabled */
 250:../BSP/Position2Go/src/position2go_bsp.c ****   {
 251:../BSP/Position2Go/src/position2go_bsp.c ****     bgt_start_tx();
 252:../BSP/Position2Go/src/position2go_bsp.c ****   }
 253:../BSP/Position2Go/src/position2go_bsp.c ****   
 254:../BSP/Position2Go/src/position2go_bsp.c ****   /* Reset the current frame counter */
 255:../BSP/Position2Go/src/position2go_bsp.c ****   bsp_reset_frame_counter();
 256:../BSP/Position2Go/src/position2go_bsp.c ****   
 257:../BSP/Position2Go/src/position2go_bsp.c ****   return (status);
 258:../BSP/Position2Go/src/position2go_bsp.c **** }
 259:../BSP/Position2Go/src/position2go_bsp.c **** 
 260:../BSP/Position2Go/src/position2go_bsp.c **** //============================================================================
 261:../BSP/Position2Go/src/position2go_bsp.c **** 
 262:../BSP/Position2Go/src/position2go_bsp.c **** void triggerFrameISR(void)
 263:../BSP/Position2Go/src/position2go_bsp.c **** {
 264:../BSP/Position2Go/src/position2go_bsp.c ****   bsp_trigger_new_frame();
 265:../BSP/Position2Go/src/position2go_bsp.c **** }
 266:../BSP/Position2Go/src/position2go_bsp.c **** 
 267:../BSP/Position2Go/src/position2go_bsp.c **** //============================================================================
 268:../BSP/Position2Go/src/position2go_bsp.c **** 
 269:../BSP/Position2Go/src/position2go_bsp.c **** void bsp_trigger_new_frame(void)
 270:../BSP/Position2Go/src/position2go_bsp.c **** {
 271:../BSP/Position2Go/src/position2go_bsp.c ****   /* Stop ADC timer if ADC is still running */
 272:../BSP/Position2Go/src/position2go_bsp.c ****   if (TIMER_GetTimerStatus(&TIMER_ADC_TRIG))
 273:../BSP/Position2Go/src/position2go_bsp.c ****   {
 274:../BSP/Position2Go/src/position2go_bsp.c ****     bsp_timer_stop_clear(&TIMER_ADC_TRIG);
 275:../BSP/Position2Go/src/position2go_bsp.c ****   }
 276:../BSP/Position2Go/src/position2go_bsp.c ****   
 277:../BSP/Position2Go/src/position2go_bsp.c ****   /* Get the raw ADC data */
 278:../BSP/Position2Go/src/position2go_bsp.c ****   get_raw_data();
 279:../BSP/Position2Go/src/position2go_bsp.c ****   
 280:../BSP/Position2Go/src/position2go_bsp.c ****   /* This callback is used to inform upper layers about the beginning of data acquisition process *
 281:../BSP/Position2Go/src/position2go_bsp.c ****   if(bsp_cb.bsp_acq_started_cb != NULL)
 282:../BSP/Position2Go/src/position2go_bsp.c ****   {
 283:../BSP/Position2Go/src/position2go_bsp.c ****     bsp_cb.bsp_acq_started_cb(NULL);
 284:../BSP/Position2Go/src/position2go_bsp.c ****   }
 285:../BSP/Position2Go/src/position2go_bsp.c **** }
 286:../BSP/Position2Go/src/position2go_bsp.c **** 
 287:../BSP/Position2Go/src/position2go_bsp.c **** //============================================================================
 288:../BSP/Position2Go/src/position2go_bsp.c **** 
 289:../BSP/Position2Go/src/position2go_bsp.c **** void DMA_Event_Handler(XMC_DMA_CH_EVENT_t dma_event)
 290:../BSP/Position2Go/src/position2go_bsp.c **** {
 291:../BSP/Position2Go/src/position2go_bsp.c ****   if((dma_event & XMC_DMA_CH_EVENT_BLOCK_TRANSFER_COMPLETE) != 0)
 292:../BSP/Position2Go/src/position2go_bsp.c ****   {
 293:../BSP/Position2Go/src/position2go_bsp.c ****     /* Once DMA issue interrupts, we'd better stop the ADC Trigger Timer,
 294:../BSP/Position2Go/src/position2go_bsp.c ****     * we don't need to care which interrupts are triggered by DMA.
 295:../BSP/Position2Go/src/position2go_bsp.c ****     * this timer is source peripheral's trigger to request DMA transaction.
 296:../BSP/Position2Go/src/position2go_bsp.c ****     * Even though DMA error interrupt, we'd better stop the this timer. */
 297:../BSP/Position2Go/src/position2go_bsp.c ****     bsp_timer_stop_clear(&TIMER_ADC_TRIG);
 298:../BSP/Position2Go/src/position2go_bsp.c ****     
 299:../BSP/Position2Go/src/position2go_bsp.c ****     chirp_count++;
 300:../BSP/Position2Go/src/position2go_bsp.c ****     
 301:../BSP/Position2Go/src/position2go_bsp.c ****     dma_disable();
 302:../BSP/Position2Go/src/position2go_bsp.c ****     
 303:../BSP/Position2Go/src/position2go_bsp.c ****     /* Clear the request from source peripheral even though DMA was disabled by itself.
 304:../BSP/Position2Go/src/position2go_bsp.c ****     * We should consider the pending request from external peripheral. */
 305:../BSP/Position2Go/src/position2go_bsp.c ****     dma_reset_dlr();
 306:../BSP/Position2Go/src/position2go_bsp.c ****     
 307:../BSP/Position2Go/src/position2go_bsp.c **** #if (FW_MODULATION_TYPE == 1U) /* FMCW modulation */
 308:../BSP/Position2Go/src/position2go_bsp.c ****     
 309:../BSP/Position2Go/src/position2go_bsp.c ****     acq_buf_obj *p_acq_buf = ds_get_active_acq_buf();
 310:../BSP/Position2Go/src/position2go_bsp.c ****     
 311:../BSP/Position2Go/src/position2go_bsp.c ****     if (chirp_count < p_acq_buf->params.num_of_chirps_per_frame)
 312:../BSP/Position2Go/src/position2go_bsp.c ****     {
 313:../BSP/Position2Go/src/position2go_bsp.c ****       /* Reconfiguration of DMA destination offset */
 314:../BSP/Position2Go/src/position2go_bsp.c ****       bsp_dma_set_destination_addr_from_acq_buf_obj(p_acq_buf, chirp_count);
 315:../BSP/Position2Go/src/position2go_bsp.c ****       
 316:../BSP/Position2Go/src/position2go_bsp.c ****       /* Enable DMA */
 317:../BSP/Position2Go/src/position2go_bsp.c ****       dma_enable();
 318:../BSP/Position2Go/src/position2go_bsp.c ****     }
 319:../BSP/Position2Go/src/position2go_bsp.c ****     else
 320:../BSP/Position2Go/src/position2go_bsp.c **** #endif
 321:../BSP/Position2Go/src/position2go_bsp.c ****     {
 322:../BSP/Position2Go/src/position2go_bsp.c ****       ADC_MEASUREMENT_ADV_SoftwareTrigger(&ADC_MEASUREMENT_SCAN);
 323:../BSP/Position2Go/src/position2go_bsp.c ****       
 324:../BSP/Position2Go/src/position2go_bsp.c ****       bsp_frame_counter++;
 325:../BSP/Position2Go/src/position2go_bsp.c ****       
 326:../BSP/Position2Go/src/position2go_bsp.c ****       chirp_count = 0;
 327:../BSP/Position2Go/src/position2go_bsp.c ****       
 328:../BSP/Position2Go/src/position2go_bsp.c ****       done_sampling();
 329:../BSP/Position2Go/src/position2go_bsp.c ****     }
 330:../BSP/Position2Go/src/position2go_bsp.c ****   }
 331:../BSP/Position2Go/src/position2go_bsp.c **** }
 332:../BSP/Position2Go/src/position2go_bsp.c **** 
 333:../BSP/Position2Go/src/position2go_bsp.c **** //============================================================================
 334:../BSP/Position2Go/src/position2go_bsp.c **** 
 335:../BSP/Position2Go/src/position2go_bsp.c **** void bsp_components_power_up(void)
 336:../BSP/Position2Go/src/position2go_bsp.c **** {
 337:../BSP/Position2Go/src/position2go_bsp.c ****   /* Power-up BGT */
 338:../BSP/Position2Go/src/position2go_bsp.c ****   bgt_power_up();
 339:../BSP/Position2Go/src/position2go_bsp.c ****   
 340:../BSP/Position2Go/src/position2go_bsp.c ****   /* Delay for BGT power-up */
 341:../BSP/Position2Go/src/position2go_bsp.c ****   bsp_time_delay_usec(100U);
 342:../BSP/Position2Go/src/position2go_bsp.c ****   
 343:../BSP/Position2Go/src/position2go_bsp.c ****   bgt_lowest_power_with_q2_disable();
 344:../BSP/Position2Go/src/position2go_bsp.c ****   bsp_time_delay_usec(400U); /* 400us based on PLL pre-charging slope, dependent on board loop filt
 345:../BSP/Position2Go/src/position2go_bsp.c ****   
 346:../BSP/Position2Go/src/position2go_bsp.c ****   /* Enable PLL */
 347:../BSP/Position2Go/src/position2go_bsp.c ****   pll_power_up();
 348:../BSP/Position2Go/src/position2go_bsp.c ****   
 349:../BSP/Position2Go/src/position2go_bsp.c ****   /* Delay for PLL power-up.
 350:../BSP/Position2Go/src/position2go_bsp.c ****    * This delay depends upon the Charge pump voltage for locking time (linked with first BGT power-
 351:../BSP/Position2Go/src/position2go_bsp.c ****   bsp_time_delay_usec(100U);
 352:../BSP/Position2Go/src/position2go_bsp.c **** 
 353:../BSP/Position2Go/src/position2go_bsp.c ****   if (pll_get_update_config_flag() == ENABLED)
 354:../BSP/Position2Go/src/position2go_bsp.c ****   {
 355:../BSP/Position2Go/src/position2go_bsp.c **** #if (FW_MODULATION_TYPE == 0U) /* Doppler modulation */
 356:../BSP/Position2Go/src/position2go_bsp.c ****     pll_update_configuration(pll_handle, DOPPLER_MODULATION);
 357:../BSP/Position2Go/src/position2go_bsp.c ****     
 358:../BSP/Position2Go/src/position2go_bsp.c **** #elif (FW_MODULATION_TYPE == 1U) /* FMCW modulation */
 359:../BSP/Position2Go/src/position2go_bsp.c ****     pll_update_configuration(pll_handle, FMCW_MODULATION);
 360:../BSP/Position2Go/src/position2go_bsp.c ****     
 361:../BSP/Position2Go/src/position2go_bsp.c **** #endif
 362:../BSP/Position2Go/src/position2go_bsp.c ****   }
 363:../BSP/Position2Go/src/position2go_bsp.c ****   
 364:../BSP/Position2Go/src/position2go_bsp.c **** #if (FW_MODULATION_TYPE == 1U) /* FMCW modulation */
 365:../BSP/Position2Go/src/position2go_bsp.c ****   else
 366:../BSP/Position2Go/src/position2go_bsp.c ****   {
 367:../BSP/Position2Go/src/position2go_bsp.c ****     pll_enable_ramps(pll_handle); /* Enable PLL's ramps */
 368:../BSP/Position2Go/src/position2go_bsp.c ****   }
 369:../BSP/Position2Go/src/position2go_bsp.c **** #endif
 370:../BSP/Position2Go/src/position2go_bsp.c ****   
 371:../BSP/Position2Go/src/position2go_bsp.c ****   bsp_time_delay_usec(500U);
 372:../BSP/Position2Go/src/position2go_bsp.c **** 
 373:../BSP/Position2Go/src/position2go_bsp.c ****   /* Set the new PGA gain level */
 374:../BSP/Position2Go/src/position2go_bsp.c ****   if(ds_device_get_settings()->isGainlevelUpdated)
 375:../BSP/Position2Go/src/position2go_bsp.c ****   {
 376:../BSP/Position2Go/src/position2go_bsp.c ****     pga_set_gain(ds_device_get_settings()->pga_rx_gain_level);
 377:../BSP/Position2Go/src/position2go_bsp.c ****     ds_device_get_settings()->isGainlevelUpdated = 0;
 378:../BSP/Position2Go/src/position2go_bsp.c ****   }
 379:../BSP/Position2Go/src/position2go_bsp.c **** 
 380:../BSP/Position2Go/src/position2go_bsp.c ****   bsp_time_delay_usec(PLL_LOCK_TIME_USEC); /* Delay for PLL Lock */
 381:../BSP/Position2Go/src/position2go_bsp.c ****   
 382:../BSP/Position2Go/src/position2go_bsp.c ****   /* Enable BGT TX Power amplifier */
 383:../BSP/Position2Go/src/position2go_bsp.c ****   bgt_start_tx();
 384:../BSP/Position2Go/src/position2go_bsp.c ****   
 385:../BSP/Position2Go/src/position2go_bsp.c ****   /* Delay for BGT Q2 divider to be zero and VCO to be settled after SPI setting transmitted */
 386:../BSP/Position2Go/src/position2go_bsp.c ****   bsp_time_delay_usec(BGT_VCO_LOCK_TIME_USEC); /* 1ms delay for IQ voltage at ADC close to referenc
 387:../BSP/Position2Go/src/position2go_bsp.c **** }
 388:../BSP/Position2Go/src/position2go_bsp.c **** 
 389:../BSP/Position2Go/src/position2go_bsp.c **** //============================================================================
 390:../BSP/Position2Go/src/position2go_bsp.c **** 
 391:../BSP/Position2Go/src/position2go_bsp.c **** void bsp_components_power_down(void)
 392:../BSP/Position2Go/src/position2go_bsp.c **** {
 393:../BSP/Position2Go/src/position2go_bsp.c ****   pll_disable_ramps(pll_handle);
 394:../BSP/Position2Go/src/position2go_bsp.c ****   
 395:../BSP/Position2Go/src/position2go_bsp.c ****   /* To avoid out of band spurs */
 396:../BSP/Position2Go/src/position2go_bsp.c ****   bgt_lowest_power_with_q2_disable();
 397:../BSP/Position2Go/src/position2go_bsp.c ****   bsp_time_delay_usec(50U);           /* Delay for BGT Power down SPI settings */
 398:../BSP/Position2Go/src/position2go_bsp.c ****   
 399:../BSP/Position2Go/src/position2go_bsp.c ****   /* Power-down BGT */
 400:../BSP/Position2Go/src/position2go_bsp.c ****   bgt_power_down();
 401:../BSP/Position2Go/src/position2go_bsp.c ****   
 402:../BSP/Position2Go/src/position2go_bsp.c ****   /* Disable PLL */
 403:../BSP/Position2Go/src/position2go_bsp.c ****   pll_power_down();
 404:../BSP/Position2Go/src/position2go_bsp.c **** }
 405:../BSP/Position2Go/src/position2go_bsp.c **** 
 406:../BSP/Position2Go/src/position2go_bsp.c **** //============================================================================
 407:../BSP/Position2Go/src/position2go_bsp.c **** 
 408:../BSP/Position2Go/src/position2go_bsp.c **** void bsp_flash_write_data(const uint16_t offset_address, const uint8_t* data_ptr, uint16_t num_of_b
 409:../BSP/Position2Go/src/position2go_bsp.c **** {
 410:../BSP/Position2Go/src/position2go_bsp.c ****   E_EEPROM_XMC4_WriteArray(offset_address, data_ptr, num_of_bytes);
 411:../BSP/Position2Go/src/position2go_bsp.c **** }
 412:../BSP/Position2Go/src/position2go_bsp.c **** 
 413:../BSP/Position2Go/src/position2go_bsp.c **** //============================================================================
 414:../BSP/Position2Go/src/position2go_bsp.c **** 
 415:../BSP/Position2Go/src/position2go_bsp.c **** void bsp_flash_read_data(const uint16_t offset_address, const uint8_t* data_ptr, uint16_t num_of_by
 416:../BSP/Position2Go/src/position2go_bsp.c **** {
 417:../BSP/Position2Go/src/position2go_bsp.c ****   E_EEPROM_XMC4_ReadArray(offset_address, (uint8_t*)data_ptr, num_of_bytes);
 418:../BSP/Position2Go/src/position2go_bsp.c **** }
 419:../BSP/Position2Go/src/position2go_bsp.c **** 
 420:../BSP/Position2Go/src/position2go_bsp.c **** //============================================================================
 421:../BSP/Position2Go/src/position2go_bsp.c **** 
 422:../BSP/Position2Go/src/position2go_bsp.c **** void bsp_flash_flush_data(void)
 423:../BSP/Position2Go/src/position2go_bsp.c **** {
 424:../BSP/Position2Go/src/position2go_bsp.c ****   E_EEPROM_XMC4_UpdateFlashContents();
 425:../BSP/Position2Go/src/position2go_bsp.c **** }
 426:../BSP/Position2Go/src/position2go_bsp.c **** 
 427:../BSP/Position2Go/src/position2go_bsp.c **** //============================================================================
 428:../BSP/Position2Go/src/position2go_bsp.c **** 
 429:../BSP/Position2Go/src/position2go_bsp.c **** bool bsp_flash_is_empty(void)
 430:../BSP/Position2Go/src/position2go_bsp.c **** {
 431:../BSP/Position2Go/src/position2go_bsp.c ****   return (E_EEPROM_XMC4_IsFlashEmpty());
 432:../BSP/Position2Go/src/position2go_bsp.c **** }
 433:../BSP/Position2Go/src/position2go_bsp.c **** 
 434:../BSP/Position2Go/src/position2go_bsp.c **** //============================================================================
 435:../BSP/Position2Go/src/position2go_bsp.c **** 
 436:../BSP/Position2Go/src/position2go_bsp.c **** void bsp_timer_init(void)
 437:../BSP/Position2Go/src/position2go_bsp.c **** {
 438:../BSP/Position2Go/src/position2go_bsp.c ****   TIMER_ADC_TRIG.initialized = true;
 439:../BSP/Position2Go/src/position2go_bsp.c **** }
 440:../BSP/Position2Go/src/position2go_bsp.c **** 
 441:../BSP/Position2Go/src/position2go_bsp.c **** //============================================================================
 442:../BSP/Position2Go/src/position2go_bsp.c **** 
 443:../BSP/Position2Go/src/position2go_bsp.c **** TIMER_STATUS_t bsp_timer_stop_clear(TIMER_t* const handle_timer)
 444:../BSP/Position2Go/src/position2go_bsp.c **** {
 445:../BSP/Position2Go/src/position2go_bsp.c ****   TIMER_STATUS_t  status;
 446:../BSP/Position2Go/src/position2go_bsp.c ****   
 447:../BSP/Position2Go/src/position2go_bsp.c ****   status = TIMER_Stop(handle_timer);
 448:../BSP/Position2Go/src/position2go_bsp.c ****   
 449:../BSP/Position2Go/src/position2go_bsp.c ****   status |= TIMER_Clear(handle_timer);
 450:../BSP/Position2Go/src/position2go_bsp.c ****   
 451:../BSP/Position2Go/src/position2go_bsp.c ****   return (status);
 452:../BSP/Position2Go/src/position2go_bsp.c **** }
 453:../BSP/Position2Go/src/position2go_bsp.c **** 
 454:../BSP/Position2Go/src/position2go_bsp.c **** TIMER_STATUS_t bsp_timer_start(TIMER_t* const handle_timer)
 455:../BSP/Position2Go/src/position2go_bsp.c **** {
 456:../BSP/Position2Go/src/position2go_bsp.c ****   TIMER_STATUS_t  status;
 457:../BSP/Position2Go/src/position2go_bsp.c ****   
 458:../BSP/Position2Go/src/position2go_bsp.c ****   status = TIMER_Start(handle_timer);
 459:../BSP/Position2Go/src/position2go_bsp.c ****   
 460:../BSP/Position2Go/src/position2go_bsp.c ****   return (status);
 461:../BSP/Position2Go/src/position2go_bsp.c **** }
 462:../BSP/Position2Go/src/position2go_bsp.c **** 
 463:../BSP/Position2Go/src/position2go_bsp.c **** //============================================================================
 464:../BSP/Position2Go/src/position2go_bsp.c **** 
 465:../BSP/Position2Go/src/position2go_bsp.c **** void bsp_time_delay_usec(uint32_t delay_val_usec)
 466:../BSP/Position2Go/src/position2go_bsp.c **** {
 467:../BSP/Position2Go/src/position2go_bsp.c ****   uint32_t delay_cnt;
 468:../BSP/Position2Go/src/position2go_bsp.c ****   
 469:../BSP/Position2Go/src/position2go_bsp.c ****   TIMER_ClearEvent(&TIMER_DELAY);
 470:../BSP/Position2Go/src/position2go_bsp.c ****   
 471:../BSP/Position2Go/src/position2go_bsp.c ****   /* time in in units of microseconds */
 472:../BSP/Position2Go/src/position2go_bsp.c ****   delay_cnt = delay_val_usec * 100U;
 473:../BSP/Position2Go/src/position2go_bsp.c ****   
 474:../BSP/Position2Go/src/position2go_bsp.c ****   TIMER_SetTimeInterval(&TIMER_DELAY,delay_cnt);
 475:../BSP/Position2Go/src/position2go_bsp.c ****   
 476:../BSP/Position2Go/src/position2go_bsp.c ****   bsp_timer_start(&TIMER_DELAY);
 477:../BSP/Position2Go/src/position2go_bsp.c ****   
 478:../BSP/Position2Go/src/position2go_bsp.c ****   while(!TIMER_GetInterruptStatus(&TIMER_DELAY));
 479:../BSP/Position2Go/src/position2go_bsp.c ****   
 480:../BSP/Position2Go/src/position2go_bsp.c ****   TIMER_Stop(&TIMER_DELAY);
 481:../BSP/Position2Go/src/position2go_bsp.c ****   
 482:../BSP/Position2Go/src/position2go_bsp.c ****   TIMER_Clear(&TIMER_DELAY);
 483:../BSP/Position2Go/src/position2go_bsp.c **** }
 484:../BSP/Position2Go/src/position2go_bsp.c **** 
 485:../BSP/Position2Go/src/position2go_bsp.c **** //============================================================================
 486:../BSP/Position2Go/src/position2go_bsp.c **** 
 487:../BSP/Position2Go/src/position2go_bsp.c **** void bsp_dma_set_source_addr(void)
 488:../BSP/Position2Go/src/position2go_bsp.c **** {
 489:../BSP/Position2Go/src/position2go_bsp.c ****   /* DMA Source/Destination Address setup */
 490:../BSP/Position2Go/src/position2go_bsp.c ****   pDMA_src_I1 = (uint32_t*)&ADC_MEASUREMENT_ADV_G2_IF1_Q_RES;
 491:../BSP/Position2Go/src/position2go_bsp.c ****   pDMA_src_Q1 = (uint32_t*)&ADC_MEASUREMENT_ADV_G1_IF1_I_RES;
 492:../BSP/Position2Go/src/position2go_bsp.c ****   pDMA_src_I2 = (uint32_t*)&ADC_MEASUREMENT_ADV_G4_IF2_Q_RES;
 493:../BSP/Position2Go/src/position2go_bsp.c ****   pDMA_src_Q2 = (uint32_t*)&ADC_MEASUREMENT_ADV_G3_IF2_I_RES;
 494:../BSP/Position2Go/src/position2go_bsp.c ****   
 495:../BSP/Position2Go/src/position2go_bsp.c ****   /* Set the source address pointers for each DMA transfer */
 496:../BSP/Position2Go/src/position2go_bsp.c ****   XMC_DMA_CH_SetSourceAddress(DMA_CH_I1.dma_global->dma, DMA_CH_I1.ch_num, (uint32_t)pDMA_src_I1);
  47              	 .loc 1 496 0
  48 0004 A34F     	 ldr r7,.L34
 490:../BSP/Position2Go/src/position2go_bsp.c ****   pDMA_src_Q1 = (uint32_t*)&ADC_MEASUREMENT_ADV_G1_IF1_I_RES;
  49              	 .loc 1 490 0
  50 0006 A44B     	 ldr r3,.L34+4
  51              	 .loc 1 496 0
  52 0008 3968     	 ldr r1,[r7]
  53              	.LBB170:
  54              	.LBB171:
  55              	 .file 2 "E:/NOVA/Assets/IFX_P2G-HW-SW_V1.0.4/Firmware_Software/DAVE project/P2G_FW/Libraries/XMCLib/inc/xmc_dma.h"
   1:E:/NOVA/Assets/IFX_P2G-HW-SW_V1.0.4/Firmware_Software/DAVE project/P2G_FW/Libraries/XMCLib/inc\xmc_dma.h **** 
   2:E:/NOVA/Assets/IFX_P2G-HW-SW_V1.0.4/Firmware_Software/DAVE project/P2G_FW/Libraries/XMCLib/inc\xmc_dma.h **** /**
   3:E:/NOVA/Assets/IFX_P2G-HW-SW_V1.0.4/Firmware_Software/DAVE project/P2G_FW/Libraries/XMCLib/inc\xmc_dma.h ****  * @file xmc_dma.h
   4:E:/NOVA/Assets/IFX_P2G-HW-SW_V1.0.4/Firmware_Software/DAVE project/P2G_FW/Libraries/XMCLib/inc\xmc_dma.h ****  * @date 2016-10-28
   5:E:/NOVA/Assets/IFX_P2G-HW-SW_V1.0.4/Firmware_Software/DAVE project/P2G_FW/Libraries/XMCLib/inc\xmc_dma.h ****  *
   6:E:/NOVA/Assets/IFX_P2G-HW-SW_V1.0.4/Firmware_Software/DAVE project/P2G_FW/Libraries/XMCLib/inc\xmc_dma.h ****  * @cond
   7:E:/NOVA/Assets/IFX_P2G-HW-SW_V1.0.4/Firmware_Software/DAVE project/P2G_FW/Libraries/XMCLib/inc\xmc_dma.h ****  **************************************************************************************************
   8:E:/NOVA/Assets/IFX_P2G-HW-SW_V1.0.4/Firmware_Software/DAVE project/P2G_FW/Libraries/XMCLib/inc\xmc_dma.h ****  * XMClib v2.1.16 - XMC Peripheral Driver Library 
   9:E:/NOVA/Assets/IFX_P2G-HW-SW_V1.0.4/Firmware_Software/DAVE project/P2G_FW/Libraries/XMCLib/inc\xmc_dma.h ****  *
  10:E:/NOVA/Assets/IFX_P2G-HW-SW_V1.0.4/Firmware_Software/DAVE project/P2G_FW/Libraries/XMCLib/inc\xmc_dma.h ****  * Copyright (c) 2015-2017, Infineon Technologies AG
  11:E:/NOVA/Assets/IFX_P2G-HW-SW_V1.0.4/Firmware_Software/DAVE project/P2G_FW/Libraries/XMCLib/inc\xmc_dma.h ****  * All rights reserved.                        
  12:E:/NOVA/Assets/IFX_P2G-HW-SW_V1.0.4/Firmware_Software/DAVE project/P2G_FW/Libraries/XMCLib/inc\xmc_dma.h ****  *                                             
  13:E:/NOVA/Assets/IFX_P2G-HW-SW_V1.0.4/Firmware_Software/DAVE project/P2G_FW/Libraries/XMCLib/inc\xmc_dma.h ****  * Redistribution and use in source and binary forms, with or without modification,are permitted pr
  14:E:/NOVA/Assets/IFX_P2G-HW-SW_V1.0.4/Firmware_Software/DAVE project/P2G_FW/Libraries/XMCLib/inc\xmc_dma.h ****  * following conditions are met:   
  15:E:/NOVA/Assets/IFX_P2G-HW-SW_V1.0.4/Firmware_Software/DAVE project/P2G_FW/Libraries/XMCLib/inc\xmc_dma.h ****  *                                                                              
  16:E:/NOVA/Assets/IFX_P2G-HW-SW_V1.0.4/Firmware_Software/DAVE project/P2G_FW/Libraries/XMCLib/inc\xmc_dma.h ****  * Redistributions of source code must retain the above copyright notice, this list of conditions a
  17:E:/NOVA/Assets/IFX_P2G-HW-SW_V1.0.4/Firmware_Software/DAVE project/P2G_FW/Libraries/XMCLib/inc\xmc_dma.h ****  * disclaimer.                        
  18:E:/NOVA/Assets/IFX_P2G-HW-SW_V1.0.4/Firmware_Software/DAVE project/P2G_FW/Libraries/XMCLib/inc\xmc_dma.h ****  * 
  19:E:/NOVA/Assets/IFX_P2G-HW-SW_V1.0.4/Firmware_Software/DAVE project/P2G_FW/Libraries/XMCLib/inc\xmc_dma.h ****  * Redistributions in binary form must reproduce the above copyright notice, this list of condition
  20:E:/NOVA/Assets/IFX_P2G-HW-SW_V1.0.4/Firmware_Software/DAVE project/P2G_FW/Libraries/XMCLib/inc\xmc_dma.h ****  * disclaimer in the documentation and/or other materials provided with the distribution.          
  21:E:/NOVA/Assets/IFX_P2G-HW-SW_V1.0.4/Firmware_Software/DAVE project/P2G_FW/Libraries/XMCLib/inc\xmc_dma.h ****  * 
  22:E:/NOVA/Assets/IFX_P2G-HW-SW_V1.0.4/Firmware_Software/DAVE project/P2G_FW/Libraries/XMCLib/inc\xmc_dma.h ****  * Neither the name of the copyright holders nor the names of its contributors may be used to endor
  23:E:/NOVA/Assets/IFX_P2G-HW-SW_V1.0.4/Firmware_Software/DAVE project/P2G_FW/Libraries/XMCLib/inc\xmc_dma.h ****  * products derived from this software without specific prior written permission.                  
  24:E:/NOVA/Assets/IFX_P2G-HW-SW_V1.0.4/Firmware_Software/DAVE project/P2G_FW/Libraries/XMCLib/inc\xmc_dma.h ****  *                                                                              
  25:E:/NOVA/Assets/IFX_P2G-HW-SW_V1.0.4/Firmware_Software/DAVE project/P2G_FW/Libraries/XMCLib/inc\xmc_dma.h ****  * THIS SOFTWARE IS PROVIDED BY THE COPYRIGHT HOLDERS AND CONTRIBUTORS "AS IS" AND ANY EXPRESS OR I
  26:E:/NOVA/Assets/IFX_P2G-HW-SW_V1.0.4/Firmware_Software/DAVE project/P2G_FW/Libraries/XMCLib/inc\xmc_dma.h ****  * INCLUDING, BUT NOT LIMITED TO, THE IMPLIED WARRANTIES OF MERCHANTABILITY AND FITNESS FOR A PARTI
  27:E:/NOVA/Assets/IFX_P2G-HW-SW_V1.0.4/Firmware_Software/DAVE project/P2G_FW/Libraries/XMCLib/inc\xmc_dma.h ****  * DISCLAIMED. IN NO EVENT SHALL THE COPYRIGHT HOLDER OR CONTRIBUTORS BE LIABLE  FOR ANY DIRECT, IN
  28:E:/NOVA/Assets/IFX_P2G-HW-SW_V1.0.4/Firmware_Software/DAVE project/P2G_FW/Libraries/XMCLib/inc\xmc_dma.h ****  * SPECIAL, EXEMPLARY, OR CONSEQUENTIAL DAMAGES (INCLUDING, BUT NOT LIMITED TO, PROCUREMENT OF SUBS
  29:E:/NOVA/Assets/IFX_P2G-HW-SW_V1.0.4/Firmware_Software/DAVE project/P2G_FW/Libraries/XMCLib/inc\xmc_dma.h ****  * SERVICES; LOSS OF USE, DATA, OR PROFITS; OR BUSINESS INTERRUPTION) HOWEVER CAUSED AND ON ANY THE
  30:E:/NOVA/Assets/IFX_P2G-HW-SW_V1.0.4/Firmware_Software/DAVE project/P2G_FW/Libraries/XMCLib/inc\xmc_dma.h ****  * WHETHER IN CONTRACT, STRICT LIABILITY,OR TORT (INCLUDING NEGLIGENCE OR OTHERWISE) ARISING IN ANY
  31:E:/NOVA/Assets/IFX_P2G-HW-SW_V1.0.4/Firmware_Software/DAVE project/P2G_FW/Libraries/XMCLib/inc\xmc_dma.h ****  * OF THIS SOFTWARE, EVEN IF ADVISED OF THE POSSIBILITY OF SUCH DAMAGE.                            
  32:E:/NOVA/Assets/IFX_P2G-HW-SW_V1.0.4/Firmware_Software/DAVE project/P2G_FW/Libraries/XMCLib/inc\xmc_dma.h ****  *                                                                              
  33:E:/NOVA/Assets/IFX_P2G-HW-SW_V1.0.4/Firmware_Software/DAVE project/P2G_FW/Libraries/XMCLib/inc\xmc_dma.h ****  * To improve the quality of the software, users are encouraged to share modifications, enhancement
  34:E:/NOVA/Assets/IFX_P2G-HW-SW_V1.0.4/Firmware_Software/DAVE project/P2G_FW/Libraries/XMCLib/inc\xmc_dma.h ****  * Infineon Technologies AG dave@infineon.com).                                                    
  35:E:/NOVA/Assets/IFX_P2G-HW-SW_V1.0.4/Firmware_Software/DAVE project/P2G_FW/Libraries/XMCLib/inc\xmc_dma.h ****  **************************************************************************************************
  36:E:/NOVA/Assets/IFX_P2G-HW-SW_V1.0.4/Firmware_Software/DAVE project/P2G_FW/Libraries/XMCLib/inc\xmc_dma.h ****  *
  37:E:/NOVA/Assets/IFX_P2G-HW-SW_V1.0.4/Firmware_Software/DAVE project/P2G_FW/Libraries/XMCLib/inc\xmc_dma.h ****  * Change History
  38:E:/NOVA/Assets/IFX_P2G-HW-SW_V1.0.4/Firmware_Software/DAVE project/P2G_FW/Libraries/XMCLib/inc\xmc_dma.h ****  * --------------
  39:E:/NOVA/Assets/IFX_P2G-HW-SW_V1.0.4/Firmware_Software/DAVE project/P2G_FW/Libraries/XMCLib/inc\xmc_dma.h ****  *
  40:E:/NOVA/Assets/IFX_P2G-HW-SW_V1.0.4/Firmware_Software/DAVE project/P2G_FW/Libraries/XMCLib/inc\xmc_dma.h ****  * 2015-02-20:
  41:E:/NOVA/Assets/IFX_P2G-HW-SW_V1.0.4/Firmware_Software/DAVE project/P2G_FW/Libraries/XMCLib/inc\xmc_dma.h ****  *     - Initial <br>
  42:E:/NOVA/Assets/IFX_P2G-HW-SW_V1.0.4/Firmware_Software/DAVE project/P2G_FW/Libraries/XMCLib/inc\xmc_dma.h ****  *
  43:E:/NOVA/Assets/IFX_P2G-HW-SW_V1.0.4/Firmware_Software/DAVE project/P2G_FW/Libraries/XMCLib/inc\xmc_dma.h ****  * 2015-06-20:
  44:E:/NOVA/Assets/IFX_P2G-HW-SW_V1.0.4/Firmware_Software/DAVE project/P2G_FW/Libraries/XMCLib/inc\xmc_dma.h ****  *     - Add the declarations for the following APIs: <br>
  45:E:/NOVA/Assets/IFX_P2G-HW-SW_V1.0.4/Firmware_Software/DAVE project/P2G_FW/Libraries/XMCLib/inc\xmc_dma.h ****  *       XMC_DMA_DisableRequestLine, XMC_DMA_ClearRequestLine, <br>
  46:E:/NOVA/Assets/IFX_P2G-HW-SW_V1.0.4/Firmware_Software/DAVE project/P2G_FW/Libraries/XMCLib/inc\xmc_dma.h ****  *       XMC_DMA_CH_ClearSourcePeripheralRequest, <br>
  47:E:/NOVA/Assets/IFX_P2G-HW-SW_V1.0.4/Firmware_Software/DAVE project/P2G_FW/Libraries/XMCLib/inc\xmc_dma.h ****  *       XMC_DMA_CH_ClearDestinationPeripheralRequest <br>
  48:E:/NOVA/Assets/IFX_P2G-HW-SW_V1.0.4/Firmware_Software/DAVE project/P2G_FW/Libraries/XMCLib/inc\xmc_dma.h ****  *     - Documentation updates <br>
  49:E:/NOVA/Assets/IFX_P2G-HW-SW_V1.0.4/Firmware_Software/DAVE project/P2G_FW/Libraries/XMCLib/inc\xmc_dma.h ****  *     - Removed version macros and declaration of GetDriverVersion API <br>
  50:E:/NOVA/Assets/IFX_P2G-HW-SW_V1.0.4/Firmware_Software/DAVE project/P2G_FW/Libraries/XMCLib/inc\xmc_dma.h ****  *
  51:E:/NOVA/Assets/IFX_P2G-HW-SW_V1.0.4/Firmware_Software/DAVE project/P2G_FW/Libraries/XMCLib/inc\xmc_dma.h ****  * 2016-10-28:
  52:E:/NOVA/Assets/IFX_P2G-HW-SW_V1.0.4/Firmware_Software/DAVE project/P2G_FW/Libraries/XMCLib/inc\xmc_dma.h ****  *     - Fix documentation on maximum block size
  53:E:/NOVA/Assets/IFX_P2G-HW-SW_V1.0.4/Firmware_Software/DAVE project/P2G_FW/Libraries/XMCLib/inc\xmc_dma.h ****  *
  54:E:/NOVA/Assets/IFX_P2G-HW-SW_V1.0.4/Firmware_Software/DAVE project/P2G_FW/Libraries/XMCLib/inc\xmc_dma.h ****  * @endcond
  55:E:/NOVA/Assets/IFX_P2G-HW-SW_V1.0.4/Firmware_Software/DAVE project/P2G_FW/Libraries/XMCLib/inc\xmc_dma.h ****  */
  56:E:/NOVA/Assets/IFX_P2G-HW-SW_V1.0.4/Firmware_Software/DAVE project/P2G_FW/Libraries/XMCLib/inc\xmc_dma.h **** 
  57:E:/NOVA/Assets/IFX_P2G-HW-SW_V1.0.4/Firmware_Software/DAVE project/P2G_FW/Libraries/XMCLib/inc\xmc_dma.h **** #ifndef XMC_DMA_H
  58:E:/NOVA/Assets/IFX_P2G-HW-SW_V1.0.4/Firmware_Software/DAVE project/P2G_FW/Libraries/XMCLib/inc\xmc_dma.h **** #define XMC_DMA_H
  59:E:/NOVA/Assets/IFX_P2G-HW-SW_V1.0.4/Firmware_Software/DAVE project/P2G_FW/Libraries/XMCLib/inc\xmc_dma.h **** 
  60:E:/NOVA/Assets/IFX_P2G-HW-SW_V1.0.4/Firmware_Software/DAVE project/P2G_FW/Libraries/XMCLib/inc\xmc_dma.h **** /*******************************************************************************
  61:E:/NOVA/Assets/IFX_P2G-HW-SW_V1.0.4/Firmware_Software/DAVE project/P2G_FW/Libraries/XMCLib/inc\xmc_dma.h ****  * HEADER FILES
  62:E:/NOVA/Assets/IFX_P2G-HW-SW_V1.0.4/Firmware_Software/DAVE project/P2G_FW/Libraries/XMCLib/inc\xmc_dma.h ****  *******************************************************************************/
  63:E:/NOVA/Assets/IFX_P2G-HW-SW_V1.0.4/Firmware_Software/DAVE project/P2G_FW/Libraries/XMCLib/inc\xmc_dma.h **** 
  64:E:/NOVA/Assets/IFX_P2G-HW-SW_V1.0.4/Firmware_Software/DAVE project/P2G_FW/Libraries/XMCLib/inc\xmc_dma.h **** #include "xmc_common.h"
  65:E:/NOVA/Assets/IFX_P2G-HW-SW_V1.0.4/Firmware_Software/DAVE project/P2G_FW/Libraries/XMCLib/inc\xmc_dma.h **** 
  66:E:/NOVA/Assets/IFX_P2G-HW-SW_V1.0.4/Firmware_Software/DAVE project/P2G_FW/Libraries/XMCLib/inc\xmc_dma.h **** #if defined (GPDMA0)
  67:E:/NOVA/Assets/IFX_P2G-HW-SW_V1.0.4/Firmware_Software/DAVE project/P2G_FW/Libraries/XMCLib/inc\xmc_dma.h **** 
  68:E:/NOVA/Assets/IFX_P2G-HW-SW_V1.0.4/Firmware_Software/DAVE project/P2G_FW/Libraries/XMCLib/inc\xmc_dma.h **** #include "xmc_dma_map.h"
  69:E:/NOVA/Assets/IFX_P2G-HW-SW_V1.0.4/Firmware_Software/DAVE project/P2G_FW/Libraries/XMCLib/inc\xmc_dma.h **** 
  70:E:/NOVA/Assets/IFX_P2G-HW-SW_V1.0.4/Firmware_Software/DAVE project/P2G_FW/Libraries/XMCLib/inc\xmc_dma.h **** /**
  71:E:/NOVA/Assets/IFX_P2G-HW-SW_V1.0.4/Firmware_Software/DAVE project/P2G_FW/Libraries/XMCLib/inc\xmc_dma.h ****  * @addtogroup XMClib XMC Peripheral Library
  72:E:/NOVA/Assets/IFX_P2G-HW-SW_V1.0.4/Firmware_Software/DAVE project/P2G_FW/Libraries/XMCLib/inc\xmc_dma.h ****  * @{
  73:E:/NOVA/Assets/IFX_P2G-HW-SW_V1.0.4/Firmware_Software/DAVE project/P2G_FW/Libraries/XMCLib/inc\xmc_dma.h ****  */
  74:E:/NOVA/Assets/IFX_P2G-HW-SW_V1.0.4/Firmware_Software/DAVE project/P2G_FW/Libraries/XMCLib/inc\xmc_dma.h **** 
  75:E:/NOVA/Assets/IFX_P2G-HW-SW_V1.0.4/Firmware_Software/DAVE project/P2G_FW/Libraries/XMCLib/inc\xmc_dma.h **** /**
  76:E:/NOVA/Assets/IFX_P2G-HW-SW_V1.0.4/Firmware_Software/DAVE project/P2G_FW/Libraries/XMCLib/inc\xmc_dma.h ****  * @addtogroup DMA
  77:E:/NOVA/Assets/IFX_P2G-HW-SW_V1.0.4/Firmware_Software/DAVE project/P2G_FW/Libraries/XMCLib/inc\xmc_dma.h ****  * @brief General purpose DMA (GPDMA) driver for the XMC4000 microcontroller family
  78:E:/NOVA/Assets/IFX_P2G-HW-SW_V1.0.4/Firmware_Software/DAVE project/P2G_FW/Libraries/XMCLib/inc\xmc_dma.h ****  *
  79:E:/NOVA/Assets/IFX_P2G-HW-SW_V1.0.4/Firmware_Software/DAVE project/P2G_FW/Libraries/XMCLib/inc\xmc_dma.h ****  * The GPDMA is a highly configurable DMA controller that allows high-speed data transfers
  80:E:/NOVA/Assets/IFX_P2G-HW-SW_V1.0.4/Firmware_Software/DAVE project/P2G_FW/Libraries/XMCLib/inc\xmc_dma.h ****  * between peripherals and memories. Complex data transfers can be done with minimal
  81:E:/NOVA/Assets/IFX_P2G-HW-SW_V1.0.4/Firmware_Software/DAVE project/P2G_FW/Libraries/XMCLib/inc\xmc_dma.h ****  * intervention of the processor, making CPU available for other operations.
  82:E:/NOVA/Assets/IFX_P2G-HW-SW_V1.0.4/Firmware_Software/DAVE project/P2G_FW/Libraries/XMCLib/inc\xmc_dma.h ****  *
  83:E:/NOVA/Assets/IFX_P2G-HW-SW_V1.0.4/Firmware_Software/DAVE project/P2G_FW/Libraries/XMCLib/inc\xmc_dma.h ****  * GPDMA provides extensive support for XMC microcontroller peripherals like A/D, D/A
  84:E:/NOVA/Assets/IFX_P2G-HW-SW_V1.0.4/Firmware_Software/DAVE project/P2G_FW/Libraries/XMCLib/inc\xmc_dma.h ****  * converters and timers. Data transfers through communication interfaces (USIC) using the
  85:E:/NOVA/Assets/IFX_P2G-HW-SW_V1.0.4/Firmware_Software/DAVE project/P2G_FW/Libraries/XMCLib/inc\xmc_dma.h ****  * GPDMA increase efficiency and parallelism for real-time applications.
  86:E:/NOVA/Assets/IFX_P2G-HW-SW_V1.0.4/Firmware_Software/DAVE project/P2G_FW/Libraries/XMCLib/inc\xmc_dma.h ****  *
  87:E:/NOVA/Assets/IFX_P2G-HW-SW_V1.0.4/Firmware_Software/DAVE project/P2G_FW/Libraries/XMCLib/inc\xmc_dma.h ****  * The DMA low level driver provides functions to configure and initialize the GPDMA
  88:E:/NOVA/Assets/IFX_P2G-HW-SW_V1.0.4/Firmware_Software/DAVE project/P2G_FW/Libraries/XMCLib/inc\xmc_dma.h ****  * hardware peripheral.
  89:E:/NOVA/Assets/IFX_P2G-HW-SW_V1.0.4/Firmware_Software/DAVE project/P2G_FW/Libraries/XMCLib/inc\xmc_dma.h ****  * @{
  90:E:/NOVA/Assets/IFX_P2G-HW-SW_V1.0.4/Firmware_Software/DAVE project/P2G_FW/Libraries/XMCLib/inc\xmc_dma.h ****  */
  91:E:/NOVA/Assets/IFX_P2G-HW-SW_V1.0.4/Firmware_Software/DAVE project/P2G_FW/Libraries/XMCLib/inc\xmc_dma.h **** 
  92:E:/NOVA/Assets/IFX_P2G-HW-SW_V1.0.4/Firmware_Software/DAVE project/P2G_FW/Libraries/XMCLib/inc\xmc_dma.h **** /*******************************************************************************
  93:E:/NOVA/Assets/IFX_P2G-HW-SW_V1.0.4/Firmware_Software/DAVE project/P2G_FW/Libraries/XMCLib/inc\xmc_dma.h ****  * MACROS
  94:E:/NOVA/Assets/IFX_P2G-HW-SW_V1.0.4/Firmware_Software/DAVE project/P2G_FW/Libraries/XMCLib/inc\xmc_dma.h ****  *******************************************************************************/
  95:E:/NOVA/Assets/IFX_P2G-HW-SW_V1.0.4/Firmware_Software/DAVE project/P2G_FW/Libraries/XMCLib/inc\xmc_dma.h **** 
  96:E:/NOVA/Assets/IFX_P2G-HW-SW_V1.0.4/Firmware_Software/DAVE project/P2G_FW/Libraries/XMCLib/inc\xmc_dma.h **** #if defined (GPDMA0)
  97:E:/NOVA/Assets/IFX_P2G-HW-SW_V1.0.4/Firmware_Software/DAVE project/P2G_FW/Libraries/XMCLib/inc\xmc_dma.h **** #define XMC_DMA0 ((XMC_DMA_t *)GPDMA0_CH0_BASE) /**< DMA module 0 */
  98:E:/NOVA/Assets/IFX_P2G-HW-SW_V1.0.4/Firmware_Software/DAVE project/P2G_FW/Libraries/XMCLib/inc\xmc_dma.h **** #define XMC_DMA0_NUM_CHANNELS 8
  99:E:/NOVA/Assets/IFX_P2G-HW-SW_V1.0.4/Firmware_Software/DAVE project/P2G_FW/Libraries/XMCLib/inc\xmc_dma.h **** #endif
 100:E:/NOVA/Assets/IFX_P2G-HW-SW_V1.0.4/Firmware_Software/DAVE project/P2G_FW/Libraries/XMCLib/inc\xmc_dma.h **** 
 101:E:/NOVA/Assets/IFX_P2G-HW-SW_V1.0.4/Firmware_Software/DAVE project/P2G_FW/Libraries/XMCLib/inc\xmc_dma.h **** #if defined (GPDMA1)
 102:E:/NOVA/Assets/IFX_P2G-HW-SW_V1.0.4/Firmware_Software/DAVE project/P2G_FW/Libraries/XMCLib/inc\xmc_dma.h **** #define XMC_DMA1 ((XMC_DMA_t *)GPDMA1_CH0_BASE) /**< DMA module 1, only available in XMC45xx series
 103:E:/NOVA/Assets/IFX_P2G-HW-SW_V1.0.4/Firmware_Software/DAVE project/P2G_FW/Libraries/XMCLib/inc\xmc_dma.h **** #define XMC_DMA1_NUM_CHANNELS 4
 104:E:/NOVA/Assets/IFX_P2G-HW-SW_V1.0.4/Firmware_Software/DAVE project/P2G_FW/Libraries/XMCLib/inc\xmc_dma.h **** #endif
 105:E:/NOVA/Assets/IFX_P2G-HW-SW_V1.0.4/Firmware_Software/DAVE project/P2G_FW/Libraries/XMCLib/inc\xmc_dma.h **** 
 106:E:/NOVA/Assets/IFX_P2G-HW-SW_V1.0.4/Firmware_Software/DAVE project/P2G_FW/Libraries/XMCLib/inc\xmc_dma.h **** /*******************************************************************************
 107:E:/NOVA/Assets/IFX_P2G-HW-SW_V1.0.4/Firmware_Software/DAVE project/P2G_FW/Libraries/XMCLib/inc\xmc_dma.h ****  * ENUMS
 108:E:/NOVA/Assets/IFX_P2G-HW-SW_V1.0.4/Firmware_Software/DAVE project/P2G_FW/Libraries/XMCLib/inc\xmc_dma.h ****  *******************************************************************************/
 109:E:/NOVA/Assets/IFX_P2G-HW-SW_V1.0.4/Firmware_Software/DAVE project/P2G_FW/Libraries/XMCLib/inc\xmc_dma.h **** 
 110:E:/NOVA/Assets/IFX_P2G-HW-SW_V1.0.4/Firmware_Software/DAVE project/P2G_FW/Libraries/XMCLib/inc\xmc_dma.h **** /**
 111:E:/NOVA/Assets/IFX_P2G-HW-SW_V1.0.4/Firmware_Software/DAVE project/P2G_FW/Libraries/XMCLib/inc\xmc_dma.h ****  * DMA transfer types
 112:E:/NOVA/Assets/IFX_P2G-HW-SW_V1.0.4/Firmware_Software/DAVE project/P2G_FW/Libraries/XMCLib/inc\xmc_dma.h ****  */
 113:E:/NOVA/Assets/IFX_P2G-HW-SW_V1.0.4/Firmware_Software/DAVE project/P2G_FW/Libraries/XMCLib/inc\xmc_dma.h **** typedef enum XMC_DMA_CH_TRANSFER_TYPE
 114:E:/NOVA/Assets/IFX_P2G-HW-SW_V1.0.4/Firmware_Software/DAVE project/P2G_FW/Libraries/XMCLib/inc\xmc_dma.h **** {
 115:E:/NOVA/Assets/IFX_P2G-HW-SW_V1.0.4/Firmware_Software/DAVE project/P2G_FW/Libraries/XMCLib/inc\xmc_dma.h ****   XMC_DMA_CH_TRANSFER_TYPE_SINGLE_BLOCK,                                /**< Single block */
 116:E:/NOVA/Assets/IFX_P2G-HW-SW_V1.0.4/Firmware_Software/DAVE project/P2G_FW/Libraries/XMCLib/inc\xmc_dma.h ****   XMC_DMA_CH_TRANSFER_TYPE_MULTI_BLOCK_SRCADR_CONTIGUOUS_DSTADR_RELOAD, /**< Multi-block: src addre
 117:E:/NOVA/Assets/IFX_P2G-HW-SW_V1.0.4/Firmware_Software/DAVE project/P2G_FW/Libraries/XMCLib/inc\xmc_dma.h ****   XMC_DMA_CH_TRANSFER_TYPE_MULTI_BLOCK_SRCADR_RELOAD_DSTADR_CONTIGUOUS, /**< Multi-block: src addre
 118:E:/NOVA/Assets/IFX_P2G-HW-SW_V1.0.4/Firmware_Software/DAVE project/P2G_FW/Libraries/XMCLib/inc\xmc_dma.h ****   XMC_DMA_CH_TRANSFER_TYPE_MULTI_BLOCK_SRCADR_RELOAD_DSTADR_RELOAD,     /**< Multi-block: src addre
 119:E:/NOVA/Assets/IFX_P2G-HW-SW_V1.0.4/Firmware_Software/DAVE project/P2G_FW/Libraries/XMCLib/inc\xmc_dma.h ****   XMC_DMA_CH_TRANSFER_TYPE_MULTI_BLOCK_SRCADR_CONTIGUOUS_DSTADR_LINKED, /**< Multi-block: src addre
 120:E:/NOVA/Assets/IFX_P2G-HW-SW_V1.0.4/Firmware_Software/DAVE project/P2G_FW/Libraries/XMCLib/inc\xmc_dma.h ****   XMC_DMA_CH_TRANSFER_TYPE_MULTI_BLOCK_SRCADR_RELOAD_DSTADR_LINKED,     /**< Multi-block: src addre
 121:E:/NOVA/Assets/IFX_P2G-HW-SW_V1.0.4/Firmware_Software/DAVE project/P2G_FW/Libraries/XMCLib/inc\xmc_dma.h ****   XMC_DMA_CH_TRANSFER_TYPE_MULTI_BLOCK_SRCADR_LINKED_DSTADR_CONTIGUOUS, /**< Multi-block: src addre
 122:E:/NOVA/Assets/IFX_P2G-HW-SW_V1.0.4/Firmware_Software/DAVE project/P2G_FW/Libraries/XMCLib/inc\xmc_dma.h ****   XMC_DMA_CH_TRANSFER_TYPE_MULTI_BLOCK_SRCADR_LINKED_DSTADR_RELOAD,     /**< Multi-block: src addre
 123:E:/NOVA/Assets/IFX_P2G-HW-SW_V1.0.4/Firmware_Software/DAVE project/P2G_FW/Libraries/XMCLib/inc\xmc_dma.h ****   XMC_DMA_CH_TRANSFER_TYPE_MULTI_BLOCK_SRCADR_LINKED_DSTADR_LINKED      /**< Multi-block: src addre
 124:E:/NOVA/Assets/IFX_P2G-HW-SW_V1.0.4/Firmware_Software/DAVE project/P2G_FW/Libraries/XMCLib/inc\xmc_dma.h **** } XMC_DMA_CH_TRANSFER_TYPE_t;
 125:E:/NOVA/Assets/IFX_P2G-HW-SW_V1.0.4/Firmware_Software/DAVE project/P2G_FW/Libraries/XMCLib/inc\xmc_dma.h **** 
 126:E:/NOVA/Assets/IFX_P2G-HW-SW_V1.0.4/Firmware_Software/DAVE project/P2G_FW/Libraries/XMCLib/inc\xmc_dma.h **** /**
 127:E:/NOVA/Assets/IFX_P2G-HW-SW_V1.0.4/Firmware_Software/DAVE project/P2G_FW/Libraries/XMCLib/inc\xmc_dma.h ****  * DMA transfer flow modes
 128:E:/NOVA/Assets/IFX_P2G-HW-SW_V1.0.4/Firmware_Software/DAVE project/P2G_FW/Libraries/XMCLib/inc\xmc_dma.h ****  */
 129:E:/NOVA/Assets/IFX_P2G-HW-SW_V1.0.4/Firmware_Software/DAVE project/P2G_FW/Libraries/XMCLib/inc\xmc_dma.h **** typedef enum XMC_DMA_CH_TRANSFER_FLOW
 130:E:/NOVA/Assets/IFX_P2G-HW-SW_V1.0.4/Firmware_Software/DAVE project/P2G_FW/Libraries/XMCLib/inc\xmc_dma.h **** {
 131:E:/NOVA/Assets/IFX_P2G-HW-SW_V1.0.4/Firmware_Software/DAVE project/P2G_FW/Libraries/XMCLib/inc\xmc_dma.h ****   XMC_DMA_CH_TRANSFER_FLOW_M2M_DMA    = 0x0UL, /**< Memory to memory (DMA flow controller) */
 132:E:/NOVA/Assets/IFX_P2G-HW-SW_V1.0.4/Firmware_Software/DAVE project/P2G_FW/Libraries/XMCLib/inc\xmc_dma.h ****   XMC_DMA_CH_TRANSFER_FLOW_M2P_DMA    = 0x1UL, /**< Memory to peripheral (DMA flow controller) */
 133:E:/NOVA/Assets/IFX_P2G-HW-SW_V1.0.4/Firmware_Software/DAVE project/P2G_FW/Libraries/XMCLib/inc\xmc_dma.h ****   XMC_DMA_CH_TRANSFER_FLOW_P2M_DMA    = 0x2UL, /**< Peripheral to memory (DMA flow controller) */
 134:E:/NOVA/Assets/IFX_P2G-HW-SW_V1.0.4/Firmware_Software/DAVE project/P2G_FW/Libraries/XMCLib/inc\xmc_dma.h ****   XMC_DMA_CH_TRANSFER_FLOW_P2P_DMA    = 0x3UL, /**< Peripheral to peripheral (DMA flow controller) 
 135:E:/NOVA/Assets/IFX_P2G-HW-SW_V1.0.4/Firmware_Software/DAVE project/P2G_FW/Libraries/XMCLib/inc\xmc_dma.h ****   XMC_DMA_CH_TRANSFER_FLOW_P2M_PER    = 0x4UL, /**< Peripheral to memory (Peripheral flow controlle
 136:E:/NOVA/Assets/IFX_P2G-HW-SW_V1.0.4/Firmware_Software/DAVE project/P2G_FW/Libraries/XMCLib/inc\xmc_dma.h ****   XMC_DMA_CH_TRANSFER_FLOW_P2P_SRCPER = 0x5UL, /**< Peripheral to peripheral (Source peripheral flo
 137:E:/NOVA/Assets/IFX_P2G-HW-SW_V1.0.4/Firmware_Software/DAVE project/P2G_FW/Libraries/XMCLib/inc\xmc_dma.h ****   XMC_DMA_CH_TRANSFER_FLOW_M2P_PER    = 0x6UL, /**< Memory to peripheral (Peripheral flow controlle
 138:E:/NOVA/Assets/IFX_P2G-HW-SW_V1.0.4/Firmware_Software/DAVE project/P2G_FW/Libraries/XMCLib/inc\xmc_dma.h ****   XMC_DMA_CH_TRANSFER_FLOW_P2P_DSTPER = 0x7UL  /**< Peripheral to peripheral (Destination periphera
 139:E:/NOVA/Assets/IFX_P2G-HW-SW_V1.0.4/Firmware_Software/DAVE project/P2G_FW/Libraries/XMCLib/inc\xmc_dma.h **** } XMC_DMA_CH_TRANSFER_FLOW_t;
 140:E:/NOVA/Assets/IFX_P2G-HW-SW_V1.0.4/Firmware_Software/DAVE project/P2G_FW/Libraries/XMCLib/inc\xmc_dma.h **** 
 141:E:/NOVA/Assets/IFX_P2G-HW-SW_V1.0.4/Firmware_Software/DAVE project/P2G_FW/Libraries/XMCLib/inc\xmc_dma.h **** /**
 142:E:/NOVA/Assets/IFX_P2G-HW-SW_V1.0.4/Firmware_Software/DAVE project/P2G_FW/Libraries/XMCLib/inc\xmc_dma.h ****  * Valid burst length values
 143:E:/NOVA/Assets/IFX_P2G-HW-SW_V1.0.4/Firmware_Software/DAVE project/P2G_FW/Libraries/XMCLib/inc\xmc_dma.h ****  */
 144:E:/NOVA/Assets/IFX_P2G-HW-SW_V1.0.4/Firmware_Software/DAVE project/P2G_FW/Libraries/XMCLib/inc\xmc_dma.h **** typedef enum XMC_DMA_CH_BURST_LENGTH
 145:E:/NOVA/Assets/IFX_P2G-HW-SW_V1.0.4/Firmware_Software/DAVE project/P2G_FW/Libraries/XMCLib/inc\xmc_dma.h **** {
 146:E:/NOVA/Assets/IFX_P2G-HW-SW_V1.0.4/Firmware_Software/DAVE project/P2G_FW/Libraries/XMCLib/inc\xmc_dma.h ****   XMC_DMA_CH_BURST_LENGTH_1 = 0x0UL, /**< Burst length: 1 word */
 147:E:/NOVA/Assets/IFX_P2G-HW-SW_V1.0.4/Firmware_Software/DAVE project/P2G_FW/Libraries/XMCLib/inc\xmc_dma.h ****   XMC_DMA_CH_BURST_LENGTH_4 = 0x1UL, /**< Burst length: 4 words */
 148:E:/NOVA/Assets/IFX_P2G-HW-SW_V1.0.4/Firmware_Software/DAVE project/P2G_FW/Libraries/XMCLib/inc\xmc_dma.h ****   XMC_DMA_CH_BURST_LENGTH_8 = 0x2UL  /**< Burst length: 8 words */
 149:E:/NOVA/Assets/IFX_P2G-HW-SW_V1.0.4/Firmware_Software/DAVE project/P2G_FW/Libraries/XMCLib/inc\xmc_dma.h **** } XMC_DMA_CH_BURST_LENGTH_t;
 150:E:/NOVA/Assets/IFX_P2G-HW-SW_V1.0.4/Firmware_Software/DAVE project/P2G_FW/Libraries/XMCLib/inc\xmc_dma.h **** 
 151:E:/NOVA/Assets/IFX_P2G-HW-SW_V1.0.4/Firmware_Software/DAVE project/P2G_FW/Libraries/XMCLib/inc\xmc_dma.h **** /**
 152:E:/NOVA/Assets/IFX_P2G-HW-SW_V1.0.4/Firmware_Software/DAVE project/P2G_FW/Libraries/XMCLib/inc\xmc_dma.h ****  * Valid transfer width values
 153:E:/NOVA/Assets/IFX_P2G-HW-SW_V1.0.4/Firmware_Software/DAVE project/P2G_FW/Libraries/XMCLib/inc\xmc_dma.h ****  */
 154:E:/NOVA/Assets/IFX_P2G-HW-SW_V1.0.4/Firmware_Software/DAVE project/P2G_FW/Libraries/XMCLib/inc\xmc_dma.h **** typedef enum XMC_DMA_CH_TRANSFER_WIDTH
 155:E:/NOVA/Assets/IFX_P2G-HW-SW_V1.0.4/Firmware_Software/DAVE project/P2G_FW/Libraries/XMCLib/inc\xmc_dma.h **** {
 156:E:/NOVA/Assets/IFX_P2G-HW-SW_V1.0.4/Firmware_Software/DAVE project/P2G_FW/Libraries/XMCLib/inc\xmc_dma.h ****   XMC_DMA_CH_TRANSFER_WIDTH_8  = 0x0UL, /**< 8-bit transfer width */
 157:E:/NOVA/Assets/IFX_P2G-HW-SW_V1.0.4/Firmware_Software/DAVE project/P2G_FW/Libraries/XMCLib/inc\xmc_dma.h ****   XMC_DMA_CH_TRANSFER_WIDTH_16 = 0x1UL, /**< 16-bit transfer width */
 158:E:/NOVA/Assets/IFX_P2G-HW-SW_V1.0.4/Firmware_Software/DAVE project/P2G_FW/Libraries/XMCLib/inc\xmc_dma.h ****   XMC_DMA_CH_TRANSFER_WIDTH_32 = 0x2UL  /**< 32-bit transfer width */
 159:E:/NOVA/Assets/IFX_P2G-HW-SW_V1.0.4/Firmware_Software/DAVE project/P2G_FW/Libraries/XMCLib/inc\xmc_dma.h **** } XMC_DMA_CH_TRANSFER_WIDTH_t;
 160:E:/NOVA/Assets/IFX_P2G-HW-SW_V1.0.4/Firmware_Software/DAVE project/P2G_FW/Libraries/XMCLib/inc\xmc_dma.h **** 
 161:E:/NOVA/Assets/IFX_P2G-HW-SW_V1.0.4/Firmware_Software/DAVE project/P2G_FW/Libraries/XMCLib/inc\xmc_dma.h **** /**
 162:E:/NOVA/Assets/IFX_P2G-HW-SW_V1.0.4/Firmware_Software/DAVE project/P2G_FW/Libraries/XMCLib/inc\xmc_dma.h ****  * DMA address count mode
 163:E:/NOVA/Assets/IFX_P2G-HW-SW_V1.0.4/Firmware_Software/DAVE project/P2G_FW/Libraries/XMCLib/inc\xmc_dma.h ****  */
 164:E:/NOVA/Assets/IFX_P2G-HW-SW_V1.0.4/Firmware_Software/DAVE project/P2G_FW/Libraries/XMCLib/inc\xmc_dma.h **** typedef enum XMC_DMA_CH_ADDRESS_COUNT_MODE
 165:E:/NOVA/Assets/IFX_P2G-HW-SW_V1.0.4/Firmware_Software/DAVE project/P2G_FW/Libraries/XMCLib/inc\xmc_dma.h **** {
 166:E:/NOVA/Assets/IFX_P2G-HW-SW_V1.0.4/Firmware_Software/DAVE project/P2G_FW/Libraries/XMCLib/inc\xmc_dma.h ****   XMC_DMA_CH_ADDRESS_COUNT_MODE_INCREMENT = 0x0UL, /**< Address count mode: increment */
 167:E:/NOVA/Assets/IFX_P2G-HW-SW_V1.0.4/Firmware_Software/DAVE project/P2G_FW/Libraries/XMCLib/inc\xmc_dma.h ****   XMC_DMA_CH_ADDRESS_COUNT_MODE_DECREMENT = 0x1UL, /**< Address count mode: decrement */
 168:E:/NOVA/Assets/IFX_P2G-HW-SW_V1.0.4/Firmware_Software/DAVE project/P2G_FW/Libraries/XMCLib/inc\xmc_dma.h ****   XMC_DMA_CH_ADDRESS_COUNT_MODE_NO_CHANGE = 0x2UL  /**< Address count mode: no change */
 169:E:/NOVA/Assets/IFX_P2G-HW-SW_V1.0.4/Firmware_Software/DAVE project/P2G_FW/Libraries/XMCLib/inc\xmc_dma.h **** } XMC_DMA_CH_ADDRESS_COUNT_MODE_t;
 170:E:/NOVA/Assets/IFX_P2G-HW-SW_V1.0.4/Firmware_Software/DAVE project/P2G_FW/Libraries/XMCLib/inc\xmc_dma.h **** 
 171:E:/NOVA/Assets/IFX_P2G-HW-SW_V1.0.4/Firmware_Software/DAVE project/P2G_FW/Libraries/XMCLib/inc\xmc_dma.h **** /**
 172:E:/NOVA/Assets/IFX_P2G-HW-SW_V1.0.4/Firmware_Software/DAVE project/P2G_FW/Libraries/XMCLib/inc\xmc_dma.h ****  * DMA channel priorities
 173:E:/NOVA/Assets/IFX_P2G-HW-SW_V1.0.4/Firmware_Software/DAVE project/P2G_FW/Libraries/XMCLib/inc\xmc_dma.h ****  */
 174:E:/NOVA/Assets/IFX_P2G-HW-SW_V1.0.4/Firmware_Software/DAVE project/P2G_FW/Libraries/XMCLib/inc\xmc_dma.h **** typedef enum XMC_DMA_CH_PRIORITY
 175:E:/NOVA/Assets/IFX_P2G-HW-SW_V1.0.4/Firmware_Software/DAVE project/P2G_FW/Libraries/XMCLib/inc\xmc_dma.h **** {
 176:E:/NOVA/Assets/IFX_P2G-HW-SW_V1.0.4/Firmware_Software/DAVE project/P2G_FW/Libraries/XMCLib/inc\xmc_dma.h ****   XMC_DMA_CH_PRIORITY_0 = 0x0UL << GPDMA0_CH_CFGL_CH_PRIOR_Pos, /**< DMA channel priority 0 (low) *
 177:E:/NOVA/Assets/IFX_P2G-HW-SW_V1.0.4/Firmware_Software/DAVE project/P2G_FW/Libraries/XMCLib/inc\xmc_dma.h ****   XMC_DMA_CH_PRIORITY_1 = 0x1UL << GPDMA0_CH_CFGL_CH_PRIOR_Pos, /**< DMA channel priority 1 */
 178:E:/NOVA/Assets/IFX_P2G-HW-SW_V1.0.4/Firmware_Software/DAVE project/P2G_FW/Libraries/XMCLib/inc\xmc_dma.h ****   XMC_DMA_CH_PRIORITY_2 = 0x2UL << GPDMA0_CH_CFGL_CH_PRIOR_Pos, /**< DMA channel priority 2 */
 179:E:/NOVA/Assets/IFX_P2G-HW-SW_V1.0.4/Firmware_Software/DAVE project/P2G_FW/Libraries/XMCLib/inc\xmc_dma.h ****   XMC_DMA_CH_PRIORITY_3 = 0x3UL << GPDMA0_CH_CFGL_CH_PRIOR_Pos, /**< DMA channel priority 3 */
 180:E:/NOVA/Assets/IFX_P2G-HW-SW_V1.0.4/Firmware_Software/DAVE project/P2G_FW/Libraries/XMCLib/inc\xmc_dma.h ****   XMC_DMA_CH_PRIORITY_4 = 0x4UL << GPDMA0_CH_CFGL_CH_PRIOR_Pos, /**< DMA channel priority 4 */
 181:E:/NOVA/Assets/IFX_P2G-HW-SW_V1.0.4/Firmware_Software/DAVE project/P2G_FW/Libraries/XMCLib/inc\xmc_dma.h ****   XMC_DMA_CH_PRIORITY_5 = 0x5UL << GPDMA0_CH_CFGL_CH_PRIOR_Pos, /**< DMA channel priority 5 */
 182:E:/NOVA/Assets/IFX_P2G-HW-SW_V1.0.4/Firmware_Software/DAVE project/P2G_FW/Libraries/XMCLib/inc\xmc_dma.h ****   XMC_DMA_CH_PRIORITY_6 = 0x6UL << GPDMA0_CH_CFGL_CH_PRIOR_Pos, /**< DMA channel priority 6 */
 183:E:/NOVA/Assets/IFX_P2G-HW-SW_V1.0.4/Firmware_Software/DAVE project/P2G_FW/Libraries/XMCLib/inc\xmc_dma.h ****   XMC_DMA_CH_PRIORITY_7 = 0x7UL << GPDMA0_CH_CFGL_CH_PRIOR_Pos  /**< DMA channel priority 7 (high) 
 184:E:/NOVA/Assets/IFX_P2G-HW-SW_V1.0.4/Firmware_Software/DAVE project/P2G_FW/Libraries/XMCLib/inc\xmc_dma.h **** } XMC_DMA_CH_PRIORITY_t;
 185:E:/NOVA/Assets/IFX_P2G-HW-SW_V1.0.4/Firmware_Software/DAVE project/P2G_FW/Libraries/XMCLib/inc\xmc_dma.h **** 
 186:E:/NOVA/Assets/IFX_P2G-HW-SW_V1.0.4/Firmware_Software/DAVE project/P2G_FW/Libraries/XMCLib/inc\xmc_dma.h **** /**
 187:E:/NOVA/Assets/IFX_P2G-HW-SW_V1.0.4/Firmware_Software/DAVE project/P2G_FW/Libraries/XMCLib/inc\xmc_dma.h ****  * Source handshake interface
 188:E:/NOVA/Assets/IFX_P2G-HW-SW_V1.0.4/Firmware_Software/DAVE project/P2G_FW/Libraries/XMCLib/inc\xmc_dma.h ****  */
 189:E:/NOVA/Assets/IFX_P2G-HW-SW_V1.0.4/Firmware_Software/DAVE project/P2G_FW/Libraries/XMCLib/inc\xmc_dma.h **** typedef enum XMC_DMA_CH_SRC_HANDSHAKING
 190:E:/NOVA/Assets/IFX_P2G-HW-SW_V1.0.4/Firmware_Software/DAVE project/P2G_FW/Libraries/XMCLib/inc\xmc_dma.h **** {
 191:E:/NOVA/Assets/IFX_P2G-HW-SW_V1.0.4/Firmware_Software/DAVE project/P2G_FW/Libraries/XMCLib/inc\xmc_dma.h ****   XMC_DMA_CH_SRC_HANDSHAKING_HARDWARE = 0x0UL << GPDMA0_CH_CFGL_HS_SEL_SRC_Pos, /**< Source: hardwa
 192:E:/NOVA/Assets/IFX_P2G-HW-SW_V1.0.4/Firmware_Software/DAVE project/P2G_FW/Libraries/XMCLib/inc\xmc_dma.h ****   XMC_DMA_CH_SRC_HANDSHAKING_SOFTWARE = 0x1UL << GPDMA0_CH_CFGL_HS_SEL_SRC_Pos  /**< Source: softwa
 193:E:/NOVA/Assets/IFX_P2G-HW-SW_V1.0.4/Firmware_Software/DAVE project/P2G_FW/Libraries/XMCLib/inc\xmc_dma.h **** } XMC_DMA_CH_SRC_HANDSHAKING_t;
 194:E:/NOVA/Assets/IFX_P2G-HW-SW_V1.0.4/Firmware_Software/DAVE project/P2G_FW/Libraries/XMCLib/inc\xmc_dma.h **** 
 195:E:/NOVA/Assets/IFX_P2G-HW-SW_V1.0.4/Firmware_Software/DAVE project/P2G_FW/Libraries/XMCLib/inc\xmc_dma.h **** /**
 196:E:/NOVA/Assets/IFX_P2G-HW-SW_V1.0.4/Firmware_Software/DAVE project/P2G_FW/Libraries/XMCLib/inc\xmc_dma.h ****  * Destination handshake interface
 197:E:/NOVA/Assets/IFX_P2G-HW-SW_V1.0.4/Firmware_Software/DAVE project/P2G_FW/Libraries/XMCLib/inc\xmc_dma.h ****  */
 198:E:/NOVA/Assets/IFX_P2G-HW-SW_V1.0.4/Firmware_Software/DAVE project/P2G_FW/Libraries/XMCLib/inc\xmc_dma.h **** typedef enum XMC_DMA_CH_DST_HANDSHAKING
 199:E:/NOVA/Assets/IFX_P2G-HW-SW_V1.0.4/Firmware_Software/DAVE project/P2G_FW/Libraries/XMCLib/inc\xmc_dma.h **** {
 200:E:/NOVA/Assets/IFX_P2G-HW-SW_V1.0.4/Firmware_Software/DAVE project/P2G_FW/Libraries/XMCLib/inc\xmc_dma.h ****   XMC_DMA_CH_DST_HANDSHAKING_HARDWARE = 0x0UL << GPDMA0_CH_CFGL_HS_SEL_DST_Pos, /**< Destination: h
 201:E:/NOVA/Assets/IFX_P2G-HW-SW_V1.0.4/Firmware_Software/DAVE project/P2G_FW/Libraries/XMCLib/inc\xmc_dma.h ****   XMC_DMA_CH_DST_HANDSHAKING_SOFTWARE = 0x1UL << GPDMA0_CH_CFGL_HS_SEL_DST_Pos  /**< Destination: s
 202:E:/NOVA/Assets/IFX_P2G-HW-SW_V1.0.4/Firmware_Software/DAVE project/P2G_FW/Libraries/XMCLib/inc\xmc_dma.h **** } XMC_DMA_CH_DST_HANDSHAKING_t;
 203:E:/NOVA/Assets/IFX_P2G-HW-SW_V1.0.4/Firmware_Software/DAVE project/P2G_FW/Libraries/XMCLib/inc\xmc_dma.h **** 
 204:E:/NOVA/Assets/IFX_P2G-HW-SW_V1.0.4/Firmware_Software/DAVE project/P2G_FW/Libraries/XMCLib/inc\xmc_dma.h **** /**
 205:E:/NOVA/Assets/IFX_P2G-HW-SW_V1.0.4/Firmware_Software/DAVE project/P2G_FW/Libraries/XMCLib/inc\xmc_dma.h ****  * DMA hardware handshaking interface
 206:E:/NOVA/Assets/IFX_P2G-HW-SW_V1.0.4/Firmware_Software/DAVE project/P2G_FW/Libraries/XMCLib/inc\xmc_dma.h ****  * Hardware handshaking available only if DMA is flow controller
 207:E:/NOVA/Assets/IFX_P2G-HW-SW_V1.0.4/Firmware_Software/DAVE project/P2G_FW/Libraries/XMCLib/inc\xmc_dma.h ****  */
 208:E:/NOVA/Assets/IFX_P2G-HW-SW_V1.0.4/Firmware_Software/DAVE project/P2G_FW/Libraries/XMCLib/inc\xmc_dma.h **** typedef enum XMC_DMA_CH_HARDWARE_HANDSHAKING_IF
 209:E:/NOVA/Assets/IFX_P2G-HW-SW_V1.0.4/Firmware_Software/DAVE project/P2G_FW/Libraries/XMCLib/inc\xmc_dma.h **** {
 210:E:/NOVA/Assets/IFX_P2G-HW-SW_V1.0.4/Firmware_Software/DAVE project/P2G_FW/Libraries/XMCLib/inc\xmc_dma.h ****   XMC_DMA_CH_HARDWARE_HANDSHAKING_IF_0 = 0x0UL, /**< Hardware handshaking interface 0 */
 211:E:/NOVA/Assets/IFX_P2G-HW-SW_V1.0.4/Firmware_Software/DAVE project/P2G_FW/Libraries/XMCLib/inc\xmc_dma.h ****   XMC_DMA_CH_HARDWARE_HANDSHAKING_IF_1 = 0x1UL, /**< Hardware handshaking interface 1 */
 212:E:/NOVA/Assets/IFX_P2G-HW-SW_V1.0.4/Firmware_Software/DAVE project/P2G_FW/Libraries/XMCLib/inc\xmc_dma.h ****   XMC_DMA_CH_HARDWARE_HANDSHAKING_IF_2 = 0x2UL, /**< Hardware handshaking interface 2 */
 213:E:/NOVA/Assets/IFX_P2G-HW-SW_V1.0.4/Firmware_Software/DAVE project/P2G_FW/Libraries/XMCLib/inc\xmc_dma.h ****   XMC_DMA_CH_HARDWARE_HANDSHAKING_IF_3 = 0x3UL, /**< Hardware handshaking interface 3 */
 214:E:/NOVA/Assets/IFX_P2G-HW-SW_V1.0.4/Firmware_Software/DAVE project/P2G_FW/Libraries/XMCLib/inc\xmc_dma.h ****   XMC_DMA_CH_HARDWARE_HANDSHAKING_IF_4 = 0x4UL, /**< Hardware handshaking interface 4 */
 215:E:/NOVA/Assets/IFX_P2G-HW-SW_V1.0.4/Firmware_Software/DAVE project/P2G_FW/Libraries/XMCLib/inc\xmc_dma.h ****   XMC_DMA_CH_HARDWARE_HANDSHAKING_IF_5 = 0x5UL, /**< Hardware handshaking interface 5 */
 216:E:/NOVA/Assets/IFX_P2G-HW-SW_V1.0.4/Firmware_Software/DAVE project/P2G_FW/Libraries/XMCLib/inc\xmc_dma.h ****   XMC_DMA_CH_HARDWARE_HANDSHAKING_IF_6 = 0x6UL, /**< Hardware handshaking interface 6 */
 217:E:/NOVA/Assets/IFX_P2G-HW-SW_V1.0.4/Firmware_Software/DAVE project/P2G_FW/Libraries/XMCLib/inc\xmc_dma.h ****   XMC_DMA_CH_HARDWARE_HANDSHAKING_IF_7 = 0x7UL  /**< Hardware handshaking interface 7 */
 218:E:/NOVA/Assets/IFX_P2G-HW-SW_V1.0.4/Firmware_Software/DAVE project/P2G_FW/Libraries/XMCLib/inc\xmc_dma.h **** } XMC_DMA_CH_HARDWARE_HANDSHAKING_IF_t;
 219:E:/NOVA/Assets/IFX_P2G-HW-SW_V1.0.4/Firmware_Software/DAVE project/P2G_FW/Libraries/XMCLib/inc\xmc_dma.h **** 
 220:E:/NOVA/Assets/IFX_P2G-HW-SW_V1.0.4/Firmware_Software/DAVE project/P2G_FW/Libraries/XMCLib/inc\xmc_dma.h **** /**
 221:E:/NOVA/Assets/IFX_P2G-HW-SW_V1.0.4/Firmware_Software/DAVE project/P2G_FW/Libraries/XMCLib/inc\xmc_dma.h ****  * DMA events
 222:E:/NOVA/Assets/IFX_P2G-HW-SW_V1.0.4/Firmware_Software/DAVE project/P2G_FW/Libraries/XMCLib/inc\xmc_dma.h ****  */
 223:E:/NOVA/Assets/IFX_P2G-HW-SW_V1.0.4/Firmware_Software/DAVE project/P2G_FW/Libraries/XMCLib/inc\xmc_dma.h **** typedef enum XMC_DMA_CH_EVENT
 224:E:/NOVA/Assets/IFX_P2G-HW-SW_V1.0.4/Firmware_Software/DAVE project/P2G_FW/Libraries/XMCLib/inc\xmc_dma.h **** {
 225:E:/NOVA/Assets/IFX_P2G-HW-SW_V1.0.4/Firmware_Software/DAVE project/P2G_FW/Libraries/XMCLib/inc\xmc_dma.h ****   XMC_DMA_CH_EVENT_TRANSFER_COMPLETE        = 0x1UL, /**< Transfer complete event */
 226:E:/NOVA/Assets/IFX_P2G-HW-SW_V1.0.4/Firmware_Software/DAVE project/P2G_FW/Libraries/XMCLib/inc\xmc_dma.h ****   XMC_DMA_CH_EVENT_BLOCK_TRANSFER_COMPLETE  = 0x2UL, /**< Block transfer complete event */
 227:E:/NOVA/Assets/IFX_P2G-HW-SW_V1.0.4/Firmware_Software/DAVE project/P2G_FW/Libraries/XMCLib/inc\xmc_dma.h ****   XMC_DMA_CH_EVENT_SRC_TRANSACTION_COMPLETE = 0x4UL, /**< Source transaction complete event */
 228:E:/NOVA/Assets/IFX_P2G-HW-SW_V1.0.4/Firmware_Software/DAVE project/P2G_FW/Libraries/XMCLib/inc\xmc_dma.h ****   XMC_DMA_CH_EVENT_DST_TRANSACTION_COMPLETE = 0x8UL, /**< Destination transaction complete event */
 229:E:/NOVA/Assets/IFX_P2G-HW-SW_V1.0.4/Firmware_Software/DAVE project/P2G_FW/Libraries/XMCLib/inc\xmc_dma.h ****   XMC_DMA_CH_EVENT_ERROR                    = 0x10UL /**< DMA error event */
 230:E:/NOVA/Assets/IFX_P2G-HW-SW_V1.0.4/Firmware_Software/DAVE project/P2G_FW/Libraries/XMCLib/inc\xmc_dma.h **** } XMC_DMA_CH_EVENT_t;
 231:E:/NOVA/Assets/IFX_P2G-HW-SW_V1.0.4/Firmware_Software/DAVE project/P2G_FW/Libraries/XMCLib/inc\xmc_dma.h **** 
 232:E:/NOVA/Assets/IFX_P2G-HW-SW_V1.0.4/Firmware_Software/DAVE project/P2G_FW/Libraries/XMCLib/inc\xmc_dma.h **** /**
 233:E:/NOVA/Assets/IFX_P2G-HW-SW_V1.0.4/Firmware_Software/DAVE project/P2G_FW/Libraries/XMCLib/inc\xmc_dma.h ****  * Transaction types
 234:E:/NOVA/Assets/IFX_P2G-HW-SW_V1.0.4/Firmware_Software/DAVE project/P2G_FW/Libraries/XMCLib/inc\xmc_dma.h ****  */
 235:E:/NOVA/Assets/IFX_P2G-HW-SW_V1.0.4/Firmware_Software/DAVE project/P2G_FW/Libraries/XMCLib/inc\xmc_dma.h **** typedef enum XMC_DMA_CH_TRANSACTION_TYPE
 236:E:/NOVA/Assets/IFX_P2G-HW-SW_V1.0.4/Firmware_Software/DAVE project/P2G_FW/Libraries/XMCLib/inc\xmc_dma.h **** {
 237:E:/NOVA/Assets/IFX_P2G-HW-SW_V1.0.4/Firmware_Software/DAVE project/P2G_FW/Libraries/XMCLib/inc\xmc_dma.h ****   XMC_DMA_CH_TRANSACTION_TYPE_SINGLE, /**< Single DMA transaction */
 238:E:/NOVA/Assets/IFX_P2G-HW-SW_V1.0.4/Firmware_Software/DAVE project/P2G_FW/Libraries/XMCLib/inc\xmc_dma.h ****   XMC_DMA_CH_TRANSACTION_TYPE_BURST   /**< Burst transaction */
 239:E:/NOVA/Assets/IFX_P2G-HW-SW_V1.0.4/Firmware_Software/DAVE project/P2G_FW/Libraries/XMCLib/inc\xmc_dma.h **** } XMC_DMA_CH_TRANSACTION_TYPE_t;
 240:E:/NOVA/Assets/IFX_P2G-HW-SW_V1.0.4/Firmware_Software/DAVE project/P2G_FW/Libraries/XMCLib/inc\xmc_dma.h **** 
 241:E:/NOVA/Assets/IFX_P2G-HW-SW_V1.0.4/Firmware_Software/DAVE project/P2G_FW/Libraries/XMCLib/inc\xmc_dma.h **** /**
 242:E:/NOVA/Assets/IFX_P2G-HW-SW_V1.0.4/Firmware_Software/DAVE project/P2G_FW/Libraries/XMCLib/inc\xmc_dma.h ****  * DMA channel status values
 243:E:/NOVA/Assets/IFX_P2G-HW-SW_V1.0.4/Firmware_Software/DAVE project/P2G_FW/Libraries/XMCLib/inc\xmc_dma.h ****  */
 244:E:/NOVA/Assets/IFX_P2G-HW-SW_V1.0.4/Firmware_Software/DAVE project/P2G_FW/Libraries/XMCLib/inc\xmc_dma.h **** typedef enum XMC_DMA_CH_STATUS
 245:E:/NOVA/Assets/IFX_P2G-HW-SW_V1.0.4/Firmware_Software/DAVE project/P2G_FW/Libraries/XMCLib/inc\xmc_dma.h **** {
 246:E:/NOVA/Assets/IFX_P2G-HW-SW_V1.0.4/Firmware_Software/DAVE project/P2G_FW/Libraries/XMCLib/inc\xmc_dma.h ****   XMC_DMA_CH_STATUS_OK,    /**< DMA status OK */
 247:E:/NOVA/Assets/IFX_P2G-HW-SW_V1.0.4/Firmware_Software/DAVE project/P2G_FW/Libraries/XMCLib/inc\xmc_dma.h ****   XMC_DMA_CH_STATUS_ERROR, /**< DMA status error */
 248:E:/NOVA/Assets/IFX_P2G-HW-SW_V1.0.4/Firmware_Software/DAVE project/P2G_FW/Libraries/XMCLib/inc\xmc_dma.h ****   XMC_DMA_CH_STATUS_BUSY   /**< DMA is busy */
 249:E:/NOVA/Assets/IFX_P2G-HW-SW_V1.0.4/Firmware_Software/DAVE project/P2G_FW/Libraries/XMCLib/inc\xmc_dma.h **** } XMC_DMA_CH_STATUS_t;
 250:E:/NOVA/Assets/IFX_P2G-HW-SW_V1.0.4/Firmware_Software/DAVE project/P2G_FW/Libraries/XMCLib/inc\xmc_dma.h **** 
 251:E:/NOVA/Assets/IFX_P2G-HW-SW_V1.0.4/Firmware_Software/DAVE project/P2G_FW/Libraries/XMCLib/inc\xmc_dma.h **** /*******************************************************************************
 252:E:/NOVA/Assets/IFX_P2G-HW-SW_V1.0.4/Firmware_Software/DAVE project/P2G_FW/Libraries/XMCLib/inc\xmc_dma.h ****  * DATA STRUCTURES
 253:E:/NOVA/Assets/IFX_P2G-HW-SW_V1.0.4/Firmware_Software/DAVE project/P2G_FW/Libraries/XMCLib/inc\xmc_dma.h ****  *******************************************************************************/
 254:E:/NOVA/Assets/IFX_P2G-HW-SW_V1.0.4/Firmware_Software/DAVE project/P2G_FW/Libraries/XMCLib/inc\xmc_dma.h **** 
 255:E:/NOVA/Assets/IFX_P2G-HW-SW_V1.0.4/Firmware_Software/DAVE project/P2G_FW/Libraries/XMCLib/inc\xmc_dma.h **** /**
 256:E:/NOVA/Assets/IFX_P2G-HW-SW_V1.0.4/Firmware_Software/DAVE project/P2G_FW/Libraries/XMCLib/inc\xmc_dma.h ****  * DMA channel configuration structure <br>
 257:E:/NOVA/Assets/IFX_P2G-HW-SW_V1.0.4/Firmware_Software/DAVE project/P2G_FW/Libraries/XMCLib/inc\xmc_dma.h ****  *
 258:E:/NOVA/Assets/IFX_P2G-HW-SW_V1.0.4/Firmware_Software/DAVE project/P2G_FW/Libraries/XMCLib/inc\xmc_dma.h ****  * The structure represents a collection of all hardware registers used
 259:E:/NOVA/Assets/IFX_P2G-HW-SW_V1.0.4/Firmware_Software/DAVE project/P2G_FW/Libraries/XMCLib/inc\xmc_dma.h ****  * to configure the DMA channel. It is contained within the ::XMC_DMA_t
 260:E:/NOVA/Assets/IFX_P2G-HW-SW_V1.0.4/Firmware_Software/DAVE project/P2G_FW/Libraries/XMCLib/inc\xmc_dma.h ****  * structure. It's registers can be used to configure DMA transfer details
 261:E:/NOVA/Assets/IFX_P2G-HW-SW_V1.0.4/Firmware_Software/DAVE project/P2G_FW/Libraries/XMCLib/inc\xmc_dma.h ****  * like source address, destination address, block size, incrementation
 262:E:/NOVA/Assets/IFX_P2G-HW-SW_V1.0.4/Firmware_Software/DAVE project/P2G_FW/Libraries/XMCLib/inc\xmc_dma.h ****  * modes and the like.
 263:E:/NOVA/Assets/IFX_P2G-HW-SW_V1.0.4/Firmware_Software/DAVE project/P2G_FW/Libraries/XMCLib/inc\xmc_dma.h ****  */
 264:E:/NOVA/Assets/IFX_P2G-HW-SW_V1.0.4/Firmware_Software/DAVE project/P2G_FW/Libraries/XMCLib/inc\xmc_dma.h ****  
 265:E:/NOVA/Assets/IFX_P2G-HW-SW_V1.0.4/Firmware_Software/DAVE project/P2G_FW/Libraries/XMCLib/inc\xmc_dma.h **** typedef struct {
 266:E:/NOVA/Assets/IFX_P2G-HW-SW_V1.0.4/Firmware_Software/DAVE project/P2G_FW/Libraries/XMCLib/inc\xmc_dma.h ****   __IO uint32_t  SAR;
 267:E:/NOVA/Assets/IFX_P2G-HW-SW_V1.0.4/Firmware_Software/DAVE project/P2G_FW/Libraries/XMCLib/inc\xmc_dma.h ****   __I  uint32_t  RESERVED0;
 268:E:/NOVA/Assets/IFX_P2G-HW-SW_V1.0.4/Firmware_Software/DAVE project/P2G_FW/Libraries/XMCLib/inc\xmc_dma.h ****   __IO uint32_t  DAR;
 269:E:/NOVA/Assets/IFX_P2G-HW-SW_V1.0.4/Firmware_Software/DAVE project/P2G_FW/Libraries/XMCLib/inc\xmc_dma.h ****   __I  uint32_t  RESERVED1;
 270:E:/NOVA/Assets/IFX_P2G-HW-SW_V1.0.4/Firmware_Software/DAVE project/P2G_FW/Libraries/XMCLib/inc\xmc_dma.h ****   __IO uint32_t  LLP;
 271:E:/NOVA/Assets/IFX_P2G-HW-SW_V1.0.4/Firmware_Software/DAVE project/P2G_FW/Libraries/XMCLib/inc\xmc_dma.h ****   __I  uint32_t  RESERVED2;
 272:E:/NOVA/Assets/IFX_P2G-HW-SW_V1.0.4/Firmware_Software/DAVE project/P2G_FW/Libraries/XMCLib/inc\xmc_dma.h ****   __IO uint32_t  CTLL;
 273:E:/NOVA/Assets/IFX_P2G-HW-SW_V1.0.4/Firmware_Software/DAVE project/P2G_FW/Libraries/XMCLib/inc\xmc_dma.h ****   __IO uint32_t  CTLH;
 274:E:/NOVA/Assets/IFX_P2G-HW-SW_V1.0.4/Firmware_Software/DAVE project/P2G_FW/Libraries/XMCLib/inc\xmc_dma.h ****   __IO uint32_t  SSTAT;
 275:E:/NOVA/Assets/IFX_P2G-HW-SW_V1.0.4/Firmware_Software/DAVE project/P2G_FW/Libraries/XMCLib/inc\xmc_dma.h ****   __I  uint32_t  RESERVED3;
 276:E:/NOVA/Assets/IFX_P2G-HW-SW_V1.0.4/Firmware_Software/DAVE project/P2G_FW/Libraries/XMCLib/inc\xmc_dma.h ****   __IO uint32_t  DSTAT;
 277:E:/NOVA/Assets/IFX_P2G-HW-SW_V1.0.4/Firmware_Software/DAVE project/P2G_FW/Libraries/XMCLib/inc\xmc_dma.h ****   __I  uint32_t  RESERVED4;
 278:E:/NOVA/Assets/IFX_P2G-HW-SW_V1.0.4/Firmware_Software/DAVE project/P2G_FW/Libraries/XMCLib/inc\xmc_dma.h ****   __IO uint32_t  SSTATAR;
 279:E:/NOVA/Assets/IFX_P2G-HW-SW_V1.0.4/Firmware_Software/DAVE project/P2G_FW/Libraries/XMCLib/inc\xmc_dma.h ****   __I  uint32_t  RESERVED5;
 280:E:/NOVA/Assets/IFX_P2G-HW-SW_V1.0.4/Firmware_Software/DAVE project/P2G_FW/Libraries/XMCLib/inc\xmc_dma.h ****   __IO uint32_t  DSTATAR;
 281:E:/NOVA/Assets/IFX_P2G-HW-SW_V1.0.4/Firmware_Software/DAVE project/P2G_FW/Libraries/XMCLib/inc\xmc_dma.h ****   __I  uint32_t  RESERVED6;
 282:E:/NOVA/Assets/IFX_P2G-HW-SW_V1.0.4/Firmware_Software/DAVE project/P2G_FW/Libraries/XMCLib/inc\xmc_dma.h ****   __IO uint32_t  CFGL;
 283:E:/NOVA/Assets/IFX_P2G-HW-SW_V1.0.4/Firmware_Software/DAVE project/P2G_FW/Libraries/XMCLib/inc\xmc_dma.h ****   __IO uint32_t  CFGH;
 284:E:/NOVA/Assets/IFX_P2G-HW-SW_V1.0.4/Firmware_Software/DAVE project/P2G_FW/Libraries/XMCLib/inc\xmc_dma.h ****   __IO uint32_t  SGR;
 285:E:/NOVA/Assets/IFX_P2G-HW-SW_V1.0.4/Firmware_Software/DAVE project/P2G_FW/Libraries/XMCLib/inc\xmc_dma.h ****   __I  uint32_t  RESERVED7;
 286:E:/NOVA/Assets/IFX_P2G-HW-SW_V1.0.4/Firmware_Software/DAVE project/P2G_FW/Libraries/XMCLib/inc\xmc_dma.h ****   __IO uint32_t  DSR;
 287:E:/NOVA/Assets/IFX_P2G-HW-SW_V1.0.4/Firmware_Software/DAVE project/P2G_FW/Libraries/XMCLib/inc\xmc_dma.h ****   __I  uint32_t  RESERVED8;
 288:E:/NOVA/Assets/IFX_P2G-HW-SW_V1.0.4/Firmware_Software/DAVE project/P2G_FW/Libraries/XMCLib/inc\xmc_dma.h **** } GPDMA_CH_t;
 289:E:/NOVA/Assets/IFX_P2G-HW-SW_V1.0.4/Firmware_Software/DAVE project/P2G_FW/Libraries/XMCLib/inc\xmc_dma.h **** 
 290:E:/NOVA/Assets/IFX_P2G-HW-SW_V1.0.4/Firmware_Software/DAVE project/P2G_FW/Libraries/XMCLib/inc\xmc_dma.h **** /**
 291:E:/NOVA/Assets/IFX_P2G-HW-SW_V1.0.4/Firmware_Software/DAVE project/P2G_FW/Libraries/XMCLib/inc\xmc_dma.h ****  * DMA device structure <br>
 292:E:/NOVA/Assets/IFX_P2G-HW-SW_V1.0.4/Firmware_Software/DAVE project/P2G_FW/Libraries/XMCLib/inc\xmc_dma.h ****  *
 293:E:/NOVA/Assets/IFX_P2G-HW-SW_V1.0.4/Firmware_Software/DAVE project/P2G_FW/Libraries/XMCLib/inc\xmc_dma.h ****  * The structure represents a collection of all hardware registers used
 294:E:/NOVA/Assets/IFX_P2G-HW-SW_V1.0.4/Firmware_Software/DAVE project/P2G_FW/Libraries/XMCLib/inc\xmc_dma.h ****  * to configure the GPDMA peripheral on the XMC4000 series of microcontrollers.
 295:E:/NOVA/Assets/IFX_P2G-HW-SW_V1.0.4/Firmware_Software/DAVE project/P2G_FW/Libraries/XMCLib/inc\xmc_dma.h ****  * The registers can be accessed with ::XMC_DMA0 and ::XMC_DMA1.
 296:E:/NOVA/Assets/IFX_P2G-HW-SW_V1.0.4/Firmware_Software/DAVE project/P2G_FW/Libraries/XMCLib/inc\xmc_dma.h ****  */
 297:E:/NOVA/Assets/IFX_P2G-HW-SW_V1.0.4/Firmware_Software/DAVE project/P2G_FW/Libraries/XMCLib/inc\xmc_dma.h **** typedef struct {
 298:E:/NOVA/Assets/IFX_P2G-HW-SW_V1.0.4/Firmware_Software/DAVE project/P2G_FW/Libraries/XMCLib/inc\xmc_dma.h ****   GPDMA_CH_t CH[8];
 299:E:/NOVA/Assets/IFX_P2G-HW-SW_V1.0.4/Firmware_Software/DAVE project/P2G_FW/Libraries/XMCLib/inc\xmc_dma.h **** 
 300:E:/NOVA/Assets/IFX_P2G-HW-SW_V1.0.4/Firmware_Software/DAVE project/P2G_FW/Libraries/XMCLib/inc\xmc_dma.h ****   __IO uint32_t  RAWCHEV[10];
 301:E:/NOVA/Assets/IFX_P2G-HW-SW_V1.0.4/Firmware_Software/DAVE project/P2G_FW/Libraries/XMCLib/inc\xmc_dma.h ****   __I  uint32_t  STATUSCHEV[10];
 302:E:/NOVA/Assets/IFX_P2G-HW-SW_V1.0.4/Firmware_Software/DAVE project/P2G_FW/Libraries/XMCLib/inc\xmc_dma.h ****   __IO uint32_t  MASKCHEV[10];
 303:E:/NOVA/Assets/IFX_P2G-HW-SW_V1.0.4/Firmware_Software/DAVE project/P2G_FW/Libraries/XMCLib/inc\xmc_dma.h ****   __O  uint32_t  CLEARCHEV[10];
 304:E:/NOVA/Assets/IFX_P2G-HW-SW_V1.0.4/Firmware_Software/DAVE project/P2G_FW/Libraries/XMCLib/inc\xmc_dma.h ****   __I  uint32_t  STATUSGLEV;
 305:E:/NOVA/Assets/IFX_P2G-HW-SW_V1.0.4/Firmware_Software/DAVE project/P2G_FW/Libraries/XMCLib/inc\xmc_dma.h ****   __I  uint32_t  RESERVED20;
 306:E:/NOVA/Assets/IFX_P2G-HW-SW_V1.0.4/Firmware_Software/DAVE project/P2G_FW/Libraries/XMCLib/inc\xmc_dma.h ****   __IO uint32_t  REQSRCREG;
 307:E:/NOVA/Assets/IFX_P2G-HW-SW_V1.0.4/Firmware_Software/DAVE project/P2G_FW/Libraries/XMCLib/inc\xmc_dma.h ****   __I  uint32_t  RESERVED21;
 308:E:/NOVA/Assets/IFX_P2G-HW-SW_V1.0.4/Firmware_Software/DAVE project/P2G_FW/Libraries/XMCLib/inc\xmc_dma.h ****   __IO uint32_t  REQDSTREG;
 309:E:/NOVA/Assets/IFX_P2G-HW-SW_V1.0.4/Firmware_Software/DAVE project/P2G_FW/Libraries/XMCLib/inc\xmc_dma.h ****   __I  uint32_t  RESERVED22;
 310:E:/NOVA/Assets/IFX_P2G-HW-SW_V1.0.4/Firmware_Software/DAVE project/P2G_FW/Libraries/XMCLib/inc\xmc_dma.h ****   __IO uint32_t  SGLREQSRCREG;
 311:E:/NOVA/Assets/IFX_P2G-HW-SW_V1.0.4/Firmware_Software/DAVE project/P2G_FW/Libraries/XMCLib/inc\xmc_dma.h ****   __I  uint32_t  RESERVED23;
 312:E:/NOVA/Assets/IFX_P2G-HW-SW_V1.0.4/Firmware_Software/DAVE project/P2G_FW/Libraries/XMCLib/inc\xmc_dma.h ****   __IO uint32_t  SGLREQDSTREG;
 313:E:/NOVA/Assets/IFX_P2G-HW-SW_V1.0.4/Firmware_Software/DAVE project/P2G_FW/Libraries/XMCLib/inc\xmc_dma.h ****   __I  uint32_t  RESERVED24;
 314:E:/NOVA/Assets/IFX_P2G-HW-SW_V1.0.4/Firmware_Software/DAVE project/P2G_FW/Libraries/XMCLib/inc\xmc_dma.h ****   __IO uint32_t  LSTSRCREG;
 315:E:/NOVA/Assets/IFX_P2G-HW-SW_V1.0.4/Firmware_Software/DAVE project/P2G_FW/Libraries/XMCLib/inc\xmc_dma.h ****   __I  uint32_t  RESERVED25;
 316:E:/NOVA/Assets/IFX_P2G-HW-SW_V1.0.4/Firmware_Software/DAVE project/P2G_FW/Libraries/XMCLib/inc\xmc_dma.h ****   __IO uint32_t  LSTDSTREG;
 317:E:/NOVA/Assets/IFX_P2G-HW-SW_V1.0.4/Firmware_Software/DAVE project/P2G_FW/Libraries/XMCLib/inc\xmc_dma.h ****   __I  uint32_t  RESERVED26;
 318:E:/NOVA/Assets/IFX_P2G-HW-SW_V1.0.4/Firmware_Software/DAVE project/P2G_FW/Libraries/XMCLib/inc\xmc_dma.h ****   __IO uint32_t  DMACFGREG;
 319:E:/NOVA/Assets/IFX_P2G-HW-SW_V1.0.4/Firmware_Software/DAVE project/P2G_FW/Libraries/XMCLib/inc\xmc_dma.h ****   __I  uint32_t  RESERVED27;
 320:E:/NOVA/Assets/IFX_P2G-HW-SW_V1.0.4/Firmware_Software/DAVE project/P2G_FW/Libraries/XMCLib/inc\xmc_dma.h ****   __IO uint32_t  CHENREG;
 321:E:/NOVA/Assets/IFX_P2G-HW-SW_V1.0.4/Firmware_Software/DAVE project/P2G_FW/Libraries/XMCLib/inc\xmc_dma.h ****   __I  uint32_t  RESERVED28;
 322:E:/NOVA/Assets/IFX_P2G-HW-SW_V1.0.4/Firmware_Software/DAVE project/P2G_FW/Libraries/XMCLib/inc\xmc_dma.h ****   __I  uint32_t  ID;
 323:E:/NOVA/Assets/IFX_P2G-HW-SW_V1.0.4/Firmware_Software/DAVE project/P2G_FW/Libraries/XMCLib/inc\xmc_dma.h ****   __I  uint32_t  RESERVED29[19];
 324:E:/NOVA/Assets/IFX_P2G-HW-SW_V1.0.4/Firmware_Software/DAVE project/P2G_FW/Libraries/XMCLib/inc\xmc_dma.h ****   __I  uint32_t  TYPE;
 325:E:/NOVA/Assets/IFX_P2G-HW-SW_V1.0.4/Firmware_Software/DAVE project/P2G_FW/Libraries/XMCLib/inc\xmc_dma.h ****   __I  uint32_t  VERSION;
 326:E:/NOVA/Assets/IFX_P2G-HW-SW_V1.0.4/Firmware_Software/DAVE project/P2G_FW/Libraries/XMCLib/inc\xmc_dma.h **** } XMC_DMA_t;
 327:E:/NOVA/Assets/IFX_P2G-HW-SW_V1.0.4/Firmware_Software/DAVE project/P2G_FW/Libraries/XMCLib/inc\xmc_dma.h **** 
 328:E:/NOVA/Assets/IFX_P2G-HW-SW_V1.0.4/Firmware_Software/DAVE project/P2G_FW/Libraries/XMCLib/inc\xmc_dma.h **** /* Anonymous structure/union guard start */
 329:E:/NOVA/Assets/IFX_P2G-HW-SW_V1.0.4/Firmware_Software/DAVE project/P2G_FW/Libraries/XMCLib/inc\xmc_dma.h **** #if defined (__CC_ARM)
 330:E:/NOVA/Assets/IFX_P2G-HW-SW_V1.0.4/Firmware_Software/DAVE project/P2G_FW/Libraries/XMCLib/inc\xmc_dma.h ****   #pragma push
 331:E:/NOVA/Assets/IFX_P2G-HW-SW_V1.0.4/Firmware_Software/DAVE project/P2G_FW/Libraries/XMCLib/inc\xmc_dma.h ****   #pragma anon_unions
 332:E:/NOVA/Assets/IFX_P2G-HW-SW_V1.0.4/Firmware_Software/DAVE project/P2G_FW/Libraries/XMCLib/inc\xmc_dma.h **** #elif defined (__TASKING__)
 333:E:/NOVA/Assets/IFX_P2G-HW-SW_V1.0.4/Firmware_Software/DAVE project/P2G_FW/Libraries/XMCLib/inc\xmc_dma.h ****   #pragma warning 586
 334:E:/NOVA/Assets/IFX_P2G-HW-SW_V1.0.4/Firmware_Software/DAVE project/P2G_FW/Libraries/XMCLib/inc\xmc_dma.h **** #endif
 335:E:/NOVA/Assets/IFX_P2G-HW-SW_V1.0.4/Firmware_Software/DAVE project/P2G_FW/Libraries/XMCLib/inc\xmc_dma.h **** 
 336:E:/NOVA/Assets/IFX_P2G-HW-SW_V1.0.4/Firmware_Software/DAVE project/P2G_FW/Libraries/XMCLib/inc\xmc_dma.h **** /**
 337:E:/NOVA/Assets/IFX_P2G-HW-SW_V1.0.4/Firmware_Software/DAVE project/P2G_FW/Libraries/XMCLib/inc\xmc_dma.h ****  * DMA channel linked list item.
 338:E:/NOVA/Assets/IFX_P2G-HW-SW_V1.0.4/Firmware_Software/DAVE project/P2G_FW/Libraries/XMCLib/inc\xmc_dma.h ****  * Note: Needs to be word aligned
 339:E:/NOVA/Assets/IFX_P2G-HW-SW_V1.0.4/Firmware_Software/DAVE project/P2G_FW/Libraries/XMCLib/inc\xmc_dma.h ****  */
 340:E:/NOVA/Assets/IFX_P2G-HW-SW_V1.0.4/Firmware_Software/DAVE project/P2G_FW/Libraries/XMCLib/inc\xmc_dma.h **** typedef struct XMC_DMA_LLI
 341:E:/NOVA/Assets/IFX_P2G-HW-SW_V1.0.4/Firmware_Software/DAVE project/P2G_FW/Libraries/XMCLib/inc\xmc_dma.h **** {
 342:E:/NOVA/Assets/IFX_P2G-HW-SW_V1.0.4/Firmware_Software/DAVE project/P2G_FW/Libraries/XMCLib/inc\xmc_dma.h ****   uint32_t src_addr;                            /**< Source address */
 343:E:/NOVA/Assets/IFX_P2G-HW-SW_V1.0.4/Firmware_Software/DAVE project/P2G_FW/Libraries/XMCLib/inc\xmc_dma.h ****   uint32_t dst_addr;                            /**< Destination address */
 344:E:/NOVA/Assets/IFX_P2G-HW-SW_V1.0.4/Firmware_Software/DAVE project/P2G_FW/Libraries/XMCLib/inc\xmc_dma.h ****   struct XMC_DMA_LLI *llp;                      /**< Linked list pointer of type XMC_DMA_LLI_t */
 345:E:/NOVA/Assets/IFX_P2G-HW-SW_V1.0.4/Firmware_Software/DAVE project/P2G_FW/Libraries/XMCLib/inc\xmc_dma.h ****   union
 346:E:/NOVA/Assets/IFX_P2G-HW-SW_V1.0.4/Firmware_Software/DAVE project/P2G_FW/Libraries/XMCLib/inc\xmc_dma.h ****   {
 347:E:/NOVA/Assets/IFX_P2G-HW-SW_V1.0.4/Firmware_Software/DAVE project/P2G_FW/Libraries/XMCLib/inc\xmc_dma.h ****     struct
 348:E:/NOVA/Assets/IFX_P2G-HW-SW_V1.0.4/Firmware_Software/DAVE project/P2G_FW/Libraries/XMCLib/inc\xmc_dma.h ****     {
 349:E:/NOVA/Assets/IFX_P2G-HW-SW_V1.0.4/Firmware_Software/DAVE project/P2G_FW/Libraries/XMCLib/inc\xmc_dma.h ****       uint32_t enable_interrupt: 1;             /**< Enable interrupts? */
 350:E:/NOVA/Assets/IFX_P2G-HW-SW_V1.0.4/Firmware_Software/DAVE project/P2G_FW/Libraries/XMCLib/inc\xmc_dma.h ****       uint32_t dst_transfer_width: 3;           /**< Destination transfer width */
 351:E:/NOVA/Assets/IFX_P2G-HW-SW_V1.0.4/Firmware_Software/DAVE project/P2G_FW/Libraries/XMCLib/inc\xmc_dma.h ****       uint32_t src_transfer_width: 3;           /**< Source transfer width */
 352:E:/NOVA/Assets/IFX_P2G-HW-SW_V1.0.4/Firmware_Software/DAVE project/P2G_FW/Libraries/XMCLib/inc\xmc_dma.h ****       uint32_t dst_address_count_mode: 2;       /**< Destination address count mode */
 353:E:/NOVA/Assets/IFX_P2G-HW-SW_V1.0.4/Firmware_Software/DAVE project/P2G_FW/Libraries/XMCLib/inc\xmc_dma.h ****       uint32_t src_address_count_mode: 2;       /**< Source address count mode */
 354:E:/NOVA/Assets/IFX_P2G-HW-SW_V1.0.4/Firmware_Software/DAVE project/P2G_FW/Libraries/XMCLib/inc\xmc_dma.h ****       uint32_t dst_burst_length: 3;             /**< Destination burst length */
 355:E:/NOVA/Assets/IFX_P2G-HW-SW_V1.0.4/Firmware_Software/DAVE project/P2G_FW/Libraries/XMCLib/inc\xmc_dma.h ****       uint32_t src_burst_length: 3;             /**< Source burst length */
 356:E:/NOVA/Assets/IFX_P2G-HW-SW_V1.0.4/Firmware_Software/DAVE project/P2G_FW/Libraries/XMCLib/inc\xmc_dma.h ****       uint32_t enable_src_gather: 1;            /**< Enable source gather? */
 357:E:/NOVA/Assets/IFX_P2G-HW-SW_V1.0.4/Firmware_Software/DAVE project/P2G_FW/Libraries/XMCLib/inc\xmc_dma.h ****       uint32_t enable_dst_scatter: 1;           /**< Enable destination scatter? */
 358:E:/NOVA/Assets/IFX_P2G-HW-SW_V1.0.4/Firmware_Software/DAVE project/P2G_FW/Libraries/XMCLib/inc\xmc_dma.h ****       uint32_t : 1;                             /**< Reserved bits */
 359:E:/NOVA/Assets/IFX_P2G-HW-SW_V1.0.4/Firmware_Software/DAVE project/P2G_FW/Libraries/XMCLib/inc\xmc_dma.h ****       uint32_t transfer_flow: 3;                /**< DMA transfer flow */
 360:E:/NOVA/Assets/IFX_P2G-HW-SW_V1.0.4/Firmware_Software/DAVE project/P2G_FW/Libraries/XMCLib/inc\xmc_dma.h ****       uint32_t : 4;                             /**< Reserved bits */
 361:E:/NOVA/Assets/IFX_P2G-HW-SW_V1.0.4/Firmware_Software/DAVE project/P2G_FW/Libraries/XMCLib/inc\xmc_dma.h ****       uint32_t enable_dst_linked_list: 1;       /**< Enable destination linked list? */
 362:E:/NOVA/Assets/IFX_P2G-HW-SW_V1.0.4/Firmware_Software/DAVE project/P2G_FW/Libraries/XMCLib/inc\xmc_dma.h ****       uint32_t enable_src_linked_list: 1;       /**< Enable source linked list? */
 363:E:/NOVA/Assets/IFX_P2G-HW-SW_V1.0.4/Firmware_Software/DAVE project/P2G_FW/Libraries/XMCLib/inc\xmc_dma.h ****       uint32_t : 3;                             /**< Reserved bits */
 364:E:/NOVA/Assets/IFX_P2G-HW-SW_V1.0.4/Firmware_Software/DAVE project/P2G_FW/Libraries/XMCLib/inc\xmc_dma.h ****     };
 365:E:/NOVA/Assets/IFX_P2G-HW-SW_V1.0.4/Firmware_Software/DAVE project/P2G_FW/Libraries/XMCLib/inc\xmc_dma.h ****     uint32_t control;
 366:E:/NOVA/Assets/IFX_P2G-HW-SW_V1.0.4/Firmware_Software/DAVE project/P2G_FW/Libraries/XMCLib/inc\xmc_dma.h ****   };
 367:E:/NOVA/Assets/IFX_P2G-HW-SW_V1.0.4/Firmware_Software/DAVE project/P2G_FW/Libraries/XMCLib/inc\xmc_dma.h ****   uint32_t block_size;                          /**< Transfer block size */
 368:E:/NOVA/Assets/IFX_P2G-HW-SW_V1.0.4/Firmware_Software/DAVE project/P2G_FW/Libraries/XMCLib/inc\xmc_dma.h ****   uint32_t src_status;                          /**< Source status */
 369:E:/NOVA/Assets/IFX_P2G-HW-SW_V1.0.4/Firmware_Software/DAVE project/P2G_FW/Libraries/XMCLib/inc\xmc_dma.h ****   uint32_t dst_status;                          /**< Destination status */
 370:E:/NOVA/Assets/IFX_P2G-HW-SW_V1.0.4/Firmware_Software/DAVE project/P2G_FW/Libraries/XMCLib/inc\xmc_dma.h **** } XMC_DMA_LLI_t;
 371:E:/NOVA/Assets/IFX_P2G-HW-SW_V1.0.4/Firmware_Software/DAVE project/P2G_FW/Libraries/XMCLib/inc\xmc_dma.h **** 
 372:E:/NOVA/Assets/IFX_P2G-HW-SW_V1.0.4/Firmware_Software/DAVE project/P2G_FW/Libraries/XMCLib/inc\xmc_dma.h **** typedef XMC_DMA_LLI_t **XMC_DMA_LIST_t;         /**< Type definition for a linked list pointer */
 373:E:/NOVA/Assets/IFX_P2G-HW-SW_V1.0.4/Firmware_Software/DAVE project/P2G_FW/Libraries/XMCLib/inc\xmc_dma.h **** 
 374:E:/NOVA/Assets/IFX_P2G-HW-SW_V1.0.4/Firmware_Software/DAVE project/P2G_FW/Libraries/XMCLib/inc\xmc_dma.h **** /**
 375:E:/NOVA/Assets/IFX_P2G-HW-SW_V1.0.4/Firmware_Software/DAVE project/P2G_FW/Libraries/XMCLib/inc\xmc_dma.h ****  * DMA channel configuration structure
 376:E:/NOVA/Assets/IFX_P2G-HW-SW_V1.0.4/Firmware_Software/DAVE project/P2G_FW/Libraries/XMCLib/inc\xmc_dma.h ****  */
 377:E:/NOVA/Assets/IFX_P2G-HW-SW_V1.0.4/Firmware_Software/DAVE project/P2G_FW/Libraries/XMCLib/inc\xmc_dma.h **** typedef struct XMC_DMA_CH_CONFIG
 378:E:/NOVA/Assets/IFX_P2G-HW-SW_V1.0.4/Firmware_Software/DAVE project/P2G_FW/Libraries/XMCLib/inc\xmc_dma.h **** {
 379:E:/NOVA/Assets/IFX_P2G-HW-SW_V1.0.4/Firmware_Software/DAVE project/P2G_FW/Libraries/XMCLib/inc\xmc_dma.h ****   union
 380:E:/NOVA/Assets/IFX_P2G-HW-SW_V1.0.4/Firmware_Software/DAVE project/P2G_FW/Libraries/XMCLib/inc\xmc_dma.h ****   {
 381:E:/NOVA/Assets/IFX_P2G-HW-SW_V1.0.4/Firmware_Software/DAVE project/P2G_FW/Libraries/XMCLib/inc\xmc_dma.h ****     uint32_t control;
 382:E:/NOVA/Assets/IFX_P2G-HW-SW_V1.0.4/Firmware_Software/DAVE project/P2G_FW/Libraries/XMCLib/inc\xmc_dma.h ****     struct
 383:E:/NOVA/Assets/IFX_P2G-HW-SW_V1.0.4/Firmware_Software/DAVE project/P2G_FW/Libraries/XMCLib/inc\xmc_dma.h ****     {
 384:E:/NOVA/Assets/IFX_P2G-HW-SW_V1.0.4/Firmware_Software/DAVE project/P2G_FW/Libraries/XMCLib/inc\xmc_dma.h ****       uint32_t enable_interrupt: 1;             /**< Enable interrupts? */
 385:E:/NOVA/Assets/IFX_P2G-HW-SW_V1.0.4/Firmware_Software/DAVE project/P2G_FW/Libraries/XMCLib/inc\xmc_dma.h ****       uint32_t dst_transfer_width: 3;           /**< Destination transfer width */
 386:E:/NOVA/Assets/IFX_P2G-HW-SW_V1.0.4/Firmware_Software/DAVE project/P2G_FW/Libraries/XMCLib/inc\xmc_dma.h ****       uint32_t src_transfer_width: 3;           /**< Source transfer width */
 387:E:/NOVA/Assets/IFX_P2G-HW-SW_V1.0.4/Firmware_Software/DAVE project/P2G_FW/Libraries/XMCLib/inc\xmc_dma.h ****       uint32_t dst_address_count_mode: 2;       /**< Destination address count mode */
 388:E:/NOVA/Assets/IFX_P2G-HW-SW_V1.0.4/Firmware_Software/DAVE project/P2G_FW/Libraries/XMCLib/inc\xmc_dma.h ****       uint32_t src_address_count_mode: 2;       /**< Source address count mode */
 389:E:/NOVA/Assets/IFX_P2G-HW-SW_V1.0.4/Firmware_Software/DAVE project/P2G_FW/Libraries/XMCLib/inc\xmc_dma.h ****       uint32_t dst_burst_length: 3;             /**< Destination burst length */
 390:E:/NOVA/Assets/IFX_P2G-HW-SW_V1.0.4/Firmware_Software/DAVE project/P2G_FW/Libraries/XMCLib/inc\xmc_dma.h ****       uint32_t src_burst_length: 3;             /**< Source burst length */
 391:E:/NOVA/Assets/IFX_P2G-HW-SW_V1.0.4/Firmware_Software/DAVE project/P2G_FW/Libraries/XMCLib/inc\xmc_dma.h ****       uint32_t enable_src_gather: 1;            /**< Enable source gather? */
 392:E:/NOVA/Assets/IFX_P2G-HW-SW_V1.0.4/Firmware_Software/DAVE project/P2G_FW/Libraries/XMCLib/inc\xmc_dma.h ****       uint32_t enable_dst_scatter: 1;           /**< Enable destination scatter? */
 393:E:/NOVA/Assets/IFX_P2G-HW-SW_V1.0.4/Firmware_Software/DAVE project/P2G_FW/Libraries/XMCLib/inc\xmc_dma.h ****       uint32_t : 1;                             
 394:E:/NOVA/Assets/IFX_P2G-HW-SW_V1.0.4/Firmware_Software/DAVE project/P2G_FW/Libraries/XMCLib/inc\xmc_dma.h ****       uint32_t transfer_flow: 3;                /**< DMA transfer flow */
 395:E:/NOVA/Assets/IFX_P2G-HW-SW_V1.0.4/Firmware_Software/DAVE project/P2G_FW/Libraries/XMCLib/inc\xmc_dma.h ****       uint32_t : 9;                             
 396:E:/NOVA/Assets/IFX_P2G-HW-SW_V1.0.4/Firmware_Software/DAVE project/P2G_FW/Libraries/XMCLib/inc\xmc_dma.h ****     };
 397:E:/NOVA/Assets/IFX_P2G-HW-SW_V1.0.4/Firmware_Software/DAVE project/P2G_FW/Libraries/XMCLib/inc\xmc_dma.h ****   };
 398:E:/NOVA/Assets/IFX_P2G-HW-SW_V1.0.4/Firmware_Software/DAVE project/P2G_FW/Libraries/XMCLib/inc\xmc_dma.h **** 
 399:E:/NOVA/Assets/IFX_P2G-HW-SW_V1.0.4/Firmware_Software/DAVE project/P2G_FW/Libraries/XMCLib/inc\xmc_dma.h ****   uint32_t src_addr;                            /**< Source address */
 400:E:/NOVA/Assets/IFX_P2G-HW-SW_V1.0.4/Firmware_Software/DAVE project/P2G_FW/Libraries/XMCLib/inc\xmc_dma.h ****   uint32_t dst_addr;                            /**< Destination address */
 401:E:/NOVA/Assets/IFX_P2G-HW-SW_V1.0.4/Firmware_Software/DAVE project/P2G_FW/Libraries/XMCLib/inc\xmc_dma.h ****   XMC_DMA_LLI_t *linked_list_pointer;           /**< Linked list pointer */
 402:E:/NOVA/Assets/IFX_P2G-HW-SW_V1.0.4/Firmware_Software/DAVE project/P2G_FW/Libraries/XMCLib/inc\xmc_dma.h ****   
 403:E:/NOVA/Assets/IFX_P2G-HW-SW_V1.0.4/Firmware_Software/DAVE project/P2G_FW/Libraries/XMCLib/inc\xmc_dma.h ****   union
 404:E:/NOVA/Assets/IFX_P2G-HW-SW_V1.0.4/Firmware_Software/DAVE project/P2G_FW/Libraries/XMCLib/inc\xmc_dma.h ****   {
 405:E:/NOVA/Assets/IFX_P2G-HW-SW_V1.0.4/Firmware_Software/DAVE project/P2G_FW/Libraries/XMCLib/inc\xmc_dma.h ****     uint32_t src_gather_control;
 406:E:/NOVA/Assets/IFX_P2G-HW-SW_V1.0.4/Firmware_Software/DAVE project/P2G_FW/Libraries/XMCLib/inc\xmc_dma.h ****     struct
 407:E:/NOVA/Assets/IFX_P2G-HW-SW_V1.0.4/Firmware_Software/DAVE project/P2G_FW/Libraries/XMCLib/inc\xmc_dma.h ****     {
 408:E:/NOVA/Assets/IFX_P2G-HW-SW_V1.0.4/Firmware_Software/DAVE project/P2G_FW/Libraries/XMCLib/inc\xmc_dma.h ****       uint32_t src_gather_interval: 20;         /**< Source gather interval */
 409:E:/NOVA/Assets/IFX_P2G-HW-SW_V1.0.4/Firmware_Software/DAVE project/P2G_FW/Libraries/XMCLib/inc\xmc_dma.h ****       uint32_t src_gather_count: 12;            /**< Source gather count */
 410:E:/NOVA/Assets/IFX_P2G-HW-SW_V1.0.4/Firmware_Software/DAVE project/P2G_FW/Libraries/XMCLib/inc\xmc_dma.h ****     };
 411:E:/NOVA/Assets/IFX_P2G-HW-SW_V1.0.4/Firmware_Software/DAVE project/P2G_FW/Libraries/XMCLib/inc\xmc_dma.h ****   };
 412:E:/NOVA/Assets/IFX_P2G-HW-SW_V1.0.4/Firmware_Software/DAVE project/P2G_FW/Libraries/XMCLib/inc\xmc_dma.h **** 
 413:E:/NOVA/Assets/IFX_P2G-HW-SW_V1.0.4/Firmware_Software/DAVE project/P2G_FW/Libraries/XMCLib/inc\xmc_dma.h ****   union
 414:E:/NOVA/Assets/IFX_P2G-HW-SW_V1.0.4/Firmware_Software/DAVE project/P2G_FW/Libraries/XMCLib/inc\xmc_dma.h ****   {
 415:E:/NOVA/Assets/IFX_P2G-HW-SW_V1.0.4/Firmware_Software/DAVE project/P2G_FW/Libraries/XMCLib/inc\xmc_dma.h ****     uint32_t dst_scatter_control;
 416:E:/NOVA/Assets/IFX_P2G-HW-SW_V1.0.4/Firmware_Software/DAVE project/P2G_FW/Libraries/XMCLib/inc\xmc_dma.h ****     struct
 417:E:/NOVA/Assets/IFX_P2G-HW-SW_V1.0.4/Firmware_Software/DAVE project/P2G_FW/Libraries/XMCLib/inc\xmc_dma.h ****     {
 418:E:/NOVA/Assets/IFX_P2G-HW-SW_V1.0.4/Firmware_Software/DAVE project/P2G_FW/Libraries/XMCLib/inc\xmc_dma.h ****       uint32_t dst_scatter_interval: 20;        /**< Destination scatter interval */
 419:E:/NOVA/Assets/IFX_P2G-HW-SW_V1.0.4/Firmware_Software/DAVE project/P2G_FW/Libraries/XMCLib/inc\xmc_dma.h ****       uint32_t dst_scatter_count: 12;           /**< Destination scatter count */
 420:E:/NOVA/Assets/IFX_P2G-HW-SW_V1.0.4/Firmware_Software/DAVE project/P2G_FW/Libraries/XMCLib/inc\xmc_dma.h ****     };
 421:E:/NOVA/Assets/IFX_P2G-HW-SW_V1.0.4/Firmware_Software/DAVE project/P2G_FW/Libraries/XMCLib/inc\xmc_dma.h ****   };
 422:E:/NOVA/Assets/IFX_P2G-HW-SW_V1.0.4/Firmware_Software/DAVE project/P2G_FW/Libraries/XMCLib/inc\xmc_dma.h ****   
 423:E:/NOVA/Assets/IFX_P2G-HW-SW_V1.0.4/Firmware_Software/DAVE project/P2G_FW/Libraries/XMCLib/inc\xmc_dma.h ****   uint16_t block_size;                          /**< Block size for DMA controlled transfers [max. 
 424:E:/NOVA/Assets/IFX_P2G-HW-SW_V1.0.4/Firmware_Software/DAVE project/P2G_FW/Libraries/XMCLib/inc\xmc_dma.h ****   XMC_DMA_CH_TRANSFER_TYPE_t transfer_type;     /**< DMA transfer type */
 425:E:/NOVA/Assets/IFX_P2G-HW-SW_V1.0.4/Firmware_Software/DAVE project/P2G_FW/Libraries/XMCLib/inc\xmc_dma.h ****   XMC_DMA_CH_PRIORITY_t priority;               /**< DMA channel priority */
 426:E:/NOVA/Assets/IFX_P2G-HW-SW_V1.0.4/Firmware_Software/DAVE project/P2G_FW/Libraries/XMCLib/inc\xmc_dma.h ****   XMC_DMA_CH_SRC_HANDSHAKING_t src_handshaking; /**< DMA source handshaking interface */
 427:E:/NOVA/Assets/IFX_P2G-HW-SW_V1.0.4/Firmware_Software/DAVE project/P2G_FW/Libraries/XMCLib/inc\xmc_dma.h ****   uint8_t src_peripheral_request;               /**< Source peripheral request */
 428:E:/NOVA/Assets/IFX_P2G-HW-SW_V1.0.4/Firmware_Software/DAVE project/P2G_FW/Libraries/XMCLib/inc\xmc_dma.h ****   XMC_DMA_CH_DST_HANDSHAKING_t dst_handshaking; /**< DMA destination handshaking interface */
 429:E:/NOVA/Assets/IFX_P2G-HW-SW_V1.0.4/Firmware_Software/DAVE project/P2G_FW/Libraries/XMCLib/inc\xmc_dma.h ****   uint8_t dst_peripheral_request;               /**< Destination peripheral request */
 430:E:/NOVA/Assets/IFX_P2G-HW-SW_V1.0.4/Firmware_Software/DAVE project/P2G_FW/Libraries/XMCLib/inc\xmc_dma.h **** } XMC_DMA_CH_CONFIG_t;
 431:E:/NOVA/Assets/IFX_P2G-HW-SW_V1.0.4/Firmware_Software/DAVE project/P2G_FW/Libraries/XMCLib/inc\xmc_dma.h **** 
 432:E:/NOVA/Assets/IFX_P2G-HW-SW_V1.0.4/Firmware_Software/DAVE project/P2G_FW/Libraries/XMCLib/inc\xmc_dma.h **** /* Anonymous structure/union guard end */
 433:E:/NOVA/Assets/IFX_P2G-HW-SW_V1.0.4/Firmware_Software/DAVE project/P2G_FW/Libraries/XMCLib/inc\xmc_dma.h **** #if defined (__CC_ARM)
 434:E:/NOVA/Assets/IFX_P2G-HW-SW_V1.0.4/Firmware_Software/DAVE project/P2G_FW/Libraries/XMCLib/inc\xmc_dma.h ****   #pragma pop
 435:E:/NOVA/Assets/IFX_P2G-HW-SW_V1.0.4/Firmware_Software/DAVE project/P2G_FW/Libraries/XMCLib/inc\xmc_dma.h **** #elif defined (__TASKING__)
 436:E:/NOVA/Assets/IFX_P2G-HW-SW_V1.0.4/Firmware_Software/DAVE project/P2G_FW/Libraries/XMCLib/inc\xmc_dma.h ****   #pragma warning restore
 437:E:/NOVA/Assets/IFX_P2G-HW-SW_V1.0.4/Firmware_Software/DAVE project/P2G_FW/Libraries/XMCLib/inc\xmc_dma.h **** #endif
 438:E:/NOVA/Assets/IFX_P2G-HW-SW_V1.0.4/Firmware_Software/DAVE project/P2G_FW/Libraries/XMCLib/inc\xmc_dma.h **** 
 439:E:/NOVA/Assets/IFX_P2G-HW-SW_V1.0.4/Firmware_Software/DAVE project/P2G_FW/Libraries/XMCLib/inc\xmc_dma.h **** /**
 440:E:/NOVA/Assets/IFX_P2G-HW-SW_V1.0.4/Firmware_Software/DAVE project/P2G_FW/Libraries/XMCLib/inc\xmc_dma.h ****  * DMA channel event handler
 441:E:/NOVA/Assets/IFX_P2G-HW-SW_V1.0.4/Firmware_Software/DAVE project/P2G_FW/Libraries/XMCLib/inc\xmc_dma.h ****  */
 442:E:/NOVA/Assets/IFX_P2G-HW-SW_V1.0.4/Firmware_Software/DAVE project/P2G_FW/Libraries/XMCLib/inc\xmc_dma.h **** typedef void (*XMC_DMA_CH_EVENT_HANDLER_t)(XMC_DMA_CH_EVENT_t event);
 443:E:/NOVA/Assets/IFX_P2G-HW-SW_V1.0.4/Firmware_Software/DAVE project/P2G_FW/Libraries/XMCLib/inc\xmc_dma.h **** 
 444:E:/NOVA/Assets/IFX_P2G-HW-SW_V1.0.4/Firmware_Software/DAVE project/P2G_FW/Libraries/XMCLib/inc\xmc_dma.h **** /*******************************************************************************
 445:E:/NOVA/Assets/IFX_P2G-HW-SW_V1.0.4/Firmware_Software/DAVE project/P2G_FW/Libraries/XMCLib/inc\xmc_dma.h ****  * API PROTOTYPES
 446:E:/NOVA/Assets/IFX_P2G-HW-SW_V1.0.4/Firmware_Software/DAVE project/P2G_FW/Libraries/XMCLib/inc\xmc_dma.h ****  *******************************************************************************/
 447:E:/NOVA/Assets/IFX_P2G-HW-SW_V1.0.4/Firmware_Software/DAVE project/P2G_FW/Libraries/XMCLib/inc\xmc_dma.h **** 
 448:E:/NOVA/Assets/IFX_P2G-HW-SW_V1.0.4/Firmware_Software/DAVE project/P2G_FW/Libraries/XMCLib/inc\xmc_dma.h **** #ifdef __cplusplus
 449:E:/NOVA/Assets/IFX_P2G-HW-SW_V1.0.4/Firmware_Software/DAVE project/P2G_FW/Libraries/XMCLib/inc\xmc_dma.h **** extern "C" {
 450:E:/NOVA/Assets/IFX_P2G-HW-SW_V1.0.4/Firmware_Software/DAVE project/P2G_FW/Libraries/XMCLib/inc\xmc_dma.h **** #endif
 451:E:/NOVA/Assets/IFX_P2G-HW-SW_V1.0.4/Firmware_Software/DAVE project/P2G_FW/Libraries/XMCLib/inc\xmc_dma.h **** 
 452:E:/NOVA/Assets/IFX_P2G-HW-SW_V1.0.4/Firmware_Software/DAVE project/P2G_FW/Libraries/XMCLib/inc\xmc_dma.h **** /**
 453:E:/NOVA/Assets/IFX_P2G-HW-SW_V1.0.4/Firmware_Software/DAVE project/P2G_FW/Libraries/XMCLib/inc\xmc_dma.h ****  * @param dma A constant pointer to XMC_DMA_t, pointing to the GPDMA base address
 454:E:/NOVA/Assets/IFX_P2G-HW-SW_V1.0.4/Firmware_Software/DAVE project/P2G_FW/Libraries/XMCLib/inc\xmc_dma.h ****  * @return None
 455:E:/NOVA/Assets/IFX_P2G-HW-SW_V1.0.4/Firmware_Software/DAVE project/P2G_FW/Libraries/XMCLib/inc\xmc_dma.h ****  *
 456:E:/NOVA/Assets/IFX_P2G-HW-SW_V1.0.4/Firmware_Software/DAVE project/P2G_FW/Libraries/XMCLib/inc\xmc_dma.h ****  * \par<b>Description: </b><br>
 457:E:/NOVA/Assets/IFX_P2G-HW-SW_V1.0.4/Firmware_Software/DAVE project/P2G_FW/Libraries/XMCLib/inc\xmc_dma.h ****  * Initialize the GPDMA peripheral <br>
 458:E:/NOVA/Assets/IFX_P2G-HW-SW_V1.0.4/Firmware_Software/DAVE project/P2G_FW/Libraries/XMCLib/inc\xmc_dma.h ****  *
 459:E:/NOVA/Assets/IFX_P2G-HW-SW_V1.0.4/Firmware_Software/DAVE project/P2G_FW/Libraries/XMCLib/inc\xmc_dma.h ****  * \par
 460:E:/NOVA/Assets/IFX_P2G-HW-SW_V1.0.4/Firmware_Software/DAVE project/P2G_FW/Libraries/XMCLib/inc\xmc_dma.h ****  * The function initializes a prioritized list of DMA channels and enables the GPDMA
 461:E:/NOVA/Assets/IFX_P2G-HW-SW_V1.0.4/Firmware_Software/DAVE project/P2G_FW/Libraries/XMCLib/inc\xmc_dma.h ****  * peripheral.
 462:E:/NOVA/Assets/IFX_P2G-HW-SW_V1.0.4/Firmware_Software/DAVE project/P2G_FW/Libraries/XMCLib/inc\xmc_dma.h ****  */
 463:E:/NOVA/Assets/IFX_P2G-HW-SW_V1.0.4/Firmware_Software/DAVE project/P2G_FW/Libraries/XMCLib/inc\xmc_dma.h **** void XMC_DMA_Init(XMC_DMA_t *const dma);
 464:E:/NOVA/Assets/IFX_P2G-HW-SW_V1.0.4/Firmware_Software/DAVE project/P2G_FW/Libraries/XMCLib/inc\xmc_dma.h **** 
 465:E:/NOVA/Assets/IFX_P2G-HW-SW_V1.0.4/Firmware_Software/DAVE project/P2G_FW/Libraries/XMCLib/inc\xmc_dma.h **** /**
 466:E:/NOVA/Assets/IFX_P2G-HW-SW_V1.0.4/Firmware_Software/DAVE project/P2G_FW/Libraries/XMCLib/inc\xmc_dma.h ****  * @param dma A constant pointer to XMC_DMA_t, pointing to the GPDMA base address
 467:E:/NOVA/Assets/IFX_P2G-HW-SW_V1.0.4/Firmware_Software/DAVE project/P2G_FW/Libraries/XMCLib/inc\xmc_dma.h ****  * @return None
 468:E:/NOVA/Assets/IFX_P2G-HW-SW_V1.0.4/Firmware_Software/DAVE project/P2G_FW/Libraries/XMCLib/inc\xmc_dma.h ****  *
 469:E:/NOVA/Assets/IFX_P2G-HW-SW_V1.0.4/Firmware_Software/DAVE project/P2G_FW/Libraries/XMCLib/inc\xmc_dma.h ****  * \par<b>Description: </b><br>
 470:E:/NOVA/Assets/IFX_P2G-HW-SW_V1.0.4/Firmware_Software/DAVE project/P2G_FW/Libraries/XMCLib/inc\xmc_dma.h ****  * Enable the GPDMA peripheral <br>
 471:E:/NOVA/Assets/IFX_P2G-HW-SW_V1.0.4/Firmware_Software/DAVE project/P2G_FW/Libraries/XMCLib/inc\xmc_dma.h ****  *
 472:E:/NOVA/Assets/IFX_P2G-HW-SW_V1.0.4/Firmware_Software/DAVE project/P2G_FW/Libraries/XMCLib/inc\xmc_dma.h ****  * \par
 473:E:/NOVA/Assets/IFX_P2G-HW-SW_V1.0.4/Firmware_Software/DAVE project/P2G_FW/Libraries/XMCLib/inc\xmc_dma.h ****  * The function de-asserts the GPDMA peripheral reset. In addition, it un-gates the
 474:E:/NOVA/Assets/IFX_P2G-HW-SW_V1.0.4/Firmware_Software/DAVE project/P2G_FW/Libraries/XMCLib/inc\xmc_dma.h ****  * GPDMA0 peripheral clock for all XMC4000 series of microcontrollers with an exception
 475:E:/NOVA/Assets/IFX_P2G-HW-SW_V1.0.4/Firmware_Software/DAVE project/P2G_FW/Libraries/XMCLib/inc\xmc_dma.h ****  * of the XMC4500 microcontroller. The XMC4500 doesn't support gating.
 476:E:/NOVA/Assets/IFX_P2G-HW-SW_V1.0.4/Firmware_Software/DAVE project/P2G_FW/Libraries/XMCLib/inc\xmc_dma.h ****  */
 477:E:/NOVA/Assets/IFX_P2G-HW-SW_V1.0.4/Firmware_Software/DAVE project/P2G_FW/Libraries/XMCLib/inc\xmc_dma.h **** void XMC_DMA_Enable(XMC_DMA_t *const dma);
 478:E:/NOVA/Assets/IFX_P2G-HW-SW_V1.0.4/Firmware_Software/DAVE project/P2G_FW/Libraries/XMCLib/inc\xmc_dma.h **** 
 479:E:/NOVA/Assets/IFX_P2G-HW-SW_V1.0.4/Firmware_Software/DAVE project/P2G_FW/Libraries/XMCLib/inc\xmc_dma.h **** /**
 480:E:/NOVA/Assets/IFX_P2G-HW-SW_V1.0.4/Firmware_Software/DAVE project/P2G_FW/Libraries/XMCLib/inc\xmc_dma.h ****  * @param dma A constant pointer to XMC_DMA_t, pointing to the GPDMA base address
 481:E:/NOVA/Assets/IFX_P2G-HW-SW_V1.0.4/Firmware_Software/DAVE project/P2G_FW/Libraries/XMCLib/inc\xmc_dma.h ****  * @return None
 482:E:/NOVA/Assets/IFX_P2G-HW-SW_V1.0.4/Firmware_Software/DAVE project/P2G_FW/Libraries/XMCLib/inc\xmc_dma.h ****  *
 483:E:/NOVA/Assets/IFX_P2G-HW-SW_V1.0.4/Firmware_Software/DAVE project/P2G_FW/Libraries/XMCLib/inc\xmc_dma.h ****  * \par<b>Description: </b><br>
 484:E:/NOVA/Assets/IFX_P2G-HW-SW_V1.0.4/Firmware_Software/DAVE project/P2G_FW/Libraries/XMCLib/inc\xmc_dma.h ****  * Disable the GPDMA peripheral <br>
 485:E:/NOVA/Assets/IFX_P2G-HW-SW_V1.0.4/Firmware_Software/DAVE project/P2G_FW/Libraries/XMCLib/inc\xmc_dma.h ****  *
 486:E:/NOVA/Assets/IFX_P2G-HW-SW_V1.0.4/Firmware_Software/DAVE project/P2G_FW/Libraries/XMCLib/inc\xmc_dma.h ****  * \par
 487:E:/NOVA/Assets/IFX_P2G-HW-SW_V1.0.4/Firmware_Software/DAVE project/P2G_FW/Libraries/XMCLib/inc\xmc_dma.h ****  * The function asserts the GPDMA peripheral reset. In addition, it gates the GPDMA0
 488:E:/NOVA/Assets/IFX_P2G-HW-SW_V1.0.4/Firmware_Software/DAVE project/P2G_FW/Libraries/XMCLib/inc\xmc_dma.h ****  * peripheral clock for all XMC4000 series of microcontrollers with an exception of
 489:E:/NOVA/Assets/IFX_P2G-HW-SW_V1.0.4/Firmware_Software/DAVE project/P2G_FW/Libraries/XMCLib/inc\xmc_dma.h ****  * the XMC4500 microcontroller. The XMC4500 doesn't support gating.
 490:E:/NOVA/Assets/IFX_P2G-HW-SW_V1.0.4/Firmware_Software/DAVE project/P2G_FW/Libraries/XMCLib/inc\xmc_dma.h ****  */
 491:E:/NOVA/Assets/IFX_P2G-HW-SW_V1.0.4/Firmware_Software/DAVE project/P2G_FW/Libraries/XMCLib/inc\xmc_dma.h **** void XMC_DMA_Disable(XMC_DMA_t *const dma);
 492:E:/NOVA/Assets/IFX_P2G-HW-SW_V1.0.4/Firmware_Software/DAVE project/P2G_FW/Libraries/XMCLib/inc\xmc_dma.h **** 
 493:E:/NOVA/Assets/IFX_P2G-HW-SW_V1.0.4/Firmware_Software/DAVE project/P2G_FW/Libraries/XMCLib/inc\xmc_dma.h **** /**
 494:E:/NOVA/Assets/IFX_P2G-HW-SW_V1.0.4/Firmware_Software/DAVE project/P2G_FW/Libraries/XMCLib/inc\xmc_dma.h ****  * @param dma A constant pointer to XMC_DMA_t, pointing to the GPDMA base address
 495:E:/NOVA/Assets/IFX_P2G-HW-SW_V1.0.4/Firmware_Software/DAVE project/P2G_FW/Libraries/XMCLib/inc\xmc_dma.h ****  * @return bool
 496:E:/NOVA/Assets/IFX_P2G-HW-SW_V1.0.4/Firmware_Software/DAVE project/P2G_FW/Libraries/XMCLib/inc\xmc_dma.h ****  *
 497:E:/NOVA/Assets/IFX_P2G-HW-SW_V1.0.4/Firmware_Software/DAVE project/P2G_FW/Libraries/XMCLib/inc\xmc_dma.h ****  * \par<b>Description: </b><br>
 498:E:/NOVA/Assets/IFX_P2G-HW-SW_V1.0.4/Firmware_Software/DAVE project/P2G_FW/Libraries/XMCLib/inc\xmc_dma.h ****  * Check if the GPDMA peripheral is enabled <br>
 499:E:/NOVA/Assets/IFX_P2G-HW-SW_V1.0.4/Firmware_Software/DAVE project/P2G_FW/Libraries/XMCLib/inc\xmc_dma.h ****  *
 500:E:/NOVA/Assets/IFX_P2G-HW-SW_V1.0.4/Firmware_Software/DAVE project/P2G_FW/Libraries/XMCLib/inc\xmc_dma.h ****  * \par
 501:E:/NOVA/Assets/IFX_P2G-HW-SW_V1.0.4/Firmware_Software/DAVE project/P2G_FW/Libraries/XMCLib/inc\xmc_dma.h ****  * For the XMC4500 microcontroller, the function checks if the GPDMA module is asserted
 502:E:/NOVA/Assets/IFX_P2G-HW-SW_V1.0.4/Firmware_Software/DAVE project/P2G_FW/Libraries/XMCLib/inc\xmc_dma.h ****  * and returns "false" if it is. In addition, it also checks if the clock is gated
 503:E:/NOVA/Assets/IFX_P2G-HW-SW_V1.0.4/Firmware_Software/DAVE project/P2G_FW/Libraries/XMCLib/inc\xmc_dma.h ****  * for the other XMC4000 series of microcontrollers. It returns "true" if the peripheral
 504:E:/NOVA/Assets/IFX_P2G-HW-SW_V1.0.4/Firmware_Software/DAVE project/P2G_FW/Libraries/XMCLib/inc\xmc_dma.h ****  * is enabled.
 505:E:/NOVA/Assets/IFX_P2G-HW-SW_V1.0.4/Firmware_Software/DAVE project/P2G_FW/Libraries/XMCLib/inc\xmc_dma.h ****  */
 506:E:/NOVA/Assets/IFX_P2G-HW-SW_V1.0.4/Firmware_Software/DAVE project/P2G_FW/Libraries/XMCLib/inc\xmc_dma.h **** bool XMC_DMA_IsEnabled(const XMC_DMA_t *const dma);
 507:E:/NOVA/Assets/IFX_P2G-HW-SW_V1.0.4/Firmware_Software/DAVE project/P2G_FW/Libraries/XMCLib/inc\xmc_dma.h **** 
 508:E:/NOVA/Assets/IFX_P2G-HW-SW_V1.0.4/Firmware_Software/DAVE project/P2G_FW/Libraries/XMCLib/inc\xmc_dma.h **** /**
 509:E:/NOVA/Assets/IFX_P2G-HW-SW_V1.0.4/Firmware_Software/DAVE project/P2G_FW/Libraries/XMCLib/inc\xmc_dma.h ****  * @param dma A constant pointer to XMC_DMA_t, pointing to the GPDMA base address
 510:E:/NOVA/Assets/IFX_P2G-HW-SW_V1.0.4/Firmware_Software/DAVE project/P2G_FW/Libraries/XMCLib/inc\xmc_dma.h ****  * @return uint32_t DMA event status
 511:E:/NOVA/Assets/IFX_P2G-HW-SW_V1.0.4/Firmware_Software/DAVE project/P2G_FW/Libraries/XMCLib/inc\xmc_dma.h ****  *
 512:E:/NOVA/Assets/IFX_P2G-HW-SW_V1.0.4/Firmware_Software/DAVE project/P2G_FW/Libraries/XMCLib/inc\xmc_dma.h ****  * \par<b>Description: </b><br>
 513:E:/NOVA/Assets/IFX_P2G-HW-SW_V1.0.4/Firmware_Software/DAVE project/P2G_FW/Libraries/XMCLib/inc\xmc_dma.h ****  * Get DMA event status <br>
 514:E:/NOVA/Assets/IFX_P2G-HW-SW_V1.0.4/Firmware_Software/DAVE project/P2G_FW/Libraries/XMCLib/inc\xmc_dma.h ****  *
 515:E:/NOVA/Assets/IFX_P2G-HW-SW_V1.0.4/Firmware_Software/DAVE project/P2G_FW/Libraries/XMCLib/inc\xmc_dma.h ****  * \par
 516:E:/NOVA/Assets/IFX_P2G-HW-SW_V1.0.4/Firmware_Software/DAVE project/P2G_FW/Libraries/XMCLib/inc\xmc_dma.h ****  * The function returns the collective (global) status of GPDMA events. The following
 517:E:/NOVA/Assets/IFX_P2G-HW-SW_V1.0.4/Firmware_Software/DAVE project/P2G_FW/Libraries/XMCLib/inc\xmc_dma.h ****  * lists the various DMA events and their corresponding enumeration. The return value
 518:E:/NOVA/Assets/IFX_P2G-HW-SW_V1.0.4/Firmware_Software/DAVE project/P2G_FW/Libraries/XMCLib/inc\xmc_dma.h ****  * of this function may then be masked with any one of the following enumerations to
 519:E:/NOVA/Assets/IFX_P2G-HW-SW_V1.0.4/Firmware_Software/DAVE project/P2G_FW/Libraries/XMCLib/inc\xmc_dma.h ****  * obtain the status of individual DMA events. <br>
 520:E:/NOVA/Assets/IFX_P2G-HW-SW_V1.0.4/Firmware_Software/DAVE project/P2G_FW/Libraries/XMCLib/inc\xmc_dma.h ****  *
 521:E:/NOVA/Assets/IFX_P2G-HW-SW_V1.0.4/Firmware_Software/DAVE project/P2G_FW/Libraries/XMCLib/inc\xmc_dma.h ****  * \par
 522:E:/NOVA/Assets/IFX_P2G-HW-SW_V1.0.4/Firmware_Software/DAVE project/P2G_FW/Libraries/XMCLib/inc\xmc_dma.h ****  * Transfer complete -> ::XMC_DMA_CH_EVENT_TRANSFER_COMPLETE                       <br>
 523:E:/NOVA/Assets/IFX_P2G-HW-SW_V1.0.4/Firmware_Software/DAVE project/P2G_FW/Libraries/XMCLib/inc\xmc_dma.h ****  * Block transfer complete -> ::XMC_DMA_CH_EVENT_BLOCK_TRANSFER_COMPLETE           <br>
 524:E:/NOVA/Assets/IFX_P2G-HW-SW_V1.0.4/Firmware_Software/DAVE project/P2G_FW/Libraries/XMCLib/inc\xmc_dma.h ****  * Source transaction complete -> ::XMC_DMA_CH_EVENT_SRC_TRANSACTION_COMPLETE      <br>
 525:E:/NOVA/Assets/IFX_P2G-HW-SW_V1.0.4/Firmware_Software/DAVE project/P2G_FW/Libraries/XMCLib/inc\xmc_dma.h ****  * Destination transaction complete -> ::XMC_DMA_CH_EVENT_DST_TRANSACTION_COMPLETE <br>
 526:E:/NOVA/Assets/IFX_P2G-HW-SW_V1.0.4/Firmware_Software/DAVE project/P2G_FW/Libraries/XMCLib/inc\xmc_dma.h ****  * DMA error event -> ::XMC_DMA_CH_EVENT_ERROR                                     <br>
 527:E:/NOVA/Assets/IFX_P2G-HW-SW_V1.0.4/Firmware_Software/DAVE project/P2G_FW/Libraries/XMCLib/inc\xmc_dma.h ****  */
 528:E:/NOVA/Assets/IFX_P2G-HW-SW_V1.0.4/Firmware_Software/DAVE project/P2G_FW/Libraries/XMCLib/inc\xmc_dma.h **** __STATIC_INLINE uint32_t XMC_DMA_GetEventStatus(XMC_DMA_t *const dma)
 529:E:/NOVA/Assets/IFX_P2G-HW-SW_V1.0.4/Firmware_Software/DAVE project/P2G_FW/Libraries/XMCLib/inc\xmc_dma.h **** {
 530:E:/NOVA/Assets/IFX_P2G-HW-SW_V1.0.4/Firmware_Software/DAVE project/P2G_FW/Libraries/XMCLib/inc\xmc_dma.h ****   return (dma->STATUSGLEV);
 531:E:/NOVA/Assets/IFX_P2G-HW-SW_V1.0.4/Firmware_Software/DAVE project/P2G_FW/Libraries/XMCLib/inc\xmc_dma.h **** }
 532:E:/NOVA/Assets/IFX_P2G-HW-SW_V1.0.4/Firmware_Software/DAVE project/P2G_FW/Libraries/XMCLib/inc\xmc_dma.h **** 
 533:E:/NOVA/Assets/IFX_P2G-HW-SW_V1.0.4/Firmware_Software/DAVE project/P2G_FW/Libraries/XMCLib/inc\xmc_dma.h **** /**
 534:E:/NOVA/Assets/IFX_P2G-HW-SW_V1.0.4/Firmware_Software/DAVE project/P2G_FW/Libraries/XMCLib/inc\xmc_dma.h ****  * @param dma A constant pointer to XMC_DMA_t, pointing to the GPDMA base address
 535:E:/NOVA/Assets/IFX_P2G-HW-SW_V1.0.4/Firmware_Software/DAVE project/P2G_FW/Libraries/XMCLib/inc\xmc_dma.h ****  * @return uint32_t DMA transfer complete status
 536:E:/NOVA/Assets/IFX_P2G-HW-SW_V1.0.4/Firmware_Software/DAVE project/P2G_FW/Libraries/XMCLib/inc\xmc_dma.h ****  *
 537:E:/NOVA/Assets/IFX_P2G-HW-SW_V1.0.4/Firmware_Software/DAVE project/P2G_FW/Libraries/XMCLib/inc\xmc_dma.h ****  * \par<b>Description: </b><br>
 538:E:/NOVA/Assets/IFX_P2G-HW-SW_V1.0.4/Firmware_Software/DAVE project/P2G_FW/Libraries/XMCLib/inc\xmc_dma.h ****  * Get transfer complete status <br>
 539:E:/NOVA/Assets/IFX_P2G-HW-SW_V1.0.4/Firmware_Software/DAVE project/P2G_FW/Libraries/XMCLib/inc\xmc_dma.h ****  *
 540:E:/NOVA/Assets/IFX_P2G-HW-SW_V1.0.4/Firmware_Software/DAVE project/P2G_FW/Libraries/XMCLib/inc\xmc_dma.h ****  * \par
 541:E:/NOVA/Assets/IFX_P2G-HW-SW_V1.0.4/Firmware_Software/DAVE project/P2G_FW/Libraries/XMCLib/inc\xmc_dma.h ****  * The function returns GPDMA transfer complete interrupt status. <br>
 542:E:/NOVA/Assets/IFX_P2G-HW-SW_V1.0.4/Firmware_Software/DAVE project/P2G_FW/Libraries/XMCLib/inc\xmc_dma.h ****  */
 543:E:/NOVA/Assets/IFX_P2G-HW-SW_V1.0.4/Firmware_Software/DAVE project/P2G_FW/Libraries/XMCLib/inc\xmc_dma.h **** __STATIC_INLINE uint32_t XMC_DMA_GetChannelsTransferCompleteStatus(XMC_DMA_t *const dma)
 544:E:/NOVA/Assets/IFX_P2G-HW-SW_V1.0.4/Firmware_Software/DAVE project/P2G_FW/Libraries/XMCLib/inc\xmc_dma.h **** {
 545:E:/NOVA/Assets/IFX_P2G-HW-SW_V1.0.4/Firmware_Software/DAVE project/P2G_FW/Libraries/XMCLib/inc\xmc_dma.h ****   return (dma->STATUSCHEV[0]);
 546:E:/NOVA/Assets/IFX_P2G-HW-SW_V1.0.4/Firmware_Software/DAVE project/P2G_FW/Libraries/XMCLib/inc\xmc_dma.h **** }
 547:E:/NOVA/Assets/IFX_P2G-HW-SW_V1.0.4/Firmware_Software/DAVE project/P2G_FW/Libraries/XMCLib/inc\xmc_dma.h **** 
 548:E:/NOVA/Assets/IFX_P2G-HW-SW_V1.0.4/Firmware_Software/DAVE project/P2G_FW/Libraries/XMCLib/inc\xmc_dma.h **** /**
 549:E:/NOVA/Assets/IFX_P2G-HW-SW_V1.0.4/Firmware_Software/DAVE project/P2G_FW/Libraries/XMCLib/inc\xmc_dma.h ****  * @param dma A constant pointer to XMC_DMA_t, pointing to the GPDMA base address
 550:E:/NOVA/Assets/IFX_P2G-HW-SW_V1.0.4/Firmware_Software/DAVE project/P2G_FW/Libraries/XMCLib/inc\xmc_dma.h ****  * @return uint32_t DMA block complete status
 551:E:/NOVA/Assets/IFX_P2G-HW-SW_V1.0.4/Firmware_Software/DAVE project/P2G_FW/Libraries/XMCLib/inc\xmc_dma.h ****  *
 552:E:/NOVA/Assets/IFX_P2G-HW-SW_V1.0.4/Firmware_Software/DAVE project/P2G_FW/Libraries/XMCLib/inc\xmc_dma.h ****  * \par<b>Description: </b><br>
 553:E:/NOVA/Assets/IFX_P2G-HW-SW_V1.0.4/Firmware_Software/DAVE project/P2G_FW/Libraries/XMCLib/inc\xmc_dma.h ****  * Get block transfer complete status <br>
 554:E:/NOVA/Assets/IFX_P2G-HW-SW_V1.0.4/Firmware_Software/DAVE project/P2G_FW/Libraries/XMCLib/inc\xmc_dma.h ****  *
 555:E:/NOVA/Assets/IFX_P2G-HW-SW_V1.0.4/Firmware_Software/DAVE project/P2G_FW/Libraries/XMCLib/inc\xmc_dma.h ****  * \par
 556:E:/NOVA/Assets/IFX_P2G-HW-SW_V1.0.4/Firmware_Software/DAVE project/P2G_FW/Libraries/XMCLib/inc\xmc_dma.h ****  * The function returns GPDMA block transfer complete interrupt status. <br>
 557:E:/NOVA/Assets/IFX_P2G-HW-SW_V1.0.4/Firmware_Software/DAVE project/P2G_FW/Libraries/XMCLib/inc\xmc_dma.h ****  */
 558:E:/NOVA/Assets/IFX_P2G-HW-SW_V1.0.4/Firmware_Software/DAVE project/P2G_FW/Libraries/XMCLib/inc\xmc_dma.h **** __STATIC_INLINE uint32_t XMC_DMA_GetChannelsBlockCompleteStatus(XMC_DMA_t *const dma)
 559:E:/NOVA/Assets/IFX_P2G-HW-SW_V1.0.4/Firmware_Software/DAVE project/P2G_FW/Libraries/XMCLib/inc\xmc_dma.h **** {
 560:E:/NOVA/Assets/IFX_P2G-HW-SW_V1.0.4/Firmware_Software/DAVE project/P2G_FW/Libraries/XMCLib/inc\xmc_dma.h ****   return (dma->STATUSCHEV[2]);
 561:E:/NOVA/Assets/IFX_P2G-HW-SW_V1.0.4/Firmware_Software/DAVE project/P2G_FW/Libraries/XMCLib/inc\xmc_dma.h **** }
 562:E:/NOVA/Assets/IFX_P2G-HW-SW_V1.0.4/Firmware_Software/DAVE project/P2G_FW/Libraries/XMCLib/inc\xmc_dma.h **** 
 563:E:/NOVA/Assets/IFX_P2G-HW-SW_V1.0.4/Firmware_Software/DAVE project/P2G_FW/Libraries/XMCLib/inc\xmc_dma.h **** /**
 564:E:/NOVA/Assets/IFX_P2G-HW-SW_V1.0.4/Firmware_Software/DAVE project/P2G_FW/Libraries/XMCLib/inc\xmc_dma.h ****  * @param dma A constant pointer to XMC_DMA_t, pointing to the GPDMA base address
 565:E:/NOVA/Assets/IFX_P2G-HW-SW_V1.0.4/Firmware_Software/DAVE project/P2G_FW/Libraries/XMCLib/inc\xmc_dma.h ****  * @return uint32_t DMA event status
 566:E:/NOVA/Assets/IFX_P2G-HW-SW_V1.0.4/Firmware_Software/DAVE project/P2G_FW/Libraries/XMCLib/inc\xmc_dma.h ****  *
 567:E:/NOVA/Assets/IFX_P2G-HW-SW_V1.0.4/Firmware_Software/DAVE project/P2G_FW/Libraries/XMCLib/inc\xmc_dma.h ****  * \par<b>Description: </b><br>
 568:E:/NOVA/Assets/IFX_P2G-HW-SW_V1.0.4/Firmware_Software/DAVE project/P2G_FW/Libraries/XMCLib/inc\xmc_dma.h ****  * Get source transaction complete status <br>
 569:E:/NOVA/Assets/IFX_P2G-HW-SW_V1.0.4/Firmware_Software/DAVE project/P2G_FW/Libraries/XMCLib/inc\xmc_dma.h ****  *
 570:E:/NOVA/Assets/IFX_P2G-HW-SW_V1.0.4/Firmware_Software/DAVE project/P2G_FW/Libraries/XMCLib/inc\xmc_dma.h ****  * \par
 571:E:/NOVA/Assets/IFX_P2G-HW-SW_V1.0.4/Firmware_Software/DAVE project/P2G_FW/Libraries/XMCLib/inc\xmc_dma.h ****  * The function returns the source transaction complete interrupt status. <br>
 572:E:/NOVA/Assets/IFX_P2G-HW-SW_V1.0.4/Firmware_Software/DAVE project/P2G_FW/Libraries/XMCLib/inc\xmc_dma.h ****  *
 573:E:/NOVA/Assets/IFX_P2G-HW-SW_V1.0.4/Firmware_Software/DAVE project/P2G_FW/Libraries/XMCLib/inc\xmc_dma.h ****  * \par<b>Note: </b><br>
 574:E:/NOVA/Assets/IFX_P2G-HW-SW_V1.0.4/Firmware_Software/DAVE project/P2G_FW/Libraries/XMCLib/inc\xmc_dma.h ****  * If the source peripheral is memory, the source transaction complete interrupt is
 575:E:/NOVA/Assets/IFX_P2G-HW-SW_V1.0.4/Firmware_Software/DAVE project/P2G_FW/Libraries/XMCLib/inc\xmc_dma.h ****  * ignored.
 576:E:/NOVA/Assets/IFX_P2G-HW-SW_V1.0.4/Firmware_Software/DAVE project/P2G_FW/Libraries/XMCLib/inc\xmc_dma.h ****  */
 577:E:/NOVA/Assets/IFX_P2G-HW-SW_V1.0.4/Firmware_Software/DAVE project/P2G_FW/Libraries/XMCLib/inc\xmc_dma.h **** __STATIC_INLINE uint32_t XMC_DMA_GetChannelsSourceTransactionCompleteStatus(XMC_DMA_t *const dma)
 578:E:/NOVA/Assets/IFX_P2G-HW-SW_V1.0.4/Firmware_Software/DAVE project/P2G_FW/Libraries/XMCLib/inc\xmc_dma.h **** {
 579:E:/NOVA/Assets/IFX_P2G-HW-SW_V1.0.4/Firmware_Software/DAVE project/P2G_FW/Libraries/XMCLib/inc\xmc_dma.h ****   return (dma->STATUSCHEV[4]);
 580:E:/NOVA/Assets/IFX_P2G-HW-SW_V1.0.4/Firmware_Software/DAVE project/P2G_FW/Libraries/XMCLib/inc\xmc_dma.h **** }
 581:E:/NOVA/Assets/IFX_P2G-HW-SW_V1.0.4/Firmware_Software/DAVE project/P2G_FW/Libraries/XMCLib/inc\xmc_dma.h **** 
 582:E:/NOVA/Assets/IFX_P2G-HW-SW_V1.0.4/Firmware_Software/DAVE project/P2G_FW/Libraries/XMCLib/inc\xmc_dma.h **** /**
 583:E:/NOVA/Assets/IFX_P2G-HW-SW_V1.0.4/Firmware_Software/DAVE project/P2G_FW/Libraries/XMCLib/inc\xmc_dma.h ****  * @param dma A constant pointer to XMC_DMA_t, pointing to the GPDMA base address
 584:E:/NOVA/Assets/IFX_P2G-HW-SW_V1.0.4/Firmware_Software/DAVE project/P2G_FW/Libraries/XMCLib/inc\xmc_dma.h ****  * @return uint32_t DMA event status
 585:E:/NOVA/Assets/IFX_P2G-HW-SW_V1.0.4/Firmware_Software/DAVE project/P2G_FW/Libraries/XMCLib/inc\xmc_dma.h ****  *
 586:E:/NOVA/Assets/IFX_P2G-HW-SW_V1.0.4/Firmware_Software/DAVE project/P2G_FW/Libraries/XMCLib/inc\xmc_dma.h ****  * \par<b>Description: </b><br>
 587:E:/NOVA/Assets/IFX_P2G-HW-SW_V1.0.4/Firmware_Software/DAVE project/P2G_FW/Libraries/XMCLib/inc\xmc_dma.h ****  * Get destination transaction complete status <br>
 588:E:/NOVA/Assets/IFX_P2G-HW-SW_V1.0.4/Firmware_Software/DAVE project/P2G_FW/Libraries/XMCLib/inc\xmc_dma.h ****  *
 589:E:/NOVA/Assets/IFX_P2G-HW-SW_V1.0.4/Firmware_Software/DAVE project/P2G_FW/Libraries/XMCLib/inc\xmc_dma.h ****  * \par
 590:E:/NOVA/Assets/IFX_P2G-HW-SW_V1.0.4/Firmware_Software/DAVE project/P2G_FW/Libraries/XMCLib/inc\xmc_dma.h ****  * The function returns the destination transaction complete interrupt status <br>
 591:E:/NOVA/Assets/IFX_P2G-HW-SW_V1.0.4/Firmware_Software/DAVE project/P2G_FW/Libraries/XMCLib/inc\xmc_dma.h ****  *
 592:E:/NOVA/Assets/IFX_P2G-HW-SW_V1.0.4/Firmware_Software/DAVE project/P2G_FW/Libraries/XMCLib/inc\xmc_dma.h ****  * \par<b>Note: </b><br>
 593:E:/NOVA/Assets/IFX_P2G-HW-SW_V1.0.4/Firmware_Software/DAVE project/P2G_FW/Libraries/XMCLib/inc\xmc_dma.h ****  * If the destination peripheral is memory, the destination transaction complete
 594:E:/NOVA/Assets/IFX_P2G-HW-SW_V1.0.4/Firmware_Software/DAVE project/P2G_FW/Libraries/XMCLib/inc\xmc_dma.h ****  * interrupt is ignored.
 595:E:/NOVA/Assets/IFX_P2G-HW-SW_V1.0.4/Firmware_Software/DAVE project/P2G_FW/Libraries/XMCLib/inc\xmc_dma.h ****  */
 596:E:/NOVA/Assets/IFX_P2G-HW-SW_V1.0.4/Firmware_Software/DAVE project/P2G_FW/Libraries/XMCLib/inc\xmc_dma.h **** __STATIC_INLINE uint32_t XMC_DMA_GetChannelsDestinationTransactionCompleteStatus(XMC_DMA_t *const d
 597:E:/NOVA/Assets/IFX_P2G-HW-SW_V1.0.4/Firmware_Software/DAVE project/P2G_FW/Libraries/XMCLib/inc\xmc_dma.h **** {
 598:E:/NOVA/Assets/IFX_P2G-HW-SW_V1.0.4/Firmware_Software/DAVE project/P2G_FW/Libraries/XMCLib/inc\xmc_dma.h ****   return (dma->STATUSCHEV[6]);
 599:E:/NOVA/Assets/IFX_P2G-HW-SW_V1.0.4/Firmware_Software/DAVE project/P2G_FW/Libraries/XMCLib/inc\xmc_dma.h **** }
 600:E:/NOVA/Assets/IFX_P2G-HW-SW_V1.0.4/Firmware_Software/DAVE project/P2G_FW/Libraries/XMCLib/inc\xmc_dma.h **** 
 601:E:/NOVA/Assets/IFX_P2G-HW-SW_V1.0.4/Firmware_Software/DAVE project/P2G_FW/Libraries/XMCLib/inc\xmc_dma.h **** /**
 602:E:/NOVA/Assets/IFX_P2G-HW-SW_V1.0.4/Firmware_Software/DAVE project/P2G_FW/Libraries/XMCLib/inc\xmc_dma.h ****  * @param dma A constant pointer to XMC_DMA_t, pointing to the GPDMA base address
 603:E:/NOVA/Assets/IFX_P2G-HW-SW_V1.0.4/Firmware_Software/DAVE project/P2G_FW/Libraries/XMCLib/inc\xmc_dma.h ****  * @return uint32_t DMA error event status
 604:E:/NOVA/Assets/IFX_P2G-HW-SW_V1.0.4/Firmware_Software/DAVE project/P2G_FW/Libraries/XMCLib/inc\xmc_dma.h ****  *
 605:E:/NOVA/Assets/IFX_P2G-HW-SW_V1.0.4/Firmware_Software/DAVE project/P2G_FW/Libraries/XMCLib/inc\xmc_dma.h ****  * \par<b>Description: </b><br>
 606:E:/NOVA/Assets/IFX_P2G-HW-SW_V1.0.4/Firmware_Software/DAVE project/P2G_FW/Libraries/XMCLib/inc\xmc_dma.h ****  * Get DMA error event status <br>
 607:E:/NOVA/Assets/IFX_P2G-HW-SW_V1.0.4/Firmware_Software/DAVE project/P2G_FW/Libraries/XMCLib/inc\xmc_dma.h ****  *
 608:E:/NOVA/Assets/IFX_P2G-HW-SW_V1.0.4/Firmware_Software/DAVE project/P2G_FW/Libraries/XMCLib/inc\xmc_dma.h ****  * \par
 609:E:/NOVA/Assets/IFX_P2G-HW-SW_V1.0.4/Firmware_Software/DAVE project/P2G_FW/Libraries/XMCLib/inc\xmc_dma.h ****  * The function returns error interrupt status. <br>
 610:E:/NOVA/Assets/IFX_P2G-HW-SW_V1.0.4/Firmware_Software/DAVE project/P2G_FW/Libraries/XMCLib/inc\xmc_dma.h ****  */
 611:E:/NOVA/Assets/IFX_P2G-HW-SW_V1.0.4/Firmware_Software/DAVE project/P2G_FW/Libraries/XMCLib/inc\xmc_dma.h **** __STATIC_INLINE uint32_t XMC_DMA_GetChannelsErrorStatus(XMC_DMA_t *const dma)
 612:E:/NOVA/Assets/IFX_P2G-HW-SW_V1.0.4/Firmware_Software/DAVE project/P2G_FW/Libraries/XMCLib/inc\xmc_dma.h **** {
 613:E:/NOVA/Assets/IFX_P2G-HW-SW_V1.0.4/Firmware_Software/DAVE project/P2G_FW/Libraries/XMCLib/inc\xmc_dma.h ****   return (dma->STATUSCHEV[8]);
 614:E:/NOVA/Assets/IFX_P2G-HW-SW_V1.0.4/Firmware_Software/DAVE project/P2G_FW/Libraries/XMCLib/inc\xmc_dma.h **** }
 615:E:/NOVA/Assets/IFX_P2G-HW-SW_V1.0.4/Firmware_Software/DAVE project/P2G_FW/Libraries/XMCLib/inc\xmc_dma.h **** 
 616:E:/NOVA/Assets/IFX_P2G-HW-SW_V1.0.4/Firmware_Software/DAVE project/P2G_FW/Libraries/XMCLib/inc\xmc_dma.h **** /**
 617:E:/NOVA/Assets/IFX_P2G-HW-SW_V1.0.4/Firmware_Software/DAVE project/P2G_FW/Libraries/XMCLib/inc\xmc_dma.h ****  * @param dma A constant pointer to XMC_DMA_t, pointing to the GPDMA base address
 618:E:/NOVA/Assets/IFX_P2G-HW-SW_V1.0.4/Firmware_Software/DAVE project/P2G_FW/Libraries/XMCLib/inc\xmc_dma.h ****  * @param line Which DLR (DMA line router) line should the function use?
 619:E:/NOVA/Assets/IFX_P2G-HW-SW_V1.0.4/Firmware_Software/DAVE project/P2G_FW/Libraries/XMCLib/inc\xmc_dma.h ****  * @param peripheral Which hardware peripheral is the GPDMA communicating with?
 620:E:/NOVA/Assets/IFX_P2G-HW-SW_V1.0.4/Firmware_Software/DAVE project/P2G_FW/Libraries/XMCLib/inc\xmc_dma.h ****  * @return None
 621:E:/NOVA/Assets/IFX_P2G-HW-SW_V1.0.4/Firmware_Software/DAVE project/P2G_FW/Libraries/XMCLib/inc\xmc_dma.h ****  *
 622:E:/NOVA/Assets/IFX_P2G-HW-SW_V1.0.4/Firmware_Software/DAVE project/P2G_FW/Libraries/XMCLib/inc\xmc_dma.h ****  * \par<b>Description: </b><br>
 623:E:/NOVA/Assets/IFX_P2G-HW-SW_V1.0.4/Firmware_Software/DAVE project/P2G_FW/Libraries/XMCLib/inc\xmc_dma.h ****  * Enable request line <br>
 624:E:/NOVA/Assets/IFX_P2G-HW-SW_V1.0.4/Firmware_Software/DAVE project/P2G_FW/Libraries/XMCLib/inc\xmc_dma.h ****  *
 625:E:/NOVA/Assets/IFX_P2G-HW-SW_V1.0.4/Firmware_Software/DAVE project/P2G_FW/Libraries/XMCLib/inc\xmc_dma.h ****  * \par
 626:E:/NOVA/Assets/IFX_P2G-HW-SW_V1.0.4/Firmware_Software/DAVE project/P2G_FW/Libraries/XMCLib/inc\xmc_dma.h ****  * The function enables a DLR (DMA line router) line and selects a service request
 627:E:/NOVA/Assets/IFX_P2G-HW-SW_V1.0.4/Firmware_Software/DAVE project/P2G_FW/Libraries/XMCLib/inc\xmc_dma.h ****  * source, resulting in the trigger of a DMA transfer. <br>
 628:E:/NOVA/Assets/IFX_P2G-HW-SW_V1.0.4/Firmware_Software/DAVE project/P2G_FW/Libraries/XMCLib/inc\xmc_dma.h ****  *
 629:E:/NOVA/Assets/IFX_P2G-HW-SW_V1.0.4/Firmware_Software/DAVE project/P2G_FW/Libraries/XMCLib/inc\xmc_dma.h ****  * \par<b>Note: </b><br>
 630:E:/NOVA/Assets/IFX_P2G-HW-SW_V1.0.4/Firmware_Software/DAVE project/P2G_FW/Libraries/XMCLib/inc\xmc_dma.h ****  * The DLR is used for a DMA transfer typically involving a peripheral; For example,
 631:E:/NOVA/Assets/IFX_P2G-HW-SW_V1.0.4/Firmware_Software/DAVE project/P2G_FW/Libraries/XMCLib/inc\xmc_dma.h ****  * the ADC peripheral may use the DLR in hardware handshaking mode to transfer
 632:E:/NOVA/Assets/IFX_P2G-HW-SW_V1.0.4/Firmware_Software/DAVE project/P2G_FW/Libraries/XMCLib/inc\xmc_dma.h ****  * ADC conversion values to a destination memory block.
 633:E:/NOVA/Assets/IFX_P2G-HW-SW_V1.0.4/Firmware_Software/DAVE project/P2G_FW/Libraries/XMCLib/inc\xmc_dma.h ****  */
 634:E:/NOVA/Assets/IFX_P2G-HW-SW_V1.0.4/Firmware_Software/DAVE project/P2G_FW/Libraries/XMCLib/inc\xmc_dma.h **** void XMC_DMA_EnableRequestLine(XMC_DMA_t *const dma, uint8_t line, uint8_t peripheral);
 635:E:/NOVA/Assets/IFX_P2G-HW-SW_V1.0.4/Firmware_Software/DAVE project/P2G_FW/Libraries/XMCLib/inc\xmc_dma.h **** 
 636:E:/NOVA/Assets/IFX_P2G-HW-SW_V1.0.4/Firmware_Software/DAVE project/P2G_FW/Libraries/XMCLib/inc\xmc_dma.h **** /**
 637:E:/NOVA/Assets/IFX_P2G-HW-SW_V1.0.4/Firmware_Software/DAVE project/P2G_FW/Libraries/XMCLib/inc\xmc_dma.h ****  * @param dma A constant pointer to XMC_DMA_t, pointing to the GPDMA base address
 638:E:/NOVA/Assets/IFX_P2G-HW-SW_V1.0.4/Firmware_Software/DAVE project/P2G_FW/Libraries/XMCLib/inc\xmc_dma.h ****  * @param line Which DLR (DMA line router) line should the function use?
 639:E:/NOVA/Assets/IFX_P2G-HW-SW_V1.0.4/Firmware_Software/DAVE project/P2G_FW/Libraries/XMCLib/inc\xmc_dma.h ****  * @return None
 640:E:/NOVA/Assets/IFX_P2G-HW-SW_V1.0.4/Firmware_Software/DAVE project/P2G_FW/Libraries/XMCLib/inc\xmc_dma.h ****  *
 641:E:/NOVA/Assets/IFX_P2G-HW-SW_V1.0.4/Firmware_Software/DAVE project/P2G_FW/Libraries/XMCLib/inc\xmc_dma.h ****  * \par<b>Description: </b><br>
 642:E:/NOVA/Assets/IFX_P2G-HW-SW_V1.0.4/Firmware_Software/DAVE project/P2G_FW/Libraries/XMCLib/inc\xmc_dma.h ****  * Disable request line <br>
 643:E:/NOVA/Assets/IFX_P2G-HW-SW_V1.0.4/Firmware_Software/DAVE project/P2G_FW/Libraries/XMCLib/inc\xmc_dma.h ****  *
 644:E:/NOVA/Assets/IFX_P2G-HW-SW_V1.0.4/Firmware_Software/DAVE project/P2G_FW/Libraries/XMCLib/inc\xmc_dma.h ****  * \par
 645:E:/NOVA/Assets/IFX_P2G-HW-SW_V1.0.4/Firmware_Software/DAVE project/P2G_FW/Libraries/XMCLib/inc\xmc_dma.h ****  * The function disables a DLR (DMA line router) line by clearing appropriate bits
 646:E:/NOVA/Assets/IFX_P2G-HW-SW_V1.0.4/Firmware_Software/DAVE project/P2G_FW/Libraries/XMCLib/inc\xmc_dma.h ****  * in the LNEN register. <br>
 647:E:/NOVA/Assets/IFX_P2G-HW-SW_V1.0.4/Firmware_Software/DAVE project/P2G_FW/Libraries/XMCLib/inc\xmc_dma.h ****  */
 648:E:/NOVA/Assets/IFX_P2G-HW-SW_V1.0.4/Firmware_Software/DAVE project/P2G_FW/Libraries/XMCLib/inc\xmc_dma.h **** void XMC_DMA_DisableRequestLine(XMC_DMA_t *const dma, uint8_t line);
 649:E:/NOVA/Assets/IFX_P2G-HW-SW_V1.0.4/Firmware_Software/DAVE project/P2G_FW/Libraries/XMCLib/inc\xmc_dma.h **** 
 650:E:/NOVA/Assets/IFX_P2G-HW-SW_V1.0.4/Firmware_Software/DAVE project/P2G_FW/Libraries/XMCLib/inc\xmc_dma.h **** /**
 651:E:/NOVA/Assets/IFX_P2G-HW-SW_V1.0.4/Firmware_Software/DAVE project/P2G_FW/Libraries/XMCLib/inc\xmc_dma.h ****  * @param dma A constant pointer to XMC_DMA_t, pointing to the GPDMA base address
 652:E:/NOVA/Assets/IFX_P2G-HW-SW_V1.0.4/Firmware_Software/DAVE project/P2G_FW/Libraries/XMCLib/inc\xmc_dma.h ****  * @param line Which DLR (DMA line router) line should the function use?
 653:E:/NOVA/Assets/IFX_P2G-HW-SW_V1.0.4/Firmware_Software/DAVE project/P2G_FW/Libraries/XMCLib/inc\xmc_dma.h ****  * @return None
 654:E:/NOVA/Assets/IFX_P2G-HW-SW_V1.0.4/Firmware_Software/DAVE project/P2G_FW/Libraries/XMCLib/inc\xmc_dma.h ****  *
 655:E:/NOVA/Assets/IFX_P2G-HW-SW_V1.0.4/Firmware_Software/DAVE project/P2G_FW/Libraries/XMCLib/inc\xmc_dma.h ****  * \par<b>Description: </b><br>
 656:E:/NOVA/Assets/IFX_P2G-HW-SW_V1.0.4/Firmware_Software/DAVE project/P2G_FW/Libraries/XMCLib/inc\xmc_dma.h ****  * Clear request line <br>
 657:E:/NOVA/Assets/IFX_P2G-HW-SW_V1.0.4/Firmware_Software/DAVE project/P2G_FW/Libraries/XMCLib/inc\xmc_dma.h ****  *
 658:E:/NOVA/Assets/IFX_P2G-HW-SW_V1.0.4/Firmware_Software/DAVE project/P2G_FW/Libraries/XMCLib/inc\xmc_dma.h ****  * \par
 659:E:/NOVA/Assets/IFX_P2G-HW-SW_V1.0.4/Firmware_Software/DAVE project/P2G_FW/Libraries/XMCLib/inc\xmc_dma.h ****  * The function clears a DLR (DMA line router) request line. <br>
 660:E:/NOVA/Assets/IFX_P2G-HW-SW_V1.0.4/Firmware_Software/DAVE project/P2G_FW/Libraries/XMCLib/inc\xmc_dma.h ****  */
 661:E:/NOVA/Assets/IFX_P2G-HW-SW_V1.0.4/Firmware_Software/DAVE project/P2G_FW/Libraries/XMCLib/inc\xmc_dma.h **** void XMC_DMA_ClearRequestLine(XMC_DMA_t *const dma, uint8_t line);
 662:E:/NOVA/Assets/IFX_P2G-HW-SW_V1.0.4/Firmware_Software/DAVE project/P2G_FW/Libraries/XMCLib/inc\xmc_dma.h **** 
 663:E:/NOVA/Assets/IFX_P2G-HW-SW_V1.0.4/Firmware_Software/DAVE project/P2G_FW/Libraries/XMCLib/inc\xmc_dma.h **** /**
 664:E:/NOVA/Assets/IFX_P2G-HW-SW_V1.0.4/Firmware_Software/DAVE project/P2G_FW/Libraries/XMCLib/inc\xmc_dma.h ****  * @param dma A constant pointer to XMC_DMA_t, pointing to the GPDMA base address
 665:E:/NOVA/Assets/IFX_P2G-HW-SW_V1.0.4/Firmware_Software/DAVE project/P2G_FW/Libraries/XMCLib/inc\xmc_dma.h ****  * @param line The line for which the overrun status is requested
 666:E:/NOVA/Assets/IFX_P2G-HW-SW_V1.0.4/Firmware_Software/DAVE project/P2G_FW/Libraries/XMCLib/inc\xmc_dma.h ****  * @return bool "true" if overrun occured, "false" otherwise
 667:E:/NOVA/Assets/IFX_P2G-HW-SW_V1.0.4/Firmware_Software/DAVE project/P2G_FW/Libraries/XMCLib/inc\xmc_dma.h ****  *
 668:E:/NOVA/Assets/IFX_P2G-HW-SW_V1.0.4/Firmware_Software/DAVE project/P2G_FW/Libraries/XMCLib/inc\xmc_dma.h ****  * \par<b>Description: </b><br>
 669:E:/NOVA/Assets/IFX_P2G-HW-SW_V1.0.4/Firmware_Software/DAVE project/P2G_FW/Libraries/XMCLib/inc\xmc_dma.h ****  * Get overrun status of a DLR line <br>
 670:E:/NOVA/Assets/IFX_P2G-HW-SW_V1.0.4/Firmware_Software/DAVE project/P2G_FW/Libraries/XMCLib/inc\xmc_dma.h ****  *
 671:E:/NOVA/Assets/IFX_P2G-HW-SW_V1.0.4/Firmware_Software/DAVE project/P2G_FW/Libraries/XMCLib/inc\xmc_dma.h ****  * \par
 672:E:/NOVA/Assets/IFX_P2G-HW-SW_V1.0.4/Firmware_Software/DAVE project/P2G_FW/Libraries/XMCLib/inc\xmc_dma.h ****  * The DLR module's OVERSTAT register keeps track of DMA service request overruns.
 673:E:/NOVA/Assets/IFX_P2G-HW-SW_V1.0.4/Firmware_Software/DAVE project/P2G_FW/Libraries/XMCLib/inc\xmc_dma.h ****  * Should an overrun occur, the bit corresponding to the used DLR line is set. The
 674:E:/NOVA/Assets/IFX_P2G-HW-SW_V1.0.4/Firmware_Software/DAVE project/P2G_FW/Libraries/XMCLib/inc\xmc_dma.h ****  * function simply reads this status and returns "true" if an overrun is detected
 675:E:/NOVA/Assets/IFX_P2G-HW-SW_V1.0.4/Firmware_Software/DAVE project/P2G_FW/Libraries/XMCLib/inc\xmc_dma.h ****  * It returns "false" if an overrun isn't registered.
 676:E:/NOVA/Assets/IFX_P2G-HW-SW_V1.0.4/Firmware_Software/DAVE project/P2G_FW/Libraries/XMCLib/inc\xmc_dma.h ****  */
 677:E:/NOVA/Assets/IFX_P2G-HW-SW_V1.0.4/Firmware_Software/DAVE project/P2G_FW/Libraries/XMCLib/inc\xmc_dma.h **** bool XMC_DMA_GetOverrunStatus(XMC_DMA_t *const dma, const uint8_t line);
 678:E:/NOVA/Assets/IFX_P2G-HW-SW_V1.0.4/Firmware_Software/DAVE project/P2G_FW/Libraries/XMCLib/inc\xmc_dma.h **** 
 679:E:/NOVA/Assets/IFX_P2G-HW-SW_V1.0.4/Firmware_Software/DAVE project/P2G_FW/Libraries/XMCLib/inc\xmc_dma.h **** /**
 680:E:/NOVA/Assets/IFX_P2G-HW-SW_V1.0.4/Firmware_Software/DAVE project/P2G_FW/Libraries/XMCLib/inc\xmc_dma.h ****  * @param dma A constant pointer to XMC_DMA_t, pointing to the GPDMA base address
 681:E:/NOVA/Assets/IFX_P2G-HW-SW_V1.0.4/Firmware_Software/DAVE project/P2G_FW/Libraries/XMCLib/inc\xmc_dma.h ****  * @param line The line for which the overrun status must be cleared
 682:E:/NOVA/Assets/IFX_P2G-HW-SW_V1.0.4/Firmware_Software/DAVE project/P2G_FW/Libraries/XMCLib/inc\xmc_dma.h ****  * @return None
 683:E:/NOVA/Assets/IFX_P2G-HW-SW_V1.0.4/Firmware_Software/DAVE project/P2G_FW/Libraries/XMCLib/inc\xmc_dma.h ****  *
 684:E:/NOVA/Assets/IFX_P2G-HW-SW_V1.0.4/Firmware_Software/DAVE project/P2G_FW/Libraries/XMCLib/inc\xmc_dma.h ****  * \par<b>Description: </b><br>
 685:E:/NOVA/Assets/IFX_P2G-HW-SW_V1.0.4/Firmware_Software/DAVE project/P2G_FW/Libraries/XMCLib/inc\xmc_dma.h ****  * Clear overrun status of a DLR line <br>
 686:E:/NOVA/Assets/IFX_P2G-HW-SW_V1.0.4/Firmware_Software/DAVE project/P2G_FW/Libraries/XMCLib/inc\xmc_dma.h ****  *
 687:E:/NOVA/Assets/IFX_P2G-HW-SW_V1.0.4/Firmware_Software/DAVE project/P2G_FW/Libraries/XMCLib/inc\xmc_dma.h ****  * \par
 688:E:/NOVA/Assets/IFX_P2G-HW-SW_V1.0.4/Firmware_Software/DAVE project/P2G_FW/Libraries/XMCLib/inc\xmc_dma.h ****  * The function clears the overrun status of a line by setting the corresponding
 689:E:/NOVA/Assets/IFX_P2G-HW-SW_V1.0.4/Firmware_Software/DAVE project/P2G_FW/Libraries/XMCLib/inc\xmc_dma.h ****  * line bit in the DLR's OVERCLR register.
 690:E:/NOVA/Assets/IFX_P2G-HW-SW_V1.0.4/Firmware_Software/DAVE project/P2G_FW/Libraries/XMCLib/inc\xmc_dma.h ****  */
 691:E:/NOVA/Assets/IFX_P2G-HW-SW_V1.0.4/Firmware_Software/DAVE project/P2G_FW/Libraries/XMCLib/inc\xmc_dma.h **** void XMC_DMA_ClearOverrunStatus(XMC_DMA_t *const dma, const uint8_t line);
 692:E:/NOVA/Assets/IFX_P2G-HW-SW_V1.0.4/Firmware_Software/DAVE project/P2G_FW/Libraries/XMCLib/inc\xmc_dma.h **** 
 693:E:/NOVA/Assets/IFX_P2G-HW-SW_V1.0.4/Firmware_Software/DAVE project/P2G_FW/Libraries/XMCLib/inc\xmc_dma.h **** /**
 694:E:/NOVA/Assets/IFX_P2G-HW-SW_V1.0.4/Firmware_Software/DAVE project/P2G_FW/Libraries/XMCLib/inc\xmc_dma.h ****  * @param dma A constant pointer to XMC_DMA_t, pointing to the GPDMA base address
 695:E:/NOVA/Assets/IFX_P2G-HW-SW_V1.0.4/Firmware_Software/DAVE project/P2G_FW/Libraries/XMCLib/inc\xmc_dma.h ****  * @param channel The GPDMA channel (number) which needs to be initialized
 696:E:/NOVA/Assets/IFX_P2G-HW-SW_V1.0.4/Firmware_Software/DAVE project/P2G_FW/Libraries/XMCLib/inc\xmc_dma.h ****  * @param config A constant pointer to ::XMC_DMA_CH_CONFIG_t, pointing to a const
 697:E:/NOVA/Assets/IFX_P2G-HW-SW_V1.0.4/Firmware_Software/DAVE project/P2G_FW/Libraries/XMCLib/inc\xmc_dma.h ****  *               channel configuration
 698:E:/NOVA/Assets/IFX_P2G-HW-SW_V1.0.4/Firmware_Software/DAVE project/P2G_FW/Libraries/XMCLib/inc\xmc_dma.h ****  * @return XMC_DMA_CH_STATUS_t Initialization status
 699:E:/NOVA/Assets/IFX_P2G-HW-SW_V1.0.4/Firmware_Software/DAVE project/P2G_FW/Libraries/XMCLib/inc\xmc_dma.h ****  *
 700:E:/NOVA/Assets/IFX_P2G-HW-SW_V1.0.4/Firmware_Software/DAVE project/P2G_FW/Libraries/XMCLib/inc\xmc_dma.h ****  * \par<b>Description: </b><br>
 701:E:/NOVA/Assets/IFX_P2G-HW-SW_V1.0.4/Firmware_Software/DAVE project/P2G_FW/Libraries/XMCLib/inc\xmc_dma.h ****  * Initialize a GPDMA channel with provided channel configuration <br>
 702:E:/NOVA/Assets/IFX_P2G-HW-SW_V1.0.4/Firmware_Software/DAVE project/P2G_FW/Libraries/XMCLib/inc\xmc_dma.h ****  *
 703:E:/NOVA/Assets/IFX_P2G-HW-SW_V1.0.4/Firmware_Software/DAVE project/P2G_FW/Libraries/XMCLib/inc\xmc_dma.h ****  * \par
 704:E:/NOVA/Assets/IFX_P2G-HW-SW_V1.0.4/Firmware_Software/DAVE project/P2G_FW/Libraries/XMCLib/inc\xmc_dma.h ****  * The function sets up the following channel configuration parameters for a GPDMA
 705:E:/NOVA/Assets/IFX_P2G-HW-SW_V1.0.4/Firmware_Software/DAVE project/P2G_FW/Libraries/XMCLib/inc\xmc_dma.h ****  * channel (specified by the parameter channel): <br>
 706:E:/NOVA/Assets/IFX_P2G-HW-SW_V1.0.4/Firmware_Software/DAVE project/P2G_FW/Libraries/XMCLib/inc\xmc_dma.h ****  * 1) Source and destination addresses (and linked list address if requested) <br>
 707:E:/NOVA/Assets/IFX_P2G-HW-SW_V1.0.4/Firmware_Software/DAVE project/P2G_FW/Libraries/XMCLib/inc\xmc_dma.h ****  * 2) Source and destination handshaking interface (hardware or software?)    <br>
 708:E:/NOVA/Assets/IFX_P2G-HW-SW_V1.0.4/Firmware_Software/DAVE project/P2G_FW/Libraries/XMCLib/inc\xmc_dma.h ****  * 3) Scatter/gather configuration                                            <br>
 709:E:/NOVA/Assets/IFX_P2G-HW-SW_V1.0.4/Firmware_Software/DAVE project/P2G_FW/Libraries/XMCLib/inc\xmc_dma.h ****  * 4) Source and destination peripheral request (DMA is the flow controller)  <br>
 710:E:/NOVA/Assets/IFX_P2G-HW-SW_V1.0.4/Firmware_Software/DAVE project/P2G_FW/Libraries/XMCLib/inc\xmc_dma.h ****  * 5) Transfer flow and type                                                  <br>
 711:E:/NOVA/Assets/IFX_P2G-HW-SW_V1.0.4/Firmware_Software/DAVE project/P2G_FW/Libraries/XMCLib/inc\xmc_dma.h ****  *
 712:E:/NOVA/Assets/IFX_P2G-HW-SW_V1.0.4/Firmware_Software/DAVE project/P2G_FW/Libraries/XMCLib/inc\xmc_dma.h ****  * \par
 713:E:/NOVA/Assets/IFX_P2G-HW-SW_V1.0.4/Firmware_Software/DAVE project/P2G_FW/Libraries/XMCLib/inc\xmc_dma.h ****  * The function returns one of the following values: <br>
 714:E:/NOVA/Assets/IFX_P2G-HW-SW_V1.0.4/Firmware_Software/DAVE project/P2G_FW/Libraries/XMCLib/inc\xmc_dma.h ****  * 1) In case the DMA channel is not enabled: ::XMC_DMA_CH_STATUS_BUSY        <br>
 715:E:/NOVA/Assets/IFX_P2G-HW-SW_V1.0.4/Firmware_Software/DAVE project/P2G_FW/Libraries/XMCLib/inc\xmc_dma.h ****  * 2) If the GPDMA module itself is not enabled: ::XMC_DMA_CH_STATUS_ERROR    <br>
 716:E:/NOVA/Assets/IFX_P2G-HW-SW_V1.0.4/Firmware_Software/DAVE project/P2G_FW/Libraries/XMCLib/inc\xmc_dma.h ****  * 3) If the configuration was successful: ::XMC_DMA_CH_STATUS_OK             <br>
 717:E:/NOVA/Assets/IFX_P2G-HW-SW_V1.0.4/Firmware_Software/DAVE project/P2G_FW/Libraries/XMCLib/inc\xmc_dma.h ****  *
 718:E:/NOVA/Assets/IFX_P2G-HW-SW_V1.0.4/Firmware_Software/DAVE project/P2G_FW/Libraries/XMCLib/inc\xmc_dma.h ****  * \par
 719:E:/NOVA/Assets/IFX_P2G-HW-SW_V1.0.4/Firmware_Software/DAVE project/P2G_FW/Libraries/XMCLib/inc\xmc_dma.h ****  * Once the initialization is successful, calling ::XMC_DMA_CH_Enable() will trigger
 720:E:/NOVA/Assets/IFX_P2G-HW-SW_V1.0.4/Firmware_Software/DAVE project/P2G_FW/Libraries/XMCLib/inc\xmc_dma.h ****  * a GPDMA transfer.
 721:E:/NOVA/Assets/IFX_P2G-HW-SW_V1.0.4/Firmware_Software/DAVE project/P2G_FW/Libraries/XMCLib/inc\xmc_dma.h ****  */
 722:E:/NOVA/Assets/IFX_P2G-HW-SW_V1.0.4/Firmware_Software/DAVE project/P2G_FW/Libraries/XMCLib/inc\xmc_dma.h **** XMC_DMA_CH_STATUS_t XMC_DMA_CH_Init(XMC_DMA_t *const dma, const uint8_t channel, const XMC_DMA_CH_C
 723:E:/NOVA/Assets/IFX_P2G-HW-SW_V1.0.4/Firmware_Software/DAVE project/P2G_FW/Libraries/XMCLib/inc\xmc_dma.h **** 
 724:E:/NOVA/Assets/IFX_P2G-HW-SW_V1.0.4/Firmware_Software/DAVE project/P2G_FW/Libraries/XMCLib/inc\xmc_dma.h **** /**
 725:E:/NOVA/Assets/IFX_P2G-HW-SW_V1.0.4/Firmware_Software/DAVE project/P2G_FW/Libraries/XMCLib/inc\xmc_dma.h ****  * @param dma A constant pointer to XMC_DMA_t, pointing to the GPDMA base address
 726:E:/NOVA/Assets/IFX_P2G-HW-SW_V1.0.4/Firmware_Software/DAVE project/P2G_FW/Libraries/XMCLib/inc\xmc_dma.h ****  * @param channel Which DMA channel should be enabled?
 727:E:/NOVA/Assets/IFX_P2G-HW-SW_V1.0.4/Firmware_Software/DAVE project/P2G_FW/Libraries/XMCLib/inc\xmc_dma.h ****  * @return None
 728:E:/NOVA/Assets/IFX_P2G-HW-SW_V1.0.4/Firmware_Software/DAVE project/P2G_FW/Libraries/XMCLib/inc\xmc_dma.h ****  *
 729:E:/NOVA/Assets/IFX_P2G-HW-SW_V1.0.4/Firmware_Software/DAVE project/P2G_FW/Libraries/XMCLib/inc\xmc_dma.h ****  * \par<b>Description: </b><br>
 730:E:/NOVA/Assets/IFX_P2G-HW-SW_V1.0.4/Firmware_Software/DAVE project/P2G_FW/Libraries/XMCLib/inc\xmc_dma.h ****  * Enable a GPDMA channel <br>
 731:E:/NOVA/Assets/IFX_P2G-HW-SW_V1.0.4/Firmware_Software/DAVE project/P2G_FW/Libraries/XMCLib/inc\xmc_dma.h ****  *
 732:E:/NOVA/Assets/IFX_P2G-HW-SW_V1.0.4/Firmware_Software/DAVE project/P2G_FW/Libraries/XMCLib/inc\xmc_dma.h ****  * \par
 733:E:/NOVA/Assets/IFX_P2G-HW-SW_V1.0.4/Firmware_Software/DAVE project/P2G_FW/Libraries/XMCLib/inc\xmc_dma.h ****  * The function sets the GPDMA's CHENREG register to enable a DMA channel. Please
 734:E:/NOVA/Assets/IFX_P2G-HW-SW_V1.0.4/Firmware_Software/DAVE project/P2G_FW/Libraries/XMCLib/inc\xmc_dma.h ****  * ensure that the GPDMA module itself is enabled before calling this function.
 735:E:/NOVA/Assets/IFX_P2G-HW-SW_V1.0.4/Firmware_Software/DAVE project/P2G_FW/Libraries/XMCLib/inc\xmc_dma.h ****  * See ::XMC_DMA_Enable() for details.
 736:E:/NOVA/Assets/IFX_P2G-HW-SW_V1.0.4/Firmware_Software/DAVE project/P2G_FW/Libraries/XMCLib/inc\xmc_dma.h ****  */
 737:E:/NOVA/Assets/IFX_P2G-HW-SW_V1.0.4/Firmware_Software/DAVE project/P2G_FW/Libraries/XMCLib/inc\xmc_dma.h **** __STATIC_INLINE void XMC_DMA_CH_Enable(XMC_DMA_t *const dma, const uint8_t channel)
 738:E:/NOVA/Assets/IFX_P2G-HW-SW_V1.0.4/Firmware_Software/DAVE project/P2G_FW/Libraries/XMCLib/inc\xmc_dma.h **** {
 739:E:/NOVA/Assets/IFX_P2G-HW-SW_V1.0.4/Firmware_Software/DAVE project/P2G_FW/Libraries/XMCLib/inc\xmc_dma.h ****   dma->CHENREG = (uint32_t)(0x101UL << channel);   
 740:E:/NOVA/Assets/IFX_P2G-HW-SW_V1.0.4/Firmware_Software/DAVE project/P2G_FW/Libraries/XMCLib/inc\xmc_dma.h **** }
 741:E:/NOVA/Assets/IFX_P2G-HW-SW_V1.0.4/Firmware_Software/DAVE project/P2G_FW/Libraries/XMCLib/inc\xmc_dma.h **** 
 742:E:/NOVA/Assets/IFX_P2G-HW-SW_V1.0.4/Firmware_Software/DAVE project/P2G_FW/Libraries/XMCLib/inc\xmc_dma.h **** /**
 743:E:/NOVA/Assets/IFX_P2G-HW-SW_V1.0.4/Firmware_Software/DAVE project/P2G_FW/Libraries/XMCLib/inc\xmc_dma.h ****  * @param dma A constant pointer to XMC_DMA_t, pointing to the GPDMA base address
 744:E:/NOVA/Assets/IFX_P2G-HW-SW_V1.0.4/Firmware_Software/DAVE project/P2G_FW/Libraries/XMCLib/inc\xmc_dma.h ****  * @param channel Which DMA channel should be disabled?
 745:E:/NOVA/Assets/IFX_P2G-HW-SW_V1.0.4/Firmware_Software/DAVE project/P2G_FW/Libraries/XMCLib/inc\xmc_dma.h ****  * @return None
 746:E:/NOVA/Assets/IFX_P2G-HW-SW_V1.0.4/Firmware_Software/DAVE project/P2G_FW/Libraries/XMCLib/inc\xmc_dma.h ****  *
 747:E:/NOVA/Assets/IFX_P2G-HW-SW_V1.0.4/Firmware_Software/DAVE project/P2G_FW/Libraries/XMCLib/inc\xmc_dma.h ****  * \par<b>Description: </b><br>
 748:E:/NOVA/Assets/IFX_P2G-HW-SW_V1.0.4/Firmware_Software/DAVE project/P2G_FW/Libraries/XMCLib/inc\xmc_dma.h ****  * Disable a GPDMA channel <br>
 749:E:/NOVA/Assets/IFX_P2G-HW-SW_V1.0.4/Firmware_Software/DAVE project/P2G_FW/Libraries/XMCLib/inc\xmc_dma.h ****  *
 750:E:/NOVA/Assets/IFX_P2G-HW-SW_V1.0.4/Firmware_Software/DAVE project/P2G_FW/Libraries/XMCLib/inc\xmc_dma.h ****  * \par
 751:E:/NOVA/Assets/IFX_P2G-HW-SW_V1.0.4/Firmware_Software/DAVE project/P2G_FW/Libraries/XMCLib/inc\xmc_dma.h ****  * The function resets the GPDMA's CHENREG register to disable a DMA channel.
 752:E:/NOVA/Assets/IFX_P2G-HW-SW_V1.0.4/Firmware_Software/DAVE project/P2G_FW/Libraries/XMCLib/inc\xmc_dma.h ****  */
 753:E:/NOVA/Assets/IFX_P2G-HW-SW_V1.0.4/Firmware_Software/DAVE project/P2G_FW/Libraries/XMCLib/inc\xmc_dma.h **** void XMC_DMA_CH_Disable(XMC_DMA_t *const dma, const uint8_t channel);
 754:E:/NOVA/Assets/IFX_P2G-HW-SW_V1.0.4/Firmware_Software/DAVE project/P2G_FW/Libraries/XMCLib/inc\xmc_dma.h **** 
 755:E:/NOVA/Assets/IFX_P2G-HW-SW_V1.0.4/Firmware_Software/DAVE project/P2G_FW/Libraries/XMCLib/inc\xmc_dma.h **** /**
 756:E:/NOVA/Assets/IFX_P2G-HW-SW_V1.0.4/Firmware_Software/DAVE project/P2G_FW/Libraries/XMCLib/inc\xmc_dma.h ****  * @param dma A constant pointer to XMC_DMA_t, pointing to the GPDMA base address
 757:E:/NOVA/Assets/IFX_P2G-HW-SW_V1.0.4/Firmware_Software/DAVE project/P2G_FW/Libraries/XMCLib/inc\xmc_dma.h ****  * @param channel Which DMA channel should be disabled?
 758:E:/NOVA/Assets/IFX_P2G-HW-SW_V1.0.4/Firmware_Software/DAVE project/P2G_FW/Libraries/XMCLib/inc\xmc_dma.h ****  * @return bool
 759:E:/NOVA/Assets/IFX_P2G-HW-SW_V1.0.4/Firmware_Software/DAVE project/P2G_FW/Libraries/XMCLib/inc\xmc_dma.h ****  *
 760:E:/NOVA/Assets/IFX_P2G-HW-SW_V1.0.4/Firmware_Software/DAVE project/P2G_FW/Libraries/XMCLib/inc\xmc_dma.h ****  * \par<b>Description: </b><br>
 761:E:/NOVA/Assets/IFX_P2G-HW-SW_V1.0.4/Firmware_Software/DAVE project/P2G_FW/Libraries/XMCLib/inc\xmc_dma.h ****  * Check if a GPDMA channel is enabled <br>
 762:E:/NOVA/Assets/IFX_P2G-HW-SW_V1.0.4/Firmware_Software/DAVE project/P2G_FW/Libraries/XMCLib/inc\xmc_dma.h ****  *
 763:E:/NOVA/Assets/IFX_P2G-HW-SW_V1.0.4/Firmware_Software/DAVE project/P2G_FW/Libraries/XMCLib/inc\xmc_dma.h ****  * \par
 764:E:/NOVA/Assets/IFX_P2G-HW-SW_V1.0.4/Firmware_Software/DAVE project/P2G_FW/Libraries/XMCLib/inc\xmc_dma.h ****  * The function reads the GPDMA's CHENREG register to check if a DMA channel is
 765:E:/NOVA/Assets/IFX_P2G-HW-SW_V1.0.4/Firmware_Software/DAVE project/P2G_FW/Libraries/XMCLib/inc\xmc_dma.h ****  * enabled or not. The function returns "true" is the requested channel is enabled,
 766:E:/NOVA/Assets/IFX_P2G-HW-SW_V1.0.4/Firmware_Software/DAVE project/P2G_FW/Libraries/XMCLib/inc\xmc_dma.h ****  * "false" otherwise.
 767:E:/NOVA/Assets/IFX_P2G-HW-SW_V1.0.4/Firmware_Software/DAVE project/P2G_FW/Libraries/XMCLib/inc\xmc_dma.h ****  */
 768:E:/NOVA/Assets/IFX_P2G-HW-SW_V1.0.4/Firmware_Software/DAVE project/P2G_FW/Libraries/XMCLib/inc\xmc_dma.h **** bool XMC_DMA_CH_IsEnabled(XMC_DMA_t *const dma, const uint8_t channel);
 769:E:/NOVA/Assets/IFX_P2G-HW-SW_V1.0.4/Firmware_Software/DAVE project/P2G_FW/Libraries/XMCLib/inc\xmc_dma.h **** 
 770:E:/NOVA/Assets/IFX_P2G-HW-SW_V1.0.4/Firmware_Software/DAVE project/P2G_FW/Libraries/XMCLib/inc\xmc_dma.h **** /**
 771:E:/NOVA/Assets/IFX_P2G-HW-SW_V1.0.4/Firmware_Software/DAVE project/P2G_FW/Libraries/XMCLib/inc\xmc_dma.h ****  * @param dma A constant pointer to XMC_DMA_t, pointing to the GPDMA base address
 772:E:/NOVA/Assets/IFX_P2G-HW-SW_V1.0.4/Firmware_Software/DAVE project/P2G_FW/Libraries/XMCLib/inc\xmc_dma.h ****  * @param channel Which DMA channel should suspend transfer?
 773:E:/NOVA/Assets/IFX_P2G-HW-SW_V1.0.4/Firmware_Software/DAVE project/P2G_FW/Libraries/XMCLib/inc\xmc_dma.h ****  * @return None
 774:E:/NOVA/Assets/IFX_P2G-HW-SW_V1.0.4/Firmware_Software/DAVE project/P2G_FW/Libraries/XMCLib/inc\xmc_dma.h ****  *
 775:E:/NOVA/Assets/IFX_P2G-HW-SW_V1.0.4/Firmware_Software/DAVE project/P2G_FW/Libraries/XMCLib/inc\xmc_dma.h ****  * \par<b>Description: </b><br>
 776:E:/NOVA/Assets/IFX_P2G-HW-SW_V1.0.4/Firmware_Software/DAVE project/P2G_FW/Libraries/XMCLib/inc\xmc_dma.h ****  * Suspend a GPDMA channel transfer <br>
 777:E:/NOVA/Assets/IFX_P2G-HW-SW_V1.0.4/Firmware_Software/DAVE project/P2G_FW/Libraries/XMCLib/inc\xmc_dma.h ****  *
 778:E:/NOVA/Assets/IFX_P2G-HW-SW_V1.0.4/Firmware_Software/DAVE project/P2G_FW/Libraries/XMCLib/inc\xmc_dma.h ****  * \par
 779:E:/NOVA/Assets/IFX_P2G-HW-SW_V1.0.4/Firmware_Software/DAVE project/P2G_FW/Libraries/XMCLib/inc\xmc_dma.h ****  * The function sets the CH_SUSP bit of the GPDMA's GFGL register to initiate a
 780:E:/NOVA/Assets/IFX_P2G-HW-SW_V1.0.4/Firmware_Software/DAVE project/P2G_FW/Libraries/XMCLib/inc\xmc_dma.h ****  * DMA transfer suspend. The function may be called after enabling the DMA channel.
 781:E:/NOVA/Assets/IFX_P2G-HW-SW_V1.0.4/Firmware_Software/DAVE project/P2G_FW/Libraries/XMCLib/inc\xmc_dma.h ****  * Please see ::XMC_DMA_CH_Enable() for more information.
 782:E:/NOVA/Assets/IFX_P2G-HW-SW_V1.0.4/Firmware_Software/DAVE project/P2G_FW/Libraries/XMCLib/inc\xmc_dma.h ****  *
 783:E:/NOVA/Assets/IFX_P2G-HW-SW_V1.0.4/Firmware_Software/DAVE project/P2G_FW/Libraries/XMCLib/inc\xmc_dma.h ****  * \par<b>Related API: </b><br>
 784:E:/NOVA/Assets/IFX_P2G-HW-SW_V1.0.4/Firmware_Software/DAVE project/P2G_FW/Libraries/XMCLib/inc\xmc_dma.h ****  * ::XMC_DMA_CH_Resume() <br>
 785:E:/NOVA/Assets/IFX_P2G-HW-SW_V1.0.4/Firmware_Software/DAVE project/P2G_FW/Libraries/XMCLib/inc\xmc_dma.h ****  */
 786:E:/NOVA/Assets/IFX_P2G-HW-SW_V1.0.4/Firmware_Software/DAVE project/P2G_FW/Libraries/XMCLib/inc\xmc_dma.h **** void XMC_DMA_CH_Suspend(XMC_DMA_t *const dma, const uint8_t channel);
 787:E:/NOVA/Assets/IFX_P2G-HW-SW_V1.0.4/Firmware_Software/DAVE project/P2G_FW/Libraries/XMCLib/inc\xmc_dma.h **** 
 788:E:/NOVA/Assets/IFX_P2G-HW-SW_V1.0.4/Firmware_Software/DAVE project/P2G_FW/Libraries/XMCLib/inc\xmc_dma.h **** /**
 789:E:/NOVA/Assets/IFX_P2G-HW-SW_V1.0.4/Firmware_Software/DAVE project/P2G_FW/Libraries/XMCLib/inc\xmc_dma.h ****  * @param dma A constant pointer to XMC_DMA_t, pointing to the GPDMA base address
 790:E:/NOVA/Assets/IFX_P2G-HW-SW_V1.0.4/Firmware_Software/DAVE project/P2G_FW/Libraries/XMCLib/inc\xmc_dma.h ****  * @param channel Which DMA channel should resume transfer?
 791:E:/NOVA/Assets/IFX_P2G-HW-SW_V1.0.4/Firmware_Software/DAVE project/P2G_FW/Libraries/XMCLib/inc\xmc_dma.h ****  * @return None
 792:E:/NOVA/Assets/IFX_P2G-HW-SW_V1.0.4/Firmware_Software/DAVE project/P2G_FW/Libraries/XMCLib/inc\xmc_dma.h ****  *
 793:E:/NOVA/Assets/IFX_P2G-HW-SW_V1.0.4/Firmware_Software/DAVE project/P2G_FW/Libraries/XMCLib/inc\xmc_dma.h ****  * \par<b>Description: </b><br>
 794:E:/NOVA/Assets/IFX_P2G-HW-SW_V1.0.4/Firmware_Software/DAVE project/P2G_FW/Libraries/XMCLib/inc\xmc_dma.h ****  * Resume a GPDMA channel <br>
 795:E:/NOVA/Assets/IFX_P2G-HW-SW_V1.0.4/Firmware_Software/DAVE project/P2G_FW/Libraries/XMCLib/inc\xmc_dma.h ****  *
 796:E:/NOVA/Assets/IFX_P2G-HW-SW_V1.0.4/Firmware_Software/DAVE project/P2G_FW/Libraries/XMCLib/inc\xmc_dma.h ****  * \par
 797:E:/NOVA/Assets/IFX_P2G-HW-SW_V1.0.4/Firmware_Software/DAVE project/P2G_FW/Libraries/XMCLib/inc\xmc_dma.h ****  * The function clears the CH_SUSP bit of the GPDMA's GFGL register to resume a
 798:E:/NOVA/Assets/IFX_P2G-HW-SW_V1.0.4/Firmware_Software/DAVE project/P2G_FW/Libraries/XMCLib/inc\xmc_dma.h ****  * DMA transfer. The function may be called after enabling the DMA channel. Please
 799:E:/NOVA/Assets/IFX_P2G-HW-SW_V1.0.4/Firmware_Software/DAVE project/P2G_FW/Libraries/XMCLib/inc\xmc_dma.h ****  * see ::XMC_DMA_CH_Enable() for more information.
 800:E:/NOVA/Assets/IFX_P2G-HW-SW_V1.0.4/Firmware_Software/DAVE project/P2G_FW/Libraries/XMCLib/inc\xmc_dma.h ****  *
 801:E:/NOVA/Assets/IFX_P2G-HW-SW_V1.0.4/Firmware_Software/DAVE project/P2G_FW/Libraries/XMCLib/inc\xmc_dma.h ****  * \par<b>Related API: </b><br>
 802:E:/NOVA/Assets/IFX_P2G-HW-SW_V1.0.4/Firmware_Software/DAVE project/P2G_FW/Libraries/XMCLib/inc\xmc_dma.h ****  * ::XMC_DMA_CH_Suspend() <br>
 803:E:/NOVA/Assets/IFX_P2G-HW-SW_V1.0.4/Firmware_Software/DAVE project/P2G_FW/Libraries/XMCLib/inc\xmc_dma.h ****  */
 804:E:/NOVA/Assets/IFX_P2G-HW-SW_V1.0.4/Firmware_Software/DAVE project/P2G_FW/Libraries/XMCLib/inc\xmc_dma.h **** void XMC_DMA_CH_Resume(XMC_DMA_t *const dma, const uint8_t channel);
 805:E:/NOVA/Assets/IFX_P2G-HW-SW_V1.0.4/Firmware_Software/DAVE project/P2G_FW/Libraries/XMCLib/inc\xmc_dma.h **** 
 806:E:/NOVA/Assets/IFX_P2G-HW-SW_V1.0.4/Firmware_Software/DAVE project/P2G_FW/Libraries/XMCLib/inc\xmc_dma.h **** /**
 807:E:/NOVA/Assets/IFX_P2G-HW-SW_V1.0.4/Firmware_Software/DAVE project/P2G_FW/Libraries/XMCLib/inc\xmc_dma.h ****  * @param dma A constant pointer to XMC_DMA_t, pointing to the GPDMA base address
 808:E:/NOVA/Assets/IFX_P2G-HW-SW_V1.0.4/Firmware_Software/DAVE project/P2G_FW/Libraries/XMCLib/inc\xmc_dma.h ****  * @param channel A DMA channel
 809:E:/NOVA/Assets/IFX_P2G-HW-SW_V1.0.4/Firmware_Software/DAVE project/P2G_FW/Libraries/XMCLib/inc\xmc_dma.h ****  * @param addr source address
 810:E:/NOVA/Assets/IFX_P2G-HW-SW_V1.0.4/Firmware_Software/DAVE project/P2G_FW/Libraries/XMCLib/inc\xmc_dma.h ****  * @return None
 811:E:/NOVA/Assets/IFX_P2G-HW-SW_V1.0.4/Firmware_Software/DAVE project/P2G_FW/Libraries/XMCLib/inc\xmc_dma.h ****  *
 812:E:/NOVA/Assets/IFX_P2G-HW-SW_V1.0.4/Firmware_Software/DAVE project/P2G_FW/Libraries/XMCLib/inc\xmc_dma.h ****  * \par<b>Description: </b><br>
 813:E:/NOVA/Assets/IFX_P2G-HW-SW_V1.0.4/Firmware_Software/DAVE project/P2G_FW/Libraries/XMCLib/inc\xmc_dma.h ****  * This function sets the source address of the specified channel <br>
 814:E:/NOVA/Assets/IFX_P2G-HW-SW_V1.0.4/Firmware_Software/DAVE project/P2G_FW/Libraries/XMCLib/inc\xmc_dma.h ****  *
 815:E:/NOVA/Assets/IFX_P2G-HW-SW_V1.0.4/Firmware_Software/DAVE project/P2G_FW/Libraries/XMCLib/inc\xmc_dma.h ****  * \par
 816:E:/NOVA/Assets/IFX_P2G-HW-SW_V1.0.4/Firmware_Software/DAVE project/P2G_FW/Libraries/XMCLib/inc\xmc_dma.h ****  * The function may be called after enabling the DMA channel. Please
 817:E:/NOVA/Assets/IFX_P2G-HW-SW_V1.0.4/Firmware_Software/DAVE project/P2G_FW/Libraries/XMCLib/inc\xmc_dma.h ****  * see ::XMC_DMA_CH_Enable() for more information.
 818:E:/NOVA/Assets/IFX_P2G-HW-SW_V1.0.4/Firmware_Software/DAVE project/P2G_FW/Libraries/XMCLib/inc\xmc_dma.h ****  *
 819:E:/NOVA/Assets/IFX_P2G-HW-SW_V1.0.4/Firmware_Software/DAVE project/P2G_FW/Libraries/XMCLib/inc\xmc_dma.h ****  * \par<b>Related API: </b><br>
 820:E:/NOVA/Assets/IFX_P2G-HW-SW_V1.0.4/Firmware_Software/DAVE project/P2G_FW/Libraries/XMCLib/inc\xmc_dma.h ****  * ::XMC_DMA_CH_SetDestinationAddress() <br>
 821:E:/NOVA/Assets/IFX_P2G-HW-SW_V1.0.4/Firmware_Software/DAVE project/P2G_FW/Libraries/XMCLib/inc\xmc_dma.h ****  */
 822:E:/NOVA/Assets/IFX_P2G-HW-SW_V1.0.4/Firmware_Software/DAVE project/P2G_FW/Libraries/XMCLib/inc\xmc_dma.h **** __STATIC_INLINE void XMC_DMA_CH_SetSourceAddress(XMC_DMA_t *const dma, const uint8_t channel, uint3
 823:E:/NOVA/Assets/IFX_P2G-HW-SW_V1.0.4/Firmware_Software/DAVE project/P2G_FW/Libraries/XMCLib/inc\xmc_dma.h **** {
 824:E:/NOVA/Assets/IFX_P2G-HW-SW_V1.0.4/Firmware_Software/DAVE project/P2G_FW/Libraries/XMCLib/inc\xmc_dma.h ****   dma->CH[channel].SAR = addr;
  56              	 .loc 2 824 0
  57 000a 3A7B     	 ldrb r2,[r7,#12]
  58              	.LBE171:
  59              	.LBE170:
  60              	 .loc 1 496 0
  61 000c 0868     	 ldr r0,[r1]
  62              	.LVL0:
 490:../BSP/Position2Go/src/position2go_bsp.c ****   pDMA_src_Q1 = (uint32_t*)&ADC_MEASUREMENT_ADV_G1_IF1_I_RES;
  63              	 .loc 1 490 0
  64 000e A349     	 ldr r1,.L34+8
  65 0010 1960     	 str r1,[r3]
  66              	.LBB174:
  67              	.LBB172:
  68              	 .loc 2 824 0
  69 0012 5823     	 movs r3,#88
  70 0014 03FB02F2 	 mul r2,r3,r2
  71              	.LBE172:
  72              	.LBE174:
 491:../BSP/Position2Go/src/position2go_bsp.c ****   pDMA_src_I2 = (uint32_t*)&ADC_MEASUREMENT_ADV_G4_IF2_Q_RES;
  73              	 .loc 1 491 0
  74 0018 A14E     	 ldr r6,.L34+12
 492:../BSP/Position2Go/src/position2go_bsp.c ****   pDMA_src_Q2 = (uint32_t*)&ADC_MEASUREMENT_ADV_G3_IF2_I_RES;
  75              	 .loc 1 492 0
  76 001a A24D     	 ldr r5,.L34+16
 493:../BSP/Position2Go/src/position2go_bsp.c ****   
  77              	 .loc 1 493 0
  78 001c A24C     	 ldr r4,.L34+20
 492:../BSP/Position2Go/src/position2go_bsp.c ****   pDMA_src_Q2 = (uint32_t*)&ADC_MEASUREMENT_ADV_G3_IF2_I_RES;
  79              	 .loc 1 492 0
  80 001e DFF8A8C2 	 ldr ip,.L34+52
 493:../BSP/Position2Go/src/position2go_bsp.c ****   
  81              	 .loc 1 493 0
  82 0022 DFF8A8E2 	 ldr lr,.L34+56
 491:../BSP/Position2Go/src/position2go_bsp.c ****   pDMA_src_I2 = (uint32_t*)&ADC_MEASUREMENT_ADV_G4_IF2_Q_RES;
  83              	 .loc 1 491 0
  84 0026 DFF8A882 	 ldr r8,.L34+60
 492:../BSP/Position2Go/src/position2go_bsp.c ****   pDMA_src_Q2 = (uint32_t*)&ADC_MEASUREMENT_ADV_G3_IF2_I_RES;
  85              	 .loc 1 492 0
  86 002a C5F800C0 	 str ip,[r5]
 493:../BSP/Position2Go/src/position2go_bsp.c ****   
  87              	 .loc 1 493 0
  88 002e C4F800E0 	 str lr,[r4]
 491:../BSP/Position2Go/src/position2go_bsp.c ****   pDMA_src_I2 = (uint32_t*)&ADC_MEASUREMENT_ADV_G4_IF2_Q_RES;
  89              	 .loc 1 491 0
  90 0032 C6F80080 	 str r8,[r6]
  91              	.LBB175:
  92              	.LBB173:
  93              	 .loc 2 824 0
  94 0036 8150     	 str r1,[r0,r2]
  95              	.LVL1:
  96              	.LBE173:
  97              	.LBE175:
 497:../BSP/Position2Go/src/position2go_bsp.c ****   XMC_DMA_CH_SetSourceAddress(DMA_CH_Q1.dma_global->dma, DMA_CH_Q1.ch_num, (uint32_t)pDMA_src_Q1);
  98              	 .loc 1 497 0
  99 0038 9C4E     	 ldr r6,.L34+24
 498:../BSP/Position2Go/src/position2go_bsp.c ****   XMC_DMA_CH_SetSourceAddress(DMA_CH_I2.dma_global->dma, DMA_CH_I2.ch_num, (uint32_t)pDMA_src_I2);
 100              	 .loc 1 498 0
 101 003a 9D4D     	 ldr r5,.L34+28
 497:../BSP/Position2Go/src/position2go_bsp.c ****   XMC_DMA_CH_SetSourceAddress(DMA_CH_Q1.dma_global->dma, DMA_CH_Q1.ch_num, (uint32_t)pDMA_src_Q1);
 102              	 .loc 1 497 0
 103 003c 3168     	 ldr r1,[r6]
 104              	.LBB176:
 105              	.LBB177:
 106              	 .loc 2 824 0
 107 003e 327B     	 ldrb r2,[r6,#12]
 108              	.LBE177:
 109              	.LBE176:
 499:../BSP/Position2Go/src/position2go_bsp.c ****   XMC_DMA_CH_SetSourceAddress(DMA_CH_Q2.dma_global->dma, DMA_CH_Q2.ch_num, (uint32_t)pDMA_src_Q2);
 110              	 .loc 1 499 0
 111 0040 9C4C     	 ldr r4,.L34+32
 497:../BSP/Position2Go/src/position2go_bsp.c ****   XMC_DMA_CH_SetSourceAddress(DMA_CH_Q1.dma_global->dma, DMA_CH_Q1.ch_num, (uint32_t)pDMA_src_Q1);
 112              	 .loc 1 497 0
 113 0042 D1F80090 	 ldr r9,[r1]
 114              	.LVL2:
 498:../BSP/Position2Go/src/position2go_bsp.c ****   XMC_DMA_CH_SetSourceAddress(DMA_CH_I2.dma_global->dma, DMA_CH_I2.ch_num, (uint32_t)pDMA_src_I2);
 115              	 .loc 1 498 0
 116 0046 2868     	 ldr r0,[r5]
 117              	.LVL3:
 118              	 .loc 1 499 0
 119 0048 2168     	 ldr r1,[r4]
 498:../BSP/Position2Go/src/position2go_bsp.c ****   XMC_DMA_CH_SetSourceAddress(DMA_CH_I2.dma_global->dma, DMA_CH_I2.ch_num, (uint32_t)pDMA_src_I2);
 120              	 .loc 1 498 0
 121 004a 0068     	 ldr r0,[r0]
 122              	.LVL4:
 123              	 .loc 1 499 0
 124 004c 0968     	 ldr r1,[r1]
 125              	.LVL5:
 126              	.LBE169:
 127              	.LBE168:
 191:../BSP/Position2Go/src/position2go_bsp.c ****   bsp_cb.bsp_acq_done_cb = NULL;
 128              	 .loc 1 191 0
 129 004e DFF884A2 	 ldr r10,.L34+64
 130              	.LBB194:
 131              	.LBB190:
 132              	.LBB180:
 133              	.LBB178:
 134              	 .loc 2 824 0
 135 0052 03FB02F2 	 mul r2,r3,r2
 136              	.LBE178:
 137              	.LBE180:
 138              	.LBE190:
 139              	.LBE194:
 191:../BSP/Position2Go/src/position2go_bsp.c ****   bsp_cb.bsp_acq_done_cb = NULL;
 140              	 .loc 1 191 0
 141 0056 4FF0000B 	 mov fp,#0
 142              	.LBB195:
 143              	.LBB191:
 144              	.LBB181:
 145              	.LBB179:
 146              	 .loc 2 824 0
 147 005a 49F80280 	 str r8,[r9,r2]
 148              	.LVL6:
 149              	.LBE179:
 150              	.LBE181:
 151              	.LBB182:
 152              	.LBB183:
 153 005e 2A7B     	 ldrb r2,[r5,#12]
 154              	.LBE183:
 155              	.LBE182:
 156              	.LBE191:
 157              	.LBE195:
 191:../BSP/Position2Go/src/position2go_bsp.c ****   bsp_cb.bsp_acq_done_cb = NULL;
 158              	 .loc 1 191 0
 159 0060 CAF800B0 	 str fp,[r10]
 160              	.LBB196:
 161              	.LBB192:
 162              	.LBB186:
 163              	.LBB184:
 164              	 .loc 2 824 0
 165 0064 03FB02F2 	 mul r2,r3,r2
 166              	.LBE184:
 167              	.LBE186:
 168              	.LBE192:
 169              	.LBE196:
 192:../BSP/Position2Go/src/position2go_bsp.c ****   
 170              	 .loc 1 192 0
 171 0068 CAF804B0 	 str fp,[r10,#4]
 172              	.LBB197:
 173              	.LBB193:
 174              	.LBB187:
 175              	.LBB185:
 176              	 .loc 2 824 0
 177 006c 40F802C0 	 str ip,[r0,r2]
 178              	.LBE185:
 179              	.LBE187:
 180              	.LBB188:
 181              	.LBB189:
 182 0070 227B     	 ldrb r2,[r4,#12]
 183 0072 03FB02F3 	 mul r3,r3,r2
 184 0076 41F803E0 	 str lr,[r1,r3]
 185              	.LBE189:
 186              	.LBE188:
 187              	.LBE193:
 188              	.LBE197:
 202:../BSP/Position2Go/src/position2go_bsp.c ****   bsp_time_delay_usec(1000U);
 189              	 .loc 1 202 0
 190 007a FFF7FEFF 	 bl bgt_ldo_enable
 191              	.LVL7:
 192              	.LBB198:
 193              	.LBB199:
 469:../BSP/Position2Go/src/position2go_bsp.c ****   
 194              	 .loc 1 469 0
 195 007e 8E48     	 ldr r0,.L34+36
 196 0080 FFF7FEFF 	 bl TIMER_ClearEvent
 197              	.LVL8:
 474:../BSP/Position2Go/src/position2go_bsp.c ****   
 198              	 .loc 1 474 0
 199 0084 8C48     	 ldr r0,.L34+36
 200 0086 8D49     	 ldr r1,.L34+40
 201 0088 FFF7FEFF 	 bl TIMER_SetTimeInterval
 202              	.LVL9:
 203              	.LBB200:
 204              	.LBB201:
 458:../BSP/Position2Go/src/position2go_bsp.c ****   
 205              	 .loc 1 458 0
 206 008c 8A48     	 ldr r0,.L34+36
 207 008e FFF7FEFF 	 bl TIMER_Start
 208              	.LVL10:
 209              	.L2:
 210              	.LBE201:
 211              	.LBE200:
 478:../BSP/Position2Go/src/position2go_bsp.c ****   
 212              	 .loc 1 478 0
 213 0092 8948     	 ldr r0,.L34+36
 214 0094 FFF7FEFF 	 bl TIMER_GetInterruptStatus
 215              	.LVL11:
 216 0098 0028     	 cmp r0,#0
 217 009a FAD0     	 beq .L2
 480:../BSP/Position2Go/src/position2go_bsp.c ****   
 218              	 .loc 1 480 0
 219 009c 8648     	 ldr r0,.L34+36
 220 009e FFF7FEFF 	 bl TIMER_Stop
 221              	.LVL12:
 482:../BSP/Position2Go/src/position2go_bsp.c **** }
 222              	 .loc 1 482 0
 223 00a2 8548     	 ldr r0,.L34+36
 224 00a4 FFF7FEFF 	 bl TIMER_Clear
 225              	.LVL13:
 226              	.LBE199:
 227              	.LBE198:
 206:../BSP/Position2Go/src/position2go_bsp.c ****   bsp_time_delay_usec(1000U);
 228              	 .loc 1 206 0
 229 00a8 FFF7FEFF 	 bl pga_ldo_enable
 230              	.LVL14:
 231              	.LBB202:
 232              	.LBB203:
 469:../BSP/Position2Go/src/position2go_bsp.c ****   
 233              	 .loc 1 469 0
 234 00ac 8248     	 ldr r0,.L34+36
 235 00ae FFF7FEFF 	 bl TIMER_ClearEvent
 236              	.LVL15:
 474:../BSP/Position2Go/src/position2go_bsp.c ****   
 237              	 .loc 1 474 0
 238 00b2 8148     	 ldr r0,.L34+36
 239 00b4 8149     	 ldr r1,.L34+40
 240 00b6 FFF7FEFF 	 bl TIMER_SetTimeInterval
 241              	.LVL16:
 242              	.LBB204:
 243              	.LBB205:
 458:../BSP/Position2Go/src/position2go_bsp.c ****   
 244              	 .loc 1 458 0
 245 00ba 7F48     	 ldr r0,.L34+36
 246 00bc FFF7FEFF 	 bl TIMER_Start
 247              	.LVL17:
 248              	.L3:
 249              	.LBE205:
 250              	.LBE204:
 478:../BSP/Position2Go/src/position2go_bsp.c ****   
 251              	 .loc 1 478 0
 252 00c0 7D48     	 ldr r0,.L34+36
 253 00c2 FFF7FEFF 	 bl TIMER_GetInterruptStatus
 254              	.LVL18:
 255 00c6 0028     	 cmp r0,#0
 256 00c8 FAD0     	 beq .L3
 480:../BSP/Position2Go/src/position2go_bsp.c ****   
 257              	 .loc 1 480 0
 258 00ca 7B48     	 ldr r0,.L34+36
 259 00cc FFF7FEFF 	 bl TIMER_Stop
 260              	.LVL19:
 482:../BSP/Position2Go/src/position2go_bsp.c **** }
 261              	 .loc 1 482 0
 262 00d0 7948     	 ldr r0,.L34+36
 263 00d2 FFF7FEFF 	 bl TIMER_Clear
 264              	.LVL20:
 265              	.LBE203:
 266              	.LBE202:
 210:../BSP/Position2Go/src/position2go_bsp.c ****   bsp_time_delay_usec(100U); /* Delay for BGT power-up */
 267              	 .loc 1 210 0
 268 00d6 FFF7FEFF 	 bl bgt_power_up
 269              	.LVL21:
 270              	.LBB206:
 271              	.LBB207:
 469:../BSP/Position2Go/src/position2go_bsp.c ****   
 272              	 .loc 1 469 0
 273 00da 7748     	 ldr r0,.L34+36
 274 00dc FFF7FEFF 	 bl TIMER_ClearEvent
 275              	.LVL22:
 474:../BSP/Position2Go/src/position2go_bsp.c ****   
 276              	 .loc 1 474 0
 277 00e0 7548     	 ldr r0,.L34+36
 278 00e2 42F21071 	 movw r1,#10000
 279 00e6 FFF7FEFF 	 bl TIMER_SetTimeInterval
 280              	.LVL23:
 281              	.LBB208:
 282              	.LBB209:
 458:../BSP/Position2Go/src/position2go_bsp.c ****   
 283              	 .loc 1 458 0
 284 00ea 7348     	 ldr r0,.L34+36
 285 00ec FFF7FEFF 	 bl TIMER_Start
 286              	.LVL24:
 287              	.L4:
 288              	.LBE209:
 289              	.LBE208:
 478:../BSP/Position2Go/src/position2go_bsp.c ****   
 290              	 .loc 1 478 0
 291 00f0 7148     	 ldr r0,.L34+36
 292 00f2 FFF7FEFF 	 bl TIMER_GetInterruptStatus
 293              	.LVL25:
 294 00f6 0028     	 cmp r0,#0
 295 00f8 FAD0     	 beq .L4
 480:../BSP/Position2Go/src/position2go_bsp.c ****   
 296              	 .loc 1 480 0
 297 00fa 6F48     	 ldr r0,.L34+36
 298 00fc FFF7FEFF 	 bl TIMER_Stop
 299              	.LVL26:
 482:../BSP/Position2Go/src/position2go_bsp.c **** }
 300              	 .loc 1 482 0
 301 0100 6D48     	 ldr r0,.L34+36
 302 0102 FFF7FEFF 	 bl TIMER_Clear
 303              	.LVL27:
 304              	.LBE207:
 305              	.LBE206:
 213:../BSP/Position2Go/src/position2go_bsp.c ****   bsp_time_delay_usec(50U); /* Delay for BGT Power down SPI settings */
 306              	 .loc 1 213 0
 307 0106 FFF7FEFF 	 bl bgt_lowest_power_with_q2_disable
 308              	.LVL28:
 309              	.LBB210:
 310              	.LBB211:
 469:../BSP/Position2Go/src/position2go_bsp.c ****   
 311              	 .loc 1 469 0
 312 010a 6B48     	 ldr r0,.L34+36
 313 010c FFF7FEFF 	 bl TIMER_ClearEvent
 314              	.LVL29:
 474:../BSP/Position2Go/src/position2go_bsp.c ****   
 315              	 .loc 1 474 0
 316 0110 6948     	 ldr r0,.L34+36
 317 0112 41F28831 	 movw r1,#5000
 318 0116 FFF7FEFF 	 bl TIMER_SetTimeInterval
 319              	.LVL30:
 320              	.LBB212:
 321              	.LBB213:
 458:../BSP/Position2Go/src/position2go_bsp.c ****   
 322              	 .loc 1 458 0
 323 011a 6748     	 ldr r0,.L34+36
 324 011c FFF7FEFF 	 bl TIMER_Start
 325              	.LVL31:
 326              	.L5:
 327              	.LBE213:
 328              	.LBE212:
 478:../BSP/Position2Go/src/position2go_bsp.c ****   
 329              	 .loc 1 478 0
 330 0120 6548     	 ldr r0,.L34+36
 331 0122 FFF7FEFF 	 bl TIMER_GetInterruptStatus
 332              	.LVL32:
 333 0126 0028     	 cmp r0,#0
 334 0128 FAD0     	 beq .L5
 480:../BSP/Position2Go/src/position2go_bsp.c ****   
 335              	 .loc 1 480 0
 336 012a 6348     	 ldr r0,.L34+36
 337 012c FFF7FEFF 	 bl TIMER_Stop
 338              	.LVL33:
 482:../BSP/Position2Go/src/position2go_bsp.c **** }
 339              	 .loc 1 482 0
 340 0130 6148     	 ldr r0,.L34+36
 341 0132 FFF7FEFF 	 bl TIMER_Clear
 342              	.LVL34:
 343              	.LBE211:
 344              	.LBE210:
 217:../BSP/Position2Go/src/position2go_bsp.c ****   bsp_time_delay_usec(100U); /* Delay for PLL power-up */
 345              	 .loc 1 217 0
 346 0136 FFF7FEFF 	 bl pll_power_up
 347              	.LVL35:
 348              	.LBB214:
 349              	.LBB215:
 469:../BSP/Position2Go/src/position2go_bsp.c ****   
 350              	 .loc 1 469 0
 351 013a 5F48     	 ldr r0,.L34+36
 352 013c FFF7FEFF 	 bl TIMER_ClearEvent
 353              	.LVL36:
 474:../BSP/Position2Go/src/position2go_bsp.c ****   
 354              	 .loc 1 474 0
 355 0140 5D48     	 ldr r0,.L34+36
 356 0142 42F21071 	 movw r1,#10000
 357 0146 FFF7FEFF 	 bl TIMER_SetTimeInterval
 358              	.LVL37:
 359              	.LBB216:
 360              	.LBB217:
 458:../BSP/Position2Go/src/position2go_bsp.c ****   
 361              	 .loc 1 458 0
 362 014a 5B48     	 ldr r0,.L34+36
 363 014c FFF7FEFF 	 bl TIMER_Start
 364              	.LVL38:
 365              	.L6:
 366              	.LBE217:
 367              	.LBE216:
 478:../BSP/Position2Go/src/position2go_bsp.c ****   
 368              	 .loc 1 478 0
 369 0150 5948     	 ldr r0,.L34+36
 370 0152 FFF7FEFF 	 bl TIMER_GetInterruptStatus
 371              	.LVL39:
 372 0156 0028     	 cmp r0,#0
 373 0158 FAD0     	 beq .L6
 480:../BSP/Position2Go/src/position2go_bsp.c ****   
 374              	 .loc 1 480 0
 375 015a 5748     	 ldr r0,.L34+36
 376              	.LBE215:
 377              	.LBE214:
 224:../BSP/Position2Go/src/position2go_bsp.c ****   bsp_time_delay_usec(100U);
 378              	 .loc 1 224 0
 379 015c DFF87881 	 ldr r8,.L34+68
 380              	.LBB219:
 381              	.LBB218:
 480:../BSP/Position2Go/src/position2go_bsp.c ****   
 382              	 .loc 1 480 0
 383 0160 FFF7FEFF 	 bl TIMER_Stop
 384              	.LVL40:
 482:../BSP/Position2Go/src/position2go_bsp.c **** }
 385              	 .loc 1 482 0
 386 0164 5448     	 ldr r0,.L34+36
 387 0166 FFF7FEFF 	 bl TIMER_Clear
 388              	.LVL41:
 389              	.LBE218:
 390              	.LBE219:
 221:../BSP/Position2Go/src/position2go_bsp.c ****   
 391              	 .loc 1 221 0
 392 016a 0721     	 movs r1,#7
 393 016c 0120     	 movs r0,#1
 394 016e FFF7FEFF 	 bl bgt_init
 395              	.LVL42:
 224:../BSP/Position2Go/src/position2go_bsp.c ****   bsp_time_delay_usec(100U);
 396              	 .loc 1 224 0
 397 0172 D8F80000 	 ldr r0,[r8]
 398 0176 FFF7FEFF 	 bl pll_init
 399              	.LVL43:
 400              	.LBB220:
 401              	.LBB221:
 469:../BSP/Position2Go/src/position2go_bsp.c ****   
 402              	 .loc 1 469 0
 403 017a 4F48     	 ldr r0,.L34+36
 404 017c FFF7FEFF 	 bl TIMER_ClearEvent
 405              	.LVL44:
 474:../BSP/Position2Go/src/position2go_bsp.c ****   
 406              	 .loc 1 474 0
 407 0180 4D48     	 ldr r0,.L34+36
 408 0182 42F21071 	 movw r1,#10000
 409 0186 FFF7FEFF 	 bl TIMER_SetTimeInterval
 410              	.LVL45:
 411              	.LBB222:
 412              	.LBB223:
 458:../BSP/Position2Go/src/position2go_bsp.c ****   
 413              	 .loc 1 458 0
 414 018a 4B48     	 ldr r0,.L34+36
 415 018c FFF7FEFF 	 bl TIMER_Start
 416              	.LVL46:
 417              	.L7:
 418              	.LBE223:
 419              	.LBE222:
 478:../BSP/Position2Go/src/position2go_bsp.c ****   
 420              	 .loc 1 478 0
 421 0190 4948     	 ldr r0,.L34+36
 422 0192 FFF7FEFF 	 bl TIMER_GetInterruptStatus
 423              	.LVL47:
 424 0196 0028     	 cmp r0,#0
 425 0198 FAD0     	 beq .L7
 480:../BSP/Position2Go/src/position2go_bsp.c ****   
 426              	 .loc 1 480 0
 427 019a 4748     	 ldr r0,.L34+36
 428 019c FFF7FEFF 	 bl TIMER_Stop
 429              	.LVL48:
 482:../BSP/Position2Go/src/position2go_bsp.c **** }
 430              	 .loc 1 482 0
 431 01a0 4548     	 ldr r0,.L34+36
 432 01a2 FFF7FEFF 	 bl TIMER_Clear
 433              	.LVL49:
 434              	.LBE221:
 435              	.LBE220:
 232:../BSP/Position2Go/src/position2go_bsp.c **** #endif
 436              	 .loc 1 232 0
 437 01a6 0121     	 movs r1,#1
 438 01a8 D8F80000 	 ldr r0,[r8]
 439 01ac FFF7FEFF 	 bl pll_update_configuration
 440              	.LVL50:
 441              	.LBB224:
 442              	.LBB225:
 469:../BSP/Position2Go/src/position2go_bsp.c ****   
 443              	 .loc 1 469 0
 444 01b0 4148     	 ldr r0,.L34+36
 445 01b2 FFF7FEFF 	 bl TIMER_ClearEvent
 446              	.LVL51:
 474:../BSP/Position2Go/src/position2go_bsp.c ****   
 447              	 .loc 1 474 0
 448 01b6 4048     	 ldr r0,.L34+36
 449 01b8 42F21071 	 movw r1,#10000
 450 01bc FFF7FEFF 	 bl TIMER_SetTimeInterval
 451              	.LVL52:
 452              	.LBB226:
 453              	.LBB227:
 458:../BSP/Position2Go/src/position2go_bsp.c ****   
 454              	 .loc 1 458 0
 455 01c0 3D48     	 ldr r0,.L34+36
 456 01c2 FFF7FEFF 	 bl TIMER_Start
 457              	.LVL53:
 458              	.L8:
 459              	.LBE227:
 460              	.LBE226:
 478:../BSP/Position2Go/src/position2go_bsp.c ****   
 461              	 .loc 1 478 0
 462 01c6 3C48     	 ldr r0,.L34+36
 463 01c8 FFF7FEFF 	 bl TIMER_GetInterruptStatus
 464              	.LVL54:
 465 01cc 0028     	 cmp r0,#0
 466 01ce FAD0     	 beq .L8
 480:../BSP/Position2Go/src/position2go_bsp.c ****   
 467              	 .loc 1 480 0
 468 01d0 3948     	 ldr r0,.L34+36
 469 01d2 FFF7FEFF 	 bl TIMER_Stop
 470              	.LVL55:
 482:../BSP/Position2Go/src/position2go_bsp.c **** }
 471              	 .loc 1 482 0
 472 01d6 3848     	 ldr r0,.L34+36
 473 01d8 FFF7FEFF 	 bl TIMER_Clear
 474              	.LVL56:
 475              	.LBE225:
 476              	.LBE224:
 238:../BSP/Position2Go/src/position2go_bsp.c ****   bsp_time_delay_usec(50U);
 477              	 .loc 1 238 0
 478 01dc 0420     	 movs r0,#4
 479 01de FFF7FEFF 	 bl pga_init
 480              	.LVL57:
 481 01e2 8146     	 mov r9,r0
 482              	.LVL58:
 483              	.LBB228:
 484              	.LBB229:
 469:../BSP/Position2Go/src/position2go_bsp.c ****   
 485              	 .loc 1 469 0
 486 01e4 3448     	 ldr r0,.L34+36
 487 01e6 FFF7FEFF 	 bl TIMER_ClearEvent
 488              	.LVL59:
 474:../BSP/Position2Go/src/position2go_bsp.c ****   
 489              	 .loc 1 474 0
 490 01ea 3348     	 ldr r0,.L34+36
 491 01ec 41F28831 	 movw r1,#5000
 492 01f0 FFF7FEFF 	 bl TIMER_SetTimeInterval
 493              	.LVL60:
 494              	.LBB230:
 495              	.LBB231:
 458:../BSP/Position2Go/src/position2go_bsp.c ****   
 496              	 .loc 1 458 0
 497 01f4 3048     	 ldr r0,.L34+36
 498 01f6 FFF7FEFF 	 bl TIMER_Start
 499              	.LVL61:
 500              	.L9:
 501              	.LBE231:
 502              	.LBE230:
 478:../BSP/Position2Go/src/position2go_bsp.c ****   
 503              	 .loc 1 478 0
 504 01fa 2F48     	 ldr r0,.L34+36
 505 01fc FFF7FEFF 	 bl TIMER_GetInterruptStatus
 506              	.LVL62:
 507 0200 0028     	 cmp r0,#0
 508 0202 FAD0     	 beq .L9
 480:../BSP/Position2Go/src/position2go_bsp.c ****   
 509              	 .loc 1 480 0
 510 0204 2C48     	 ldr r0,.L34+36
 511 0206 FFF7FEFF 	 bl TIMER_Stop
 512              	.LVL63:
 482:../BSP/Position2Go/src/position2go_bsp.c **** }
 513              	 .loc 1 482 0
 514 020a 2B48     	 ldr r0,.L34+36
 515 020c FFF7FEFF 	 bl TIMER_Clear
 516              	.LVL64:
 517              	.LBE229:
 518              	.LBE228:
 519              	.LBB232:
 520              	.LBB233:
 521              	.LBB234:
 522              	 .file 3 "E:/NOVA/Assets/IFX_P2G-HW-SW_V1.0.4/Firmware_Software/DAVE project/P2G_FW/Dave/Generated/DMA_CH/dma_ch.h"
   1:E:/NOVA/Assets/IFX_P2G-HW-SW_V1.0.4/Firmware_Software/DAVE project/P2G_FW/Dave/Generated/DMA_CH\dma_ch.h **** 
   2:E:/NOVA/Assets/IFX_P2G-HW-SW_V1.0.4/Firmware_Software/DAVE project/P2G_FW/Dave/Generated/DMA_CH\dma_ch.h **** /**
   3:E:/NOVA/Assets/IFX_P2G-HW-SW_V1.0.4/Firmware_Software/DAVE project/P2G_FW/Dave/Generated/DMA_CH\dma_ch.h ****  * @file dma_ch.h
   4:E:/NOVA/Assets/IFX_P2G-HW-SW_V1.0.4/Firmware_Software/DAVE project/P2G_FW/Dave/Generated/DMA_CH\dma_ch.h ****  * @date 2015-11-12
   5:E:/NOVA/Assets/IFX_P2G-HW-SW_V1.0.4/Firmware_Software/DAVE project/P2G_FW/Dave/Generated/DMA_CH\dma_ch.h ****  *
   6:E:/NOVA/Assets/IFX_P2G-HW-SW_V1.0.4/Firmware_Software/DAVE project/P2G_FW/Dave/Generated/DMA_CH\dma_ch.h ****  * NOTE:
   7:E:/NOVA/Assets/IFX_P2G-HW-SW_V1.0.4/Firmware_Software/DAVE project/P2G_FW/Dave/Generated/DMA_CH\dma_ch.h ****  * This file is generated by DAVE. Any manual modification done to this file will be lost when the 
   8:E:/NOVA/Assets/IFX_P2G-HW-SW_V1.0.4/Firmware_Software/DAVE project/P2G_FW/Dave/Generated/DMA_CH\dma_ch.h ****  *
   9:E:/NOVA/Assets/IFX_P2G-HW-SW_V1.0.4/Firmware_Software/DAVE project/P2G_FW/Dave/Generated/DMA_CH\dma_ch.h ****  * @cond
  10:E:/NOVA/Assets/IFX_P2G-HW-SW_V1.0.4/Firmware_Software/DAVE project/P2G_FW/Dave/Generated/DMA_CH\dma_ch.h ****  **************************************************************************************************
  11:E:/NOVA/Assets/IFX_P2G-HW-SW_V1.0.4/Firmware_Software/DAVE project/P2G_FW/Dave/Generated/DMA_CH\dma_ch.h ****  * DMA_CH v4.1.8 - Perform single and multi-block data transfer using the GPDMA module
  12:E:/NOVA/Assets/IFX_P2G-HW-SW_V1.0.4/Firmware_Software/DAVE project/P2G_FW/Dave/Generated/DMA_CH\dma_ch.h ****  *
  13:E:/NOVA/Assets/IFX_P2G-HW-SW_V1.0.4/Firmware_Software/DAVE project/P2G_FW/Dave/Generated/DMA_CH\dma_ch.h ****  * Copyright (c) 2015, Infineon Technologies AG
  14:E:/NOVA/Assets/IFX_P2G-HW-SW_V1.0.4/Firmware_Software/DAVE project/P2G_FW/Dave/Generated/DMA_CH\dma_ch.h ****  * All rights reserved.
  15:E:/NOVA/Assets/IFX_P2G-HW-SW_V1.0.4/Firmware_Software/DAVE project/P2G_FW/Dave/Generated/DMA_CH\dma_ch.h ****  *
  16:E:/NOVA/Assets/IFX_P2G-HW-SW_V1.0.4/Firmware_Software/DAVE project/P2G_FW/Dave/Generated/DMA_CH\dma_ch.h ****  * Redistribution and use in source and binary forms, with or without modification,are permitted pr
  17:E:/NOVA/Assets/IFX_P2G-HW-SW_V1.0.4/Firmware_Software/DAVE project/P2G_FW/Dave/Generated/DMA_CH\dma_ch.h ****  * following conditions are met:
  18:E:/NOVA/Assets/IFX_P2G-HW-SW_V1.0.4/Firmware_Software/DAVE project/P2G_FW/Dave/Generated/DMA_CH\dma_ch.h ****  *
  19:E:/NOVA/Assets/IFX_P2G-HW-SW_V1.0.4/Firmware_Software/DAVE project/P2G_FW/Dave/Generated/DMA_CH\dma_ch.h ****  *   Redistributions of source code must retain the above copyright notice, this list of conditions
  20:E:/NOVA/Assets/IFX_P2G-HW-SW_V1.0.4/Firmware_Software/DAVE project/P2G_FW/Dave/Generated/DMA_CH\dma_ch.h ****  *   disclaimer.
  21:E:/NOVA/Assets/IFX_P2G-HW-SW_V1.0.4/Firmware_Software/DAVE project/P2G_FW/Dave/Generated/DMA_CH\dma_ch.h ****  *
  22:E:/NOVA/Assets/IFX_P2G-HW-SW_V1.0.4/Firmware_Software/DAVE project/P2G_FW/Dave/Generated/DMA_CH\dma_ch.h ****  *   Redistributions in binary form must reproduce the above copyright notice, this list of conditi
  23:E:/NOVA/Assets/IFX_P2G-HW-SW_V1.0.4/Firmware_Software/DAVE project/P2G_FW/Dave/Generated/DMA_CH\dma_ch.h ****  *   following disclaimer in the documentation and/or other materials provided with the distributio
  24:E:/NOVA/Assets/IFX_P2G-HW-SW_V1.0.4/Firmware_Software/DAVE project/P2G_FW/Dave/Generated/DMA_CH\dma_ch.h ****  *
  25:E:/NOVA/Assets/IFX_P2G-HW-SW_V1.0.4/Firmware_Software/DAVE project/P2G_FW/Dave/Generated/DMA_CH\dma_ch.h ****  *   Neither the name of the copyright holders nor the names of its contributors may be used to end
  26:E:/NOVA/Assets/IFX_P2G-HW-SW_V1.0.4/Firmware_Software/DAVE project/P2G_FW/Dave/Generated/DMA_CH\dma_ch.h ****  *   products derived from this software without specific prior written permission.
  27:E:/NOVA/Assets/IFX_P2G-HW-SW_V1.0.4/Firmware_Software/DAVE project/P2G_FW/Dave/Generated/DMA_CH\dma_ch.h ****  *
  28:E:/NOVA/Assets/IFX_P2G-HW-SW_V1.0.4/Firmware_Software/DAVE project/P2G_FW/Dave/Generated/DMA_CH\dma_ch.h ****  * THIS SOFTWARE IS PROVIDED BY THE COPYRIGHT HOLDERS AND CONTRIBUTORS "AS IS" AND ANY EXPRESS OR I
  29:E:/NOVA/Assets/IFX_P2G-HW-SW_V1.0.4/Firmware_Software/DAVE project/P2G_FW/Dave/Generated/DMA_CH\dma_ch.h ****  * INCLUDING, BUT NOT LIMITED TO, THE IMPLIED WARRANTIES OF MERCHANTABILITY AND FITNESS FOR A PARTI
  30:E:/NOVA/Assets/IFX_P2G-HW-SW_V1.0.4/Firmware_Software/DAVE project/P2G_FW/Dave/Generated/DMA_CH\dma_ch.h ****  * DISCLAIMED. IN NO EVENT SHALL THE COPYRIGHT HOLDER OR CONTRIBUTORS BE LIABLE  FOR ANY DIRECT, IN
  31:E:/NOVA/Assets/IFX_P2G-HW-SW_V1.0.4/Firmware_Software/DAVE project/P2G_FW/Dave/Generated/DMA_CH\dma_ch.h ****  * SPECIAL, EXEMPLARY, OR CONSEQUENTIAL DAMAGES (INCLUDING, BUT NOT LIMITED TO, PROCUREMENT OF SUBS
  32:E:/NOVA/Assets/IFX_P2G-HW-SW_V1.0.4/Firmware_Software/DAVE project/P2G_FW/Dave/Generated/DMA_CH\dma_ch.h ****  * SERVICES; LOSS OF USE, DATA, OR PROFITS; OR BUSINESS INTERRUPTION) HOWEVER CAUSED AND ON ANY THE
  33:E:/NOVA/Assets/IFX_P2G-HW-SW_V1.0.4/Firmware_Software/DAVE project/P2G_FW/Dave/Generated/DMA_CH\dma_ch.h ****  * WHETHER IN CONTRACT, STRICT LIABILITY,OR TORT (INCLUDING NEGLIGENCE OR OTHERWISE) ARISING IN ANY
  34:E:/NOVA/Assets/IFX_P2G-HW-SW_V1.0.4/Firmware_Software/DAVE project/P2G_FW/Dave/Generated/DMA_CH\dma_ch.h ****  * USE OF THIS SOFTWARE, EVEN IF ADVISED OF THE POSSIBILITY OF SUCH DAMAGE.
  35:E:/NOVA/Assets/IFX_P2G-HW-SW_V1.0.4/Firmware_Software/DAVE project/P2G_FW/Dave/Generated/DMA_CH\dma_ch.h ****  *
  36:E:/NOVA/Assets/IFX_P2G-HW-SW_V1.0.4/Firmware_Software/DAVE project/P2G_FW/Dave/Generated/DMA_CH\dma_ch.h ****  * To improve the quality of the software, users are encouraged to share modifications, enhancement
  37:E:/NOVA/Assets/IFX_P2G-HW-SW_V1.0.4/Firmware_Software/DAVE project/P2G_FW/Dave/Generated/DMA_CH\dma_ch.h ****  * with Infineon Technologies AG (dave@infineon.com).
  38:E:/NOVA/Assets/IFX_P2G-HW-SW_V1.0.4/Firmware_Software/DAVE project/P2G_FW/Dave/Generated/DMA_CH\dma_ch.h ****  **************************************************************************************************
  39:E:/NOVA/Assets/IFX_P2G-HW-SW_V1.0.4/Firmware_Software/DAVE project/P2G_FW/Dave/Generated/DMA_CH\dma_ch.h ****  *
  40:E:/NOVA/Assets/IFX_P2G-HW-SW_V1.0.4/Firmware_Software/DAVE project/P2G_FW/Dave/Generated/DMA_CH\dma_ch.h ****  * Change History
  41:E:/NOVA/Assets/IFX_P2G-HW-SW_V1.0.4/Firmware_Software/DAVE project/P2G_FW/Dave/Generated/DMA_CH\dma_ch.h ****  * --------------
  42:E:/NOVA/Assets/IFX_P2G-HW-SW_V1.0.4/Firmware_Software/DAVE project/P2G_FW/Dave/Generated/DMA_CH\dma_ch.h ****  *
  43:E:/NOVA/Assets/IFX_P2G-HW-SW_V1.0.4/Firmware_Software/DAVE project/P2G_FW/Dave/Generated/DMA_CH\dma_ch.h ****  * 2015-02-20:
  44:E:/NOVA/Assets/IFX_P2G-HW-SW_V1.0.4/Firmware_Software/DAVE project/P2G_FW/Dave/Generated/DMA_CH\dma_ch.h ****  *     - Initial version <br>
  45:E:/NOVA/Assets/IFX_P2G-HW-SW_V1.0.4/Firmware_Software/DAVE project/P2G_FW/Dave/Generated/DMA_CH\dma_ch.h ****  *
  46:E:/NOVA/Assets/IFX_P2G-HW-SW_V1.0.4/Firmware_Software/DAVE project/P2G_FW/Dave/Generated/DMA_CH\dma_ch.h ****  * 2015-04-15:
  47:E:/NOVA/Assets/IFX_P2G-HW-SW_V1.0.4/Firmware_Software/DAVE project/P2G_FW/Dave/Generated/DMA_CH\dma_ch.h ****  *     - Handle src/dst address updates with new APIs in DMA LLD <br>
  48:E:/NOVA/Assets/IFX_P2G-HW-SW_V1.0.4/Firmware_Software/DAVE project/P2G_FW/Dave/Generated/DMA_CH\dma_ch.h ****  *     - Documentation updates <br>
  49:E:/NOVA/Assets/IFX_P2G-HW-SW_V1.0.4/Firmware_Software/DAVE project/P2G_FW/Dave/Generated/DMA_CH\dma_ch.h ****  *
  50:E:/NOVA/Assets/IFX_P2G-HW-SW_V1.0.4/Firmware_Software/DAVE project/P2G_FW/Dave/Generated/DMA_CH\dma_ch.h ****  * 2015-05-20:
  51:E:/NOVA/Assets/IFX_P2G-HW-SW_V1.0.4/Firmware_Software/DAVE project/P2G_FW/Dave/Generated/DMA_CH\dma_ch.h ****  *     - Some of the functions are now static inline <br>
  52:E:/NOVA/Assets/IFX_P2G-HW-SW_V1.0.4/Firmware_Software/DAVE project/P2G_FW/Dave/Generated/DMA_CH\dma_ch.h ****  *     - Type changes in formal arguments <br>
  53:E:/NOVA/Assets/IFX_P2G-HW-SW_V1.0.4/Firmware_Software/DAVE project/P2G_FW/Dave/Generated/DMA_CH\dma_ch.h ****  *
  54:E:/NOVA/Assets/IFX_P2G-HW-SW_V1.0.4/Firmware_Software/DAVE project/P2G_FW/Dave/Generated/DMA_CH\dma_ch.h ****  * 2015-06-20:
  55:E:/NOVA/Assets/IFX_P2G-HW-SW_V1.0.4/Firmware_Software/DAVE project/P2G_FW/Dave/Generated/DMA_CH\dma_ch.h ****  *     - Added new API DMA_CH_Reload() <br>
  56:E:/NOVA/Assets/IFX_P2G-HW-SW_V1.0.4/Firmware_Software/DAVE project/P2G_FW/Dave/Generated/DMA_CH\dma_ch.h ****  * 2015-11-12:
  57:E:/NOVA/Assets/IFX_P2G-HW-SW_V1.0.4/Firmware_Software/DAVE project/P2G_FW/Dave/Generated/DMA_CH\dma_ch.h ****  *     - Updated the example code for DMA_CH_Reload() API.
  58:E:/NOVA/Assets/IFX_P2G-HW-SW_V1.0.4/Firmware_Software/DAVE project/P2G_FW/Dave/Generated/DMA_CH\dma_ch.h ****  * @endcond
  59:E:/NOVA/Assets/IFX_P2G-HW-SW_V1.0.4/Firmware_Software/DAVE project/P2G_FW/Dave/Generated/DMA_CH\dma_ch.h ****  */
  60:E:/NOVA/Assets/IFX_P2G-HW-SW_V1.0.4/Firmware_Software/DAVE project/P2G_FW/Dave/Generated/DMA_CH\dma_ch.h ****  
  61:E:/NOVA/Assets/IFX_P2G-HW-SW_V1.0.4/Firmware_Software/DAVE project/P2G_FW/Dave/Generated/DMA_CH\dma_ch.h **** #ifndef DMA_CH_H
  62:E:/NOVA/Assets/IFX_P2G-HW-SW_V1.0.4/Firmware_Software/DAVE project/P2G_FW/Dave/Generated/DMA_CH\dma_ch.h **** #define DMA_CH_H
  63:E:/NOVA/Assets/IFX_P2G-HW-SW_V1.0.4/Firmware_Software/DAVE project/P2G_FW/Dave/Generated/DMA_CH\dma_ch.h **** 
  64:E:/NOVA/Assets/IFX_P2G-HW-SW_V1.0.4/Firmware_Software/DAVE project/P2G_FW/Dave/Generated/DMA_CH\dma_ch.h **** /**************************************************************************************************
  65:E:/NOVA/Assets/IFX_P2G-HW-SW_V1.0.4/Firmware_Software/DAVE project/P2G_FW/Dave/Generated/DMA_CH\dma_ch.h ****  * HEADER FILES
  66:E:/NOVA/Assets/IFX_P2G-HW-SW_V1.0.4/Firmware_Software/DAVE project/P2G_FW/Dave/Generated/DMA_CH\dma_ch.h ****  **************************************************************************************************
  67:E:/NOVA/Assets/IFX_P2G-HW-SW_V1.0.4/Firmware_Software/DAVE project/P2G_FW/Dave/Generated/DMA_CH\dma_ch.h **** 
  68:E:/NOVA/Assets/IFX_P2G-HW-SW_V1.0.4/Firmware_Software/DAVE project/P2G_FW/Dave/Generated/DMA_CH\dma_ch.h **** #include "xmc_dma.h"
  69:E:/NOVA/Assets/IFX_P2G-HW-SW_V1.0.4/Firmware_Software/DAVE project/P2G_FW/Dave/Generated/DMA_CH\dma_ch.h **** 
  70:E:/NOVA/Assets/IFX_P2G-HW-SW_V1.0.4/Firmware_Software/DAVE project/P2G_FW/Dave/Generated/DMA_CH\dma_ch.h **** #if (!((XMC_LIB_MAJOR_VERSION == 2U) && \
  71:E:/NOVA/Assets/IFX_P2G-HW-SW_V1.0.4/Firmware_Software/DAVE project/P2G_FW/Dave/Generated/DMA_CH\dma_ch.h ****        (XMC_LIB_MINOR_VERSION >= 0U) && \
  72:E:/NOVA/Assets/IFX_P2G-HW-SW_V1.0.4/Firmware_Software/DAVE project/P2G_FW/Dave/Generated/DMA_CH\dma_ch.h ****        (XMC_LIB_PATCH_VERSION >= 0U)))
  73:E:/NOVA/Assets/IFX_P2G-HW-SW_V1.0.4/Firmware_Software/DAVE project/P2G_FW/Dave/Generated/DMA_CH\dma_ch.h **** #error "DMA_CH requires XMC Peripheral Library v2.0.0 or higher"
  74:E:/NOVA/Assets/IFX_P2G-HW-SW_V1.0.4/Firmware_Software/DAVE project/P2G_FW/Dave/Generated/DMA_CH\dma_ch.h **** #endif
  75:E:/NOVA/Assets/IFX_P2G-HW-SW_V1.0.4/Firmware_Software/DAVE project/P2G_FW/Dave/Generated/DMA_CH\dma_ch.h **** 
  76:E:/NOVA/Assets/IFX_P2G-HW-SW_V1.0.4/Firmware_Software/DAVE project/P2G_FW/Dave/Generated/DMA_CH\dma_ch.h **** #include "DAVE_Common.h"
  77:E:/NOVA/Assets/IFX_P2G-HW-SW_V1.0.4/Firmware_Software/DAVE project/P2G_FW/Dave/Generated/DMA_CH\dma_ch.h **** #include "../GLOBAL_DMA/global_dma.h"
  78:E:/NOVA/Assets/IFX_P2G-HW-SW_V1.0.4/Firmware_Software/DAVE project/P2G_FW/Dave/Generated/DMA_CH\dma_ch.h **** 
  79:E:/NOVA/Assets/IFX_P2G-HW-SW_V1.0.4/Firmware_Software/DAVE project/P2G_FW/Dave/Generated/DMA_CH\dma_ch.h **** /**************************************************************************************************
  80:E:/NOVA/Assets/IFX_P2G-HW-SW_V1.0.4/Firmware_Software/DAVE project/P2G_FW/Dave/Generated/DMA_CH\dma_ch.h ****  * MACROS
  81:E:/NOVA/Assets/IFX_P2G-HW-SW_V1.0.4/Firmware_Software/DAVE project/P2G_FW/Dave/Generated/DMA_CH\dma_ch.h ****  **************************************************************************************************
  82:E:/NOVA/Assets/IFX_P2G-HW-SW_V1.0.4/Firmware_Software/DAVE project/P2G_FW/Dave/Generated/DMA_CH\dma_ch.h **** 
  83:E:/NOVA/Assets/IFX_P2G-HW-SW_V1.0.4/Firmware_Software/DAVE project/P2G_FW/Dave/Generated/DMA_CH\dma_ch.h **** /**************************************************************************************************
  84:E:/NOVA/Assets/IFX_P2G-HW-SW_V1.0.4/Firmware_Software/DAVE project/P2G_FW/Dave/Generated/DMA_CH\dma_ch.h ****  * ENUMERATIONS
  85:E:/NOVA/Assets/IFX_P2G-HW-SW_V1.0.4/Firmware_Software/DAVE project/P2G_FW/Dave/Generated/DMA_CH\dma_ch.h ****  **************************************************************************************************
  86:E:/NOVA/Assets/IFX_P2G-HW-SW_V1.0.4/Firmware_Software/DAVE project/P2G_FW/Dave/Generated/DMA_CH\dma_ch.h **** 
  87:E:/NOVA/Assets/IFX_P2G-HW-SW_V1.0.4/Firmware_Software/DAVE project/P2G_FW/Dave/Generated/DMA_CH\dma_ch.h **** /**
  88:E:/NOVA/Assets/IFX_P2G-HW-SW_V1.0.4/Firmware_Software/DAVE project/P2G_FW/Dave/Generated/DMA_CH\dma_ch.h ****  * @ingroup DMA_CH_enumerations
  89:E:/NOVA/Assets/IFX_P2G-HW-SW_V1.0.4/Firmware_Software/DAVE project/P2G_FW/Dave/Generated/DMA_CH\dma_ch.h ****  * @{
  90:E:/NOVA/Assets/IFX_P2G-HW-SW_V1.0.4/Firmware_Software/DAVE project/P2G_FW/Dave/Generated/DMA_CH\dma_ch.h ****  */
  91:E:/NOVA/Assets/IFX_P2G-HW-SW_V1.0.4/Firmware_Software/DAVE project/P2G_FW/Dave/Generated/DMA_CH\dma_ch.h ****   
  92:E:/NOVA/Assets/IFX_P2G-HW-SW_V1.0.4/Firmware_Software/DAVE project/P2G_FW/Dave/Generated/DMA_CH\dma_ch.h **** /**
  93:E:/NOVA/Assets/IFX_P2G-HW-SW_V1.0.4/Firmware_Software/DAVE project/P2G_FW/Dave/Generated/DMA_CH\dma_ch.h ****  * @brief Describe return status of DMA_CH APP functions
  94:E:/NOVA/Assets/IFX_P2G-HW-SW_V1.0.4/Firmware_Software/DAVE project/P2G_FW/Dave/Generated/DMA_CH\dma_ch.h ****  */
  95:E:/NOVA/Assets/IFX_P2G-HW-SW_V1.0.4/Firmware_Software/DAVE project/P2G_FW/Dave/Generated/DMA_CH\dma_ch.h **** typedef enum DMA_CH_STATUS_t
  96:E:/NOVA/Assets/IFX_P2G-HW-SW_V1.0.4/Firmware_Software/DAVE project/P2G_FW/Dave/Generated/DMA_CH\dma_ch.h **** {
  97:E:/NOVA/Assets/IFX_P2G-HW-SW_V1.0.4/Firmware_Software/DAVE project/P2G_FW/Dave/Generated/DMA_CH\dma_ch.h ****   DMA_CH_STATUS_SUCCESS = 0U, /**< DMA operation successful */
  98:E:/NOVA/Assets/IFX_P2G-HW-SW_V1.0.4/Firmware_Software/DAVE project/P2G_FW/Dave/Generated/DMA_CH\dma_ch.h ****   DMA_CH_STATUS_FAILURE,      /**< DMA operation failure */
  99:E:/NOVA/Assets/IFX_P2G-HW-SW_V1.0.4/Firmware_Software/DAVE project/P2G_FW/Dave/Generated/DMA_CH\dma_ch.h ****   DMA_CH_STATUS_CHANNEL_BUSY  /**< DMA channel busy */
 100:E:/NOVA/Assets/IFX_P2G-HW-SW_V1.0.4/Firmware_Software/DAVE project/P2G_FW/Dave/Generated/DMA_CH\dma_ch.h **** } DMA_CH_STATUS_t;
 101:E:/NOVA/Assets/IFX_P2G-HW-SW_V1.0.4/Firmware_Software/DAVE project/P2G_FW/Dave/Generated/DMA_CH\dma_ch.h **** 
 102:E:/NOVA/Assets/IFX_P2G-HW-SW_V1.0.4/Firmware_Software/DAVE project/P2G_FW/Dave/Generated/DMA_CH\dma_ch.h **** /**
 103:E:/NOVA/Assets/IFX_P2G-HW-SW_V1.0.4/Firmware_Software/DAVE project/P2G_FW/Dave/Generated/DMA_CH\dma_ch.h ****  * @}
 104:E:/NOVA/Assets/IFX_P2G-HW-SW_V1.0.4/Firmware_Software/DAVE project/P2G_FW/Dave/Generated/DMA_CH\dma_ch.h ****  */
 105:E:/NOVA/Assets/IFX_P2G-HW-SW_V1.0.4/Firmware_Software/DAVE project/P2G_FW/Dave/Generated/DMA_CH\dma_ch.h ****  
 106:E:/NOVA/Assets/IFX_P2G-HW-SW_V1.0.4/Firmware_Software/DAVE project/P2G_FW/Dave/Generated/DMA_CH\dma_ch.h **** /**************************************************************************************************
 107:E:/NOVA/Assets/IFX_P2G-HW-SW_V1.0.4/Firmware_Software/DAVE project/P2G_FW/Dave/Generated/DMA_CH\dma_ch.h ****  * DATA STRUCTURES
 108:E:/NOVA/Assets/IFX_P2G-HW-SW_V1.0.4/Firmware_Software/DAVE project/P2G_FW/Dave/Generated/DMA_CH\dma_ch.h ****  **************************************************************************************************
 109:E:/NOVA/Assets/IFX_P2G-HW-SW_V1.0.4/Firmware_Software/DAVE project/P2G_FW/Dave/Generated/DMA_CH\dma_ch.h ****  
 110:E:/NOVA/Assets/IFX_P2G-HW-SW_V1.0.4/Firmware_Software/DAVE project/P2G_FW/Dave/Generated/DMA_CH\dma_ch.h **** /**
 111:E:/NOVA/Assets/IFX_P2G-HW-SW_V1.0.4/Firmware_Software/DAVE project/P2G_FW/Dave/Generated/DMA_CH\dma_ch.h ****  * @ingroup DMA_CH_datastructures
 112:E:/NOVA/Assets/IFX_P2G-HW-SW_V1.0.4/Firmware_Software/DAVE project/P2G_FW/Dave/Generated/DMA_CH\dma_ch.h ****  * @{
 113:E:/NOVA/Assets/IFX_P2G-HW-SW_V1.0.4/Firmware_Software/DAVE project/P2G_FW/Dave/Generated/DMA_CH\dma_ch.h ****  */
 114:E:/NOVA/Assets/IFX_P2G-HW-SW_V1.0.4/Firmware_Software/DAVE project/P2G_FW/Dave/Generated/DMA_CH\dma_ch.h **** 
 115:E:/NOVA/Assets/IFX_P2G-HW-SW_V1.0.4/Firmware_Software/DAVE project/P2G_FW/Dave/Generated/DMA_CH\dma_ch.h **** /**
 116:E:/NOVA/Assets/IFX_P2G-HW-SW_V1.0.4/Firmware_Software/DAVE project/P2G_FW/Dave/Generated/DMA_CH\dma_ch.h ****  * @brief DMA channel configuration structure
 117:E:/NOVA/Assets/IFX_P2G-HW-SW_V1.0.4/Firmware_Software/DAVE project/P2G_FW/Dave/Generated/DMA_CH\dma_ch.h ****  */
 118:E:/NOVA/Assets/IFX_P2G-HW-SW_V1.0.4/Firmware_Software/DAVE project/P2G_FW/Dave/Generated/DMA_CH\dma_ch.h **** typedef struct DMA_CH_CONFIG
 119:E:/NOVA/Assets/IFX_P2G-HW-SW_V1.0.4/Firmware_Software/DAVE project/P2G_FW/Dave/Generated/DMA_CH\dma_ch.h **** {
 120:E:/NOVA/Assets/IFX_P2G-HW-SW_V1.0.4/Firmware_Software/DAVE project/P2G_FW/Dave/Generated/DMA_CH\dma_ch.h ****   XMC_DMA_CH_CONFIG_t ch_config; /**< A pointer to DMA channel configuration */
 121:E:/NOVA/Assets/IFX_P2G-HW-SW_V1.0.4/Firmware_Software/DAVE project/P2G_FW/Dave/Generated/DMA_CH\dma_ch.h ****   XMC_DMA_CH_EVENT_HANDLER_t callback; /**< User callback for DMA events */
 122:E:/NOVA/Assets/IFX_P2G-HW-SW_V1.0.4/Firmware_Software/DAVE project/P2G_FW/Dave/Generated/DMA_CH\dma_ch.h ****   uint32_t events; /**< DMA events */
 123:E:/NOVA/Assets/IFX_P2G-HW-SW_V1.0.4/Firmware_Software/DAVE project/P2G_FW/Dave/Generated/DMA_CH\dma_ch.h **** } DMA_CH_CONFIG_t;
 124:E:/NOVA/Assets/IFX_P2G-HW-SW_V1.0.4/Firmware_Software/DAVE project/P2G_FW/Dave/Generated/DMA_CH\dma_ch.h **** 
 125:E:/NOVA/Assets/IFX_P2G-HW-SW_V1.0.4/Firmware_Software/DAVE project/P2G_FW/Dave/Generated/DMA_CH\dma_ch.h **** /**
 126:E:/NOVA/Assets/IFX_P2G-HW-SW_V1.0.4/Firmware_Software/DAVE project/P2G_FW/Dave/Generated/DMA_CH\dma_ch.h ****  * @brief DMA_CH APP structure
 127:E:/NOVA/Assets/IFX_P2G-HW-SW_V1.0.4/Firmware_Software/DAVE project/P2G_FW/Dave/Generated/DMA_CH\dma_ch.h ****  */
 128:E:/NOVA/Assets/IFX_P2G-HW-SW_V1.0.4/Firmware_Software/DAVE project/P2G_FW/Dave/Generated/DMA_CH\dma_ch.h **** typedef struct DMA_CH_t
 129:E:/NOVA/Assets/IFX_P2G-HW-SW_V1.0.4/Firmware_Software/DAVE project/P2G_FW/Dave/Generated/DMA_CH\dma_ch.h **** {
 130:E:/NOVA/Assets/IFX_P2G-HW-SW_V1.0.4/Firmware_Software/DAVE project/P2G_FW/Dave/Generated/DMA_CH\dma_ch.h ****   GLOBAL_DMA_t *const dma_global; /**< A pointer to GLOBAL_DMA handle structure */
 131:E:/NOVA/Assets/IFX_P2G-HW-SW_V1.0.4/Firmware_Software/DAVE project/P2G_FW/Dave/Generated/DMA_CH\dma_ch.h ****   DMA_CH_CONFIG_t *const config; /**< A pointer to DMA_CH configuration structure */
 132:E:/NOVA/Assets/IFX_P2G-HW-SW_V1.0.4/Firmware_Software/DAVE project/P2G_FW/Dave/Generated/DMA_CH\dma_ch.h ****   void (*reload)(struct DMA_CH_t *obj);
 133:E:/NOVA/Assets/IFX_P2G-HW-SW_V1.0.4/Firmware_Software/DAVE project/P2G_FW/Dave/Generated/DMA_CH\dma_ch.h ****   uint8_t ch_num; /**< Channel number */
 134:E:/NOVA/Assets/IFX_P2G-HW-SW_V1.0.4/Firmware_Software/DAVE project/P2G_FW/Dave/Generated/DMA_CH\dma_ch.h **** } DMA_CH_t;
 135:E:/NOVA/Assets/IFX_P2G-HW-SW_V1.0.4/Firmware_Software/DAVE project/P2G_FW/Dave/Generated/DMA_CH\dma_ch.h **** 
 136:E:/NOVA/Assets/IFX_P2G-HW-SW_V1.0.4/Firmware_Software/DAVE project/P2G_FW/Dave/Generated/DMA_CH\dma_ch.h **** /**
 137:E:/NOVA/Assets/IFX_P2G-HW-SW_V1.0.4/Firmware_Software/DAVE project/P2G_FW/Dave/Generated/DMA_CH\dma_ch.h ****  * @}
 138:E:/NOVA/Assets/IFX_P2G-HW-SW_V1.0.4/Firmware_Software/DAVE project/P2G_FW/Dave/Generated/DMA_CH\dma_ch.h ****  */
 139:E:/NOVA/Assets/IFX_P2G-HW-SW_V1.0.4/Firmware_Software/DAVE project/P2G_FW/Dave/Generated/DMA_CH\dma_ch.h **** 
 140:E:/NOVA/Assets/IFX_P2G-HW-SW_V1.0.4/Firmware_Software/DAVE project/P2G_FW/Dave/Generated/DMA_CH\dma_ch.h **** /* Support for C++ */
 141:E:/NOVA/Assets/IFX_P2G-HW-SW_V1.0.4/Firmware_Software/DAVE project/P2G_FW/Dave/Generated/DMA_CH\dma_ch.h **** #ifdef __cplusplus
 142:E:/NOVA/Assets/IFX_P2G-HW-SW_V1.0.4/Firmware_Software/DAVE project/P2G_FW/Dave/Generated/DMA_CH\dma_ch.h **** extern "C" {
 143:E:/NOVA/Assets/IFX_P2G-HW-SW_V1.0.4/Firmware_Software/DAVE project/P2G_FW/Dave/Generated/DMA_CH\dma_ch.h **** #endif
 144:E:/NOVA/Assets/IFX_P2G-HW-SW_V1.0.4/Firmware_Software/DAVE project/P2G_FW/Dave/Generated/DMA_CH\dma_ch.h **** 
 145:E:/NOVA/Assets/IFX_P2G-HW-SW_V1.0.4/Firmware_Software/DAVE project/P2G_FW/Dave/Generated/DMA_CH\dma_ch.h **** /**************************************************************************************************
 146:E:/NOVA/Assets/IFX_P2G-HW-SW_V1.0.4/Firmware_Software/DAVE project/P2G_FW/Dave/Generated/DMA_CH\dma_ch.h ****  * API PROTOTYPES
 147:E:/NOVA/Assets/IFX_P2G-HW-SW_V1.0.4/Firmware_Software/DAVE project/P2G_FW/Dave/Generated/DMA_CH\dma_ch.h ****  **************************************************************************************************
 148:E:/NOVA/Assets/IFX_P2G-HW-SW_V1.0.4/Firmware_Software/DAVE project/P2G_FW/Dave/Generated/DMA_CH\dma_ch.h ****  
 149:E:/NOVA/Assets/IFX_P2G-HW-SW_V1.0.4/Firmware_Software/DAVE project/P2G_FW/Dave/Generated/DMA_CH\dma_ch.h **** /**
 150:E:/NOVA/Assets/IFX_P2G-HW-SW_V1.0.4/Firmware_Software/DAVE project/P2G_FW/Dave/Generated/DMA_CH\dma_ch.h ****  * @ingroup DMA_CH_apidoc
 151:E:/NOVA/Assets/IFX_P2G-HW-SW_V1.0.4/Firmware_Software/DAVE project/P2G_FW/Dave/Generated/DMA_CH\dma_ch.h ****  * @{
 152:E:/NOVA/Assets/IFX_P2G-HW-SW_V1.0.4/Firmware_Software/DAVE project/P2G_FW/Dave/Generated/DMA_CH\dma_ch.h ****  */
 153:E:/NOVA/Assets/IFX_P2G-HW-SW_V1.0.4/Firmware_Software/DAVE project/P2G_FW/Dave/Generated/DMA_CH\dma_ch.h **** 
 154:E:/NOVA/Assets/IFX_P2G-HW-SW_V1.0.4/Firmware_Software/DAVE project/P2G_FW/Dave/Generated/DMA_CH\dma_ch.h **** /**
 155:E:/NOVA/Assets/IFX_P2G-HW-SW_V1.0.4/Firmware_Software/DAVE project/P2G_FW/Dave/Generated/DMA_CH\dma_ch.h ****  * @brief Get DMA_CH APP version
 156:E:/NOVA/Assets/IFX_P2G-HW-SW_V1.0.4/Firmware_Software/DAVE project/P2G_FW/Dave/Generated/DMA_CH\dma_ch.h ****  * @return DAVE_APP_VERSION_t APP version details (major, minor and patch number)
 157:E:/NOVA/Assets/IFX_P2G-HW-SW_V1.0.4/Firmware_Software/DAVE project/P2G_FW/Dave/Generated/DMA_CH\dma_ch.h ****  *
 158:E:/NOVA/Assets/IFX_P2G-HW-SW_V1.0.4/Firmware_Software/DAVE project/P2G_FW/Dave/Generated/DMA_CH\dma_ch.h ****  * \par<b>Description: </b><br>
 159:E:/NOVA/Assets/IFX_P2G-HW-SW_V1.0.4/Firmware_Software/DAVE project/P2G_FW/Dave/Generated/DMA_CH\dma_ch.h ****  * The function can be used to check application software compatibility with a
 160:E:/NOVA/Assets/IFX_P2G-HW-SW_V1.0.4/Firmware_Software/DAVE project/P2G_FW/Dave/Generated/DMA_CH\dma_ch.h ****  * specific version of the APP.
 161:E:/NOVA/Assets/IFX_P2G-HW-SW_V1.0.4/Firmware_Software/DAVE project/P2G_FW/Dave/Generated/DMA_CH\dma_ch.h ****  *
 162:E:/NOVA/Assets/IFX_P2G-HW-SW_V1.0.4/Firmware_Software/DAVE project/P2G_FW/Dave/Generated/DMA_CH\dma_ch.h ****  * Example Usage:
 163:E:/NOVA/Assets/IFX_P2G-HW-SW_V1.0.4/Firmware_Software/DAVE project/P2G_FW/Dave/Generated/DMA_CH\dma_ch.h ****  *
 164:E:/NOVA/Assets/IFX_P2G-HW-SW_V1.0.4/Firmware_Software/DAVE project/P2G_FW/Dave/Generated/DMA_CH\dma_ch.h ****  * @code
 165:E:/NOVA/Assets/IFX_P2G-HW-SW_V1.0.4/Firmware_Software/DAVE project/P2G_FW/Dave/Generated/DMA_CH\dma_ch.h ****  * #include <DAVE.h>
 166:E:/NOVA/Assets/IFX_P2G-HW-SW_V1.0.4/Firmware_Software/DAVE project/P2G_FW/Dave/Generated/DMA_CH\dma_ch.h ****  *
 167:E:/NOVA/Assets/IFX_P2G-HW-SW_V1.0.4/Firmware_Software/DAVE project/P2G_FW/Dave/Generated/DMA_CH\dma_ch.h ****  * int main(void)
 168:E:/NOVA/Assets/IFX_P2G-HW-SW_V1.0.4/Firmware_Software/DAVE project/P2G_FW/Dave/Generated/DMA_CH\dma_ch.h ****  * {
 169:E:/NOVA/Assets/IFX_P2G-HW-SW_V1.0.4/Firmware_Software/DAVE project/P2G_FW/Dave/Generated/DMA_CH\dma_ch.h ****  *   DAVE_APP_VERSION_t version;
 170:E:/NOVA/Assets/IFX_P2G-HW-SW_V1.0.4/Firmware_Software/DAVE project/P2G_FW/Dave/Generated/DMA_CH\dma_ch.h ****  *
 171:E:/NOVA/Assets/IFX_P2G-HW-SW_V1.0.4/Firmware_Software/DAVE project/P2G_FW/Dave/Generated/DMA_CH\dma_ch.h ****  *   // Initialize DMA_CH APP. The GLOBAL_DMA APP
 172:E:/NOVA/Assets/IFX_P2G-HW-SW_V1.0.4/Firmware_Software/DAVE project/P2G_FW/Dave/Generated/DMA_CH\dma_ch.h ****  *   // is initialized in the DMA_CH initialization
 173:E:/NOVA/Assets/IFX_P2G-HW-SW_V1.0.4/Firmware_Software/DAVE project/P2G_FW/Dave/Generated/DMA_CH\dma_ch.h ****  *   // routine
 174:E:/NOVA/Assets/IFX_P2G-HW-SW_V1.0.4/Firmware_Software/DAVE project/P2G_FW/Dave/Generated/DMA_CH\dma_ch.h ****  *   DAVE_Init();
 175:E:/NOVA/Assets/IFX_P2G-HW-SW_V1.0.4/Firmware_Software/DAVE project/P2G_FW/Dave/Generated/DMA_CH\dma_ch.h ****  *
 176:E:/NOVA/Assets/IFX_P2G-HW-SW_V1.0.4/Firmware_Software/DAVE project/P2G_FW/Dave/Generated/DMA_CH\dma_ch.h ****  *   version = DMA_CH_GetAppVersion();
 177:E:/NOVA/Assets/IFX_P2G-HW-SW_V1.0.4/Firmware_Software/DAVE project/P2G_FW/Dave/Generated/DMA_CH\dma_ch.h ****  *   if (version.major != 4U)
 178:E:/NOVA/Assets/IFX_P2G-HW-SW_V1.0.4/Firmware_Software/DAVE project/P2G_FW/Dave/Generated/DMA_CH\dma_ch.h ****  *   {
 179:E:/NOVA/Assets/IFX_P2G-HW-SW_V1.0.4/Firmware_Software/DAVE project/P2G_FW/Dave/Generated/DMA_CH\dma_ch.h ****  *     // Probably, not the right version.
 180:E:/NOVA/Assets/IFX_P2G-HW-SW_V1.0.4/Firmware_Software/DAVE project/P2G_FW/Dave/Generated/DMA_CH\dma_ch.h ****  *   }
 181:E:/NOVA/Assets/IFX_P2G-HW-SW_V1.0.4/Firmware_Software/DAVE project/P2G_FW/Dave/Generated/DMA_CH\dma_ch.h ****  *
 182:E:/NOVA/Assets/IFX_P2G-HW-SW_V1.0.4/Firmware_Software/DAVE project/P2G_FW/Dave/Generated/DMA_CH\dma_ch.h ****  *   // More code here
 183:E:/NOVA/Assets/IFX_P2G-HW-SW_V1.0.4/Firmware_Software/DAVE project/P2G_FW/Dave/Generated/DMA_CH\dma_ch.h ****  *   while(1)
 184:E:/NOVA/Assets/IFX_P2G-HW-SW_V1.0.4/Firmware_Software/DAVE project/P2G_FW/Dave/Generated/DMA_CH\dma_ch.h ****  *   {
 185:E:/NOVA/Assets/IFX_P2G-HW-SW_V1.0.4/Firmware_Software/DAVE project/P2G_FW/Dave/Generated/DMA_CH\dma_ch.h ****  *   }
 186:E:/NOVA/Assets/IFX_P2G-HW-SW_V1.0.4/Firmware_Software/DAVE project/P2G_FW/Dave/Generated/DMA_CH\dma_ch.h ****  *   return (0);
 187:E:/NOVA/Assets/IFX_P2G-HW-SW_V1.0.4/Firmware_Software/DAVE project/P2G_FW/Dave/Generated/DMA_CH\dma_ch.h ****  * }
 188:E:/NOVA/Assets/IFX_P2G-HW-SW_V1.0.4/Firmware_Software/DAVE project/P2G_FW/Dave/Generated/DMA_CH\dma_ch.h ****  * @endcode<BR> </p>
 189:E:/NOVA/Assets/IFX_P2G-HW-SW_V1.0.4/Firmware_Software/DAVE project/P2G_FW/Dave/Generated/DMA_CH\dma_ch.h ****  */
 190:E:/NOVA/Assets/IFX_P2G-HW-SW_V1.0.4/Firmware_Software/DAVE project/P2G_FW/Dave/Generated/DMA_CH\dma_ch.h **** DAVE_APP_VERSION_t DMA_CH_GetAppVersion(void);
 191:E:/NOVA/Assets/IFX_P2G-HW-SW_V1.0.4/Firmware_Software/DAVE project/P2G_FW/Dave/Generated/DMA_CH\dma_ch.h **** 
 192:E:/NOVA/Assets/IFX_P2G-HW-SW_V1.0.4/Firmware_Software/DAVE project/P2G_FW/Dave/Generated/DMA_CH\dma_ch.h **** /**
 193:E:/NOVA/Assets/IFX_P2G-HW-SW_V1.0.4/Firmware_Software/DAVE project/P2G_FW/Dave/Generated/DMA_CH\dma_ch.h ****  * @brief Enable DMA channel
 194:E:/NOVA/Assets/IFX_P2G-HW-SW_V1.0.4/Firmware_Software/DAVE project/P2G_FW/Dave/Generated/DMA_CH\dma_ch.h ****  * @param obj A pointer to DMA_CH_t, pointing to the DMA_CH handle configuration
 195:E:/NOVA/Assets/IFX_P2G-HW-SW_V1.0.4/Firmware_Software/DAVE project/P2G_FW/Dave/Generated/DMA_CH\dma_ch.h ****  * @return None
 196:E:/NOVA/Assets/IFX_P2G-HW-SW_V1.0.4/Firmware_Software/DAVE project/P2G_FW/Dave/Generated/DMA_CH\dma_ch.h ****  *
 197:E:/NOVA/Assets/IFX_P2G-HW-SW_V1.0.4/Firmware_Software/DAVE project/P2G_FW/Dave/Generated/DMA_CH\dma_ch.h ****  * \par<b>Description: </b><br>
 198:E:/NOVA/Assets/IFX_P2G-HW-SW_V1.0.4/Firmware_Software/DAVE project/P2G_FW/Dave/Generated/DMA_CH\dma_ch.h ****  * The function enables a DMA channel. All DMA transactions are triggered when the
 199:E:/NOVA/Assets/IFX_P2G-HW-SW_V1.0.4/Firmware_Software/DAVE project/P2G_FW/Dave/Generated/DMA_CH\dma_ch.h ****  * channels are enabled.
 200:E:/NOVA/Assets/IFX_P2G-HW-SW_V1.0.4/Firmware_Software/DAVE project/P2G_FW/Dave/Generated/DMA_CH\dma_ch.h ****  *
 201:E:/NOVA/Assets/IFX_P2G-HW-SW_V1.0.4/Firmware_Software/DAVE project/P2G_FW/Dave/Generated/DMA_CH\dma_ch.h ****  * Example Usage:
 202:E:/NOVA/Assets/IFX_P2G-HW-SW_V1.0.4/Firmware_Software/DAVE project/P2G_FW/Dave/Generated/DMA_CH\dma_ch.h ****  *
 203:E:/NOVA/Assets/IFX_P2G-HW-SW_V1.0.4/Firmware_Software/DAVE project/P2G_FW/Dave/Generated/DMA_CH\dma_ch.h ****  * @code
 204:E:/NOVA/Assets/IFX_P2G-HW-SW_V1.0.4/Firmware_Software/DAVE project/P2G_FW/Dave/Generated/DMA_CH\dma_ch.h ****  * #include <XMC4500.h>
 205:E:/NOVA/Assets/IFX_P2G-HW-SW_V1.0.4/Firmware_Software/DAVE project/P2G_FW/Dave/Generated/DMA_CH\dma_ch.h ****  * #include <DAVE.h>
 206:E:/NOVA/Assets/IFX_P2G-HW-SW_V1.0.4/Firmware_Software/DAVE project/P2G_FW/Dave/Generated/DMA_CH\dma_ch.h ****  *
 207:E:/NOVA/Assets/IFX_P2G-HW-SW_V1.0.4/Firmware_Software/DAVE project/P2G_FW/Dave/Generated/DMA_CH\dma_ch.h ****  * int main(void)
 208:E:/NOVA/Assets/IFX_P2G-HW-SW_V1.0.4/Firmware_Software/DAVE project/P2G_FW/Dave/Generated/DMA_CH\dma_ch.h ****  * {
 209:E:/NOVA/Assets/IFX_P2G-HW-SW_V1.0.4/Firmware_Software/DAVE project/P2G_FW/Dave/Generated/DMA_CH\dma_ch.h ****  *   DAVE_STATUS_t status;
 210:E:/NOVA/Assets/IFX_P2G-HW-SW_V1.0.4/Firmware_Software/DAVE project/P2G_FW/Dave/Generated/DMA_CH\dma_ch.h ****  *
 211:E:/NOVA/Assets/IFX_P2G-HW-SW_V1.0.4/Firmware_Software/DAVE project/P2G_FW/Dave/Generated/DMA_CH\dma_ch.h ****  *   status = DAVE_Init();
 212:E:/NOVA/Assets/IFX_P2G-HW-SW_V1.0.4/Firmware_Software/DAVE project/P2G_FW/Dave/Generated/DMA_CH\dma_ch.h ****  *
 213:E:/NOVA/Assets/IFX_P2G-HW-SW_V1.0.4/Firmware_Software/DAVE project/P2G_FW/Dave/Generated/DMA_CH\dma_ch.h ****  *   if (status == DAVE_STATUS_SUCCESS)
 214:E:/NOVA/Assets/IFX_P2G-HW-SW_V1.0.4/Firmware_Software/DAVE project/P2G_FW/Dave/Generated/DMA_CH\dma_ch.h ****  *   {
 215:E:/NOVA/Assets/IFX_P2G-HW-SW_V1.0.4/Firmware_Software/DAVE project/P2G_FW/Dave/Generated/DMA_CH\dma_ch.h ****  *     DMA_CH_Enable(&DMA_CH_0);
 216:E:/NOVA/Assets/IFX_P2G-HW-SW_V1.0.4/Firmware_Software/DAVE project/P2G_FW/Dave/Generated/DMA_CH\dma_ch.h ****  *   }
 217:E:/NOVA/Assets/IFX_P2G-HW-SW_V1.0.4/Firmware_Software/DAVE project/P2G_FW/Dave/Generated/DMA_CH\dma_ch.h ****  *   else
 218:E:/NOVA/Assets/IFX_P2G-HW-SW_V1.0.4/Firmware_Software/DAVE project/P2G_FW/Dave/Generated/DMA_CH\dma_ch.h ****  *   {
 219:E:/NOVA/Assets/IFX_P2G-HW-SW_V1.0.4/Firmware_Software/DAVE project/P2G_FW/Dave/Generated/DMA_CH\dma_ch.h ****  *     // Something went wrong.
 220:E:/NOVA/Assets/IFX_P2G-HW-SW_V1.0.4/Firmware_Software/DAVE project/P2G_FW/Dave/Generated/DMA_CH\dma_ch.h ****  *     while (1U);
 221:E:/NOVA/Assets/IFX_P2G-HW-SW_V1.0.4/Firmware_Software/DAVE project/P2G_FW/Dave/Generated/DMA_CH\dma_ch.h ****  *   }
 222:E:/NOVA/Assets/IFX_P2G-HW-SW_V1.0.4/Firmware_Software/DAVE project/P2G_FW/Dave/Generated/DMA_CH\dma_ch.h ****  *
 223:E:/NOVA/Assets/IFX_P2G-HW-SW_V1.0.4/Firmware_Software/DAVE project/P2G_FW/Dave/Generated/DMA_CH\dma_ch.h ****  *   // More code here.
 224:E:/NOVA/Assets/IFX_P2G-HW-SW_V1.0.4/Firmware_Software/DAVE project/P2G_FW/Dave/Generated/DMA_CH\dma_ch.h ****  *   while (1U);
 225:E:/NOVA/Assets/IFX_P2G-HW-SW_V1.0.4/Firmware_Software/DAVE project/P2G_FW/Dave/Generated/DMA_CH\dma_ch.h ****  *
 226:E:/NOVA/Assets/IFX_P2G-HW-SW_V1.0.4/Firmware_Software/DAVE project/P2G_FW/Dave/Generated/DMA_CH\dma_ch.h ****  *   return 1;
 227:E:/NOVA/Assets/IFX_P2G-HW-SW_V1.0.4/Firmware_Software/DAVE project/P2G_FW/Dave/Generated/DMA_CH\dma_ch.h ****  * }
 228:E:/NOVA/Assets/IFX_P2G-HW-SW_V1.0.4/Firmware_Software/DAVE project/P2G_FW/Dave/Generated/DMA_CH\dma_ch.h ****  * @endcode<BR> </p>
 229:E:/NOVA/Assets/IFX_P2G-HW-SW_V1.0.4/Firmware_Software/DAVE project/P2G_FW/Dave/Generated/DMA_CH\dma_ch.h ****  */
 230:E:/NOVA/Assets/IFX_P2G-HW-SW_V1.0.4/Firmware_Software/DAVE project/P2G_FW/Dave/Generated/DMA_CH\dma_ch.h **** __STATIC_INLINE void DMA_CH_Enable(DMA_CH_t *const obj)
 231:E:/NOVA/Assets/IFX_P2G-HW-SW_V1.0.4/Firmware_Software/DAVE project/P2G_FW/Dave/Generated/DMA_CH\dma_ch.h **** {
 232:E:/NOVA/Assets/IFX_P2G-HW-SW_V1.0.4/Firmware_Software/DAVE project/P2G_FW/Dave/Generated/DMA_CH\dma_ch.h ****   XMC_ASSERT("DMA_CH_Enable: NULL DMA_CH_t object", (obj != NULL));
 233:E:/NOVA/Assets/IFX_P2G-HW-SW_V1.0.4/Firmware_Software/DAVE project/P2G_FW/Dave/Generated/DMA_CH\dma_ch.h **** 
 234:E:/NOVA/Assets/IFX_P2G-HW-SW_V1.0.4/Firmware_Software/DAVE project/P2G_FW/Dave/Generated/DMA_CH\dma_ch.h ****   XMC_DMA_CH_Enable(obj->dma_global->dma, obj->ch_num);
 235:E:/NOVA/Assets/IFX_P2G-HW-SW_V1.0.4/Firmware_Software/DAVE project/P2G_FW/Dave/Generated/DMA_CH\dma_ch.h **** }
 236:E:/NOVA/Assets/IFX_P2G-HW-SW_V1.0.4/Firmware_Software/DAVE project/P2G_FW/Dave/Generated/DMA_CH\dma_ch.h **** 
 237:E:/NOVA/Assets/IFX_P2G-HW-SW_V1.0.4/Firmware_Software/DAVE project/P2G_FW/Dave/Generated/DMA_CH\dma_ch.h **** /**
 238:E:/NOVA/Assets/IFX_P2G-HW-SW_V1.0.4/Firmware_Software/DAVE project/P2G_FW/Dave/Generated/DMA_CH\dma_ch.h ****  * @brief Disable DMA channel
 239:E:/NOVA/Assets/IFX_P2G-HW-SW_V1.0.4/Firmware_Software/DAVE project/P2G_FW/Dave/Generated/DMA_CH\dma_ch.h ****  * @param obj A pointer to DMA_CH_t, pointing to the DMA_CH handle configuration
 240:E:/NOVA/Assets/IFX_P2G-HW-SW_V1.0.4/Firmware_Software/DAVE project/P2G_FW/Dave/Generated/DMA_CH\dma_ch.h ****  * @return None
 241:E:/NOVA/Assets/IFX_P2G-HW-SW_V1.0.4/Firmware_Software/DAVE project/P2G_FW/Dave/Generated/DMA_CH\dma_ch.h ****  *
 242:E:/NOVA/Assets/IFX_P2G-HW-SW_V1.0.4/Firmware_Software/DAVE project/P2G_FW/Dave/Generated/DMA_CH\dma_ch.h ****  * \par<b>Description: </b><br>
 243:E:/NOVA/Assets/IFX_P2G-HW-SW_V1.0.4/Firmware_Software/DAVE project/P2G_FW/Dave/Generated/DMA_CH\dma_ch.h ****  * The function disables a DMA channel. All DMA transactions are stopped when the
 244:E:/NOVA/Assets/IFX_P2G-HW-SW_V1.0.4/Firmware_Software/DAVE project/P2G_FW/Dave/Generated/DMA_CH\dma_ch.h ****  * channels are disabled.
 245:E:/NOVA/Assets/IFX_P2G-HW-SW_V1.0.4/Firmware_Software/DAVE project/P2G_FW/Dave/Generated/DMA_CH\dma_ch.h ****  *
 246:E:/NOVA/Assets/IFX_P2G-HW-SW_V1.0.4/Firmware_Software/DAVE project/P2G_FW/Dave/Generated/DMA_CH\dma_ch.h ****  * Example Usage:
 247:E:/NOVA/Assets/IFX_P2G-HW-SW_V1.0.4/Firmware_Software/DAVE project/P2G_FW/Dave/Generated/DMA_CH\dma_ch.h ****  *
 248:E:/NOVA/Assets/IFX_P2G-HW-SW_V1.0.4/Firmware_Software/DAVE project/P2G_FW/Dave/Generated/DMA_CH\dma_ch.h ****  * @code
 249:E:/NOVA/Assets/IFX_P2G-HW-SW_V1.0.4/Firmware_Software/DAVE project/P2G_FW/Dave/Generated/DMA_CH\dma_ch.h ****  * #include <XMC4500.h>
 250:E:/NOVA/Assets/IFX_P2G-HW-SW_V1.0.4/Firmware_Software/DAVE project/P2G_FW/Dave/Generated/DMA_CH\dma_ch.h ****  * #include <DAVE.h>
 251:E:/NOVA/Assets/IFX_P2G-HW-SW_V1.0.4/Firmware_Software/DAVE project/P2G_FW/Dave/Generated/DMA_CH\dma_ch.h ****  *
 252:E:/NOVA/Assets/IFX_P2G-HW-SW_V1.0.4/Firmware_Software/DAVE project/P2G_FW/Dave/Generated/DMA_CH\dma_ch.h ****  * //
 253:E:/NOVA/Assets/IFX_P2G-HW-SW_V1.0.4/Firmware_Software/DAVE project/P2G_FW/Dave/Generated/DMA_CH\dma_ch.h ****  * // The configuration structures DMA_CH_0_CONFIG & DMA_CH_0 must look like this:
 254:E:/NOVA/Assets/IFX_P2G-HW-SW_V1.0.4/Firmware_Software/DAVE project/P2G_FW/Dave/Generated/DMA_CH\dma_ch.h ****  * //
 255:E:/NOVA/Assets/IFX_P2G-HW-SW_V1.0.4/Firmware_Software/DAVE project/P2G_FW/Dave/Generated/DMA_CH\dma_ch.h ****  * // DMA_CH_CONFIG_t DMA_CH_0_CONFIG =
 256:E:/NOVA/Assets/IFX_P2G-HW-SW_V1.0.4/Firmware_Software/DAVE project/P2G_FW/Dave/Generated/DMA_CH\dma_ch.h ****  * // {
 257:E:/NOVA/Assets/IFX_P2G-HW-SW_V1.0.4/Firmware_Software/DAVE project/P2G_FW/Dave/Generated/DMA_CH\dma_ch.h ****  * //   {
 258:E:/NOVA/Assets/IFX_P2G-HW-SW_V1.0.4/Firmware_Software/DAVE project/P2G_FW/Dave/Generated/DMA_CH\dma_ch.h ****  * //     {
 259:E:/NOVA/Assets/IFX_P2G-HW-SW_V1.0.4/Firmware_Software/DAVE project/P2G_FW/Dave/Generated/DMA_CH\dma_ch.h ****  * //       .enable_interrupt = true, // Interrupts enabled
 260:E:/NOVA/Assets/IFX_P2G-HW-SW_V1.0.4/Firmware_Software/DAVE project/P2G_FW/Dave/Generated/DMA_CH\dma_ch.h ****  * //       .dst_transfer_width = XMC_DMA_CH_TRANSFER_WIDTH_32, // Destination transfer width
 261:E:/NOVA/Assets/IFX_P2G-HW-SW_V1.0.4/Firmware_Software/DAVE project/P2G_FW/Dave/Generated/DMA_CH\dma_ch.h ****  * //       .src_transfer_width = XMC_DMA_CH_TRANSFER_WIDTH_32, // Source transfer width
 262:E:/NOVA/Assets/IFX_P2G-HW-SW_V1.0.4/Firmware_Software/DAVE project/P2G_FW/Dave/Generated/DMA_CH\dma_ch.h ****  * //       .dst_address_count_mode = XMC_DMA_CH_ADDRESS_COUNT_MODE_INCREMENT, // Destination addre
 263:E:/NOVA/Assets/IFX_P2G-HW-SW_V1.0.4/Firmware_Software/DAVE project/P2G_FW/Dave/Generated/DMA_CH\dma_ch.h ****  * //       .src_address_count_mode = XMC_DMA_CH_ADDRESS_COUNT_MODE_INCREMENT, // Source address co
 264:E:/NOVA/Assets/IFX_P2G-HW-SW_V1.0.4/Firmware_Software/DAVE project/P2G_FW/Dave/Generated/DMA_CH\dma_ch.h ****  * //       .dst_burst_length = XMC_DMA_CH_BURST_LENGTH_1, // Destination burst length
 265:E:/NOVA/Assets/IFX_P2G-HW-SW_V1.0.4/Firmware_Software/DAVE project/P2G_FW/Dave/Generated/DMA_CH\dma_ch.h ****  * //       .src_burst_length = XMC_DMA_CH_BURST_LENGTH_1, // Source burst length
 266:E:/NOVA/Assets/IFX_P2G-HW-SW_V1.0.4/Firmware_Software/DAVE project/P2G_FW/Dave/Generated/DMA_CH\dma_ch.h ****  * //       .enable_src_gather = false, // Source gather enabled?
 267:E:/NOVA/Assets/IFX_P2G-HW-SW_V1.0.4/Firmware_Software/DAVE project/P2G_FW/Dave/Generated/DMA_CH\dma_ch.h ****  * //       .enable_dst_scatter = false, // Destination scatter enabled?
 268:E:/NOVA/Assets/IFX_P2G-HW-SW_V1.0.4/Firmware_Software/DAVE project/P2G_FW/Dave/Generated/DMA_CH\dma_ch.h ****  * //       .transfer_flow = XMC_DMA_CH_TRANSFER_FLOW_M2M_DMA, // Transfer flow
 269:E:/NOVA/Assets/IFX_P2G-HW-SW_V1.0.4/Firmware_Software/DAVE project/P2G_FW/Dave/Generated/DMA_CH\dma_ch.h ****  * //     },
 270:E:/NOVA/Assets/IFX_P2G-HW-SW_V1.0.4/Firmware_Software/DAVE project/P2G_FW/Dave/Generated/DMA_CH\dma_ch.h ****  * //     .block_size = 16U, // Block size
 271:E:/NOVA/Assets/IFX_P2G-HW-SW_V1.0.4/Firmware_Software/DAVE project/P2G_FW/Dave/Generated/DMA_CH\dma_ch.h ****  * //     .transfer_type = XMC_DMA_CH_TRANSFER_TYPE_MULTI_BLOCK_SRCADR_CONTIGUOUS_DSTADR_RELOAD, //
 272:E:/NOVA/Assets/IFX_P2G-HW-SW_V1.0.4/Firmware_Software/DAVE project/P2G_FW/Dave/Generated/DMA_CH\dma_ch.h ****  * //     .priority = XMC_DMA_CH_PRIORITY_0, // Priority level
 273:E:/NOVA/Assets/IFX_P2G-HW-SW_V1.0.4/Firmware_Software/DAVE project/P2G_FW/Dave/Generated/DMA_CH\dma_ch.h ****  * //     .src_handshaking = XMC_DMA_CH_SRC_HANDSHAKING_SOFTWARE, // Source handshaking
 274:E:/NOVA/Assets/IFX_P2G-HW-SW_V1.0.4/Firmware_Software/DAVE project/P2G_FW/Dave/Generated/DMA_CH\dma_ch.h ****  * //     .dst_handshaking = XMC_DMA_CH_DST_HANDSHAKING_SOFTWARE  // Destination handshaking
 275:E:/NOVA/Assets/IFX_P2G-HW-SW_V1.0.4/Firmware_Software/DAVE project/P2G_FW/Dave/Generated/DMA_CH\dma_ch.h ****  * //   },
 276:E:/NOVA/Assets/IFX_P2G-HW-SW_V1.0.4/Firmware_Software/DAVE project/P2G_FW/Dave/Generated/DMA_CH\dma_ch.h ****  * //   user_event_handler,
 277:E:/NOVA/Assets/IFX_P2G-HW-SW_V1.0.4/Firmware_Software/DAVE project/P2G_FW/Dave/Generated/DMA_CH\dma_ch.h ****  * //   XMC_DMA_CH_EVENT_ERROR | XMC_DMA_CH_EVENT_BLOCK_TRANSFER_COMPLETE | XMC_DMA_CH_EVENT_TRANSF
 278:E:/NOVA/Assets/IFX_P2G-HW-SW_V1.0.4/Firmware_Software/DAVE project/P2G_FW/Dave/Generated/DMA_CH\dma_ch.h ****  * // };
 279:E:/NOVA/Assets/IFX_P2G-HW-SW_V1.0.4/Firmware_Software/DAVE project/P2G_FW/Dave/Generated/DMA_CH\dma_ch.h ****  * //
 280:E:/NOVA/Assets/IFX_P2G-HW-SW_V1.0.4/Firmware_Software/DAVE project/P2G_FW/Dave/Generated/DMA_CH\dma_ch.h ****  * // DMA_CH_t DMA_CH_0 =
 281:E:/NOVA/Assets/IFX_P2G-HW-SW_V1.0.4/Firmware_Software/DAVE project/P2G_FW/Dave/Generated/DMA_CH\dma_ch.h ****  * // {
 282:E:/NOVA/Assets/IFX_P2G-HW-SW_V1.0.4/Firmware_Software/DAVE project/P2G_FW/Dave/Generated/DMA_CH\dma_ch.h ****  * //   .dma_global = &GLOBAL_DMA_0, // Which DMA_GLOBAL instance?
 283:E:/NOVA/Assets/IFX_P2G-HW-SW_V1.0.4/Firmware_Software/DAVE project/P2G_FW/Dave/Generated/DMA_CH\dma_ch.h ****  * //   .config = &DMA_CH_0_CONFIG, // Channel configuration
 284:E:/NOVA/Assets/IFX_P2G-HW-SW_V1.0.4/Firmware_Software/DAVE project/P2G_FW/Dave/Generated/DMA_CH\dma_ch.h ****  * //   .ch_num = 0U, // Channel number
 285:E:/NOVA/Assets/IFX_P2G-HW-SW_V1.0.4/Firmware_Software/DAVE project/P2G_FW/Dave/Generated/DMA_CH\dma_ch.h ****  * // };
 286:E:/NOVA/Assets/IFX_P2G-HW-SW_V1.0.4/Firmware_Software/DAVE project/P2G_FW/Dave/Generated/DMA_CH\dma_ch.h ****  *
 287:E:/NOVA/Assets/IFX_P2G-HW-SW_V1.0.4/Firmware_Software/DAVE project/P2G_FW/Dave/Generated/DMA_CH\dma_ch.h ****  * uint32_t tx_buf[256];
 288:E:/NOVA/Assets/IFX_P2G-HW-SW_V1.0.4/Firmware_Software/DAVE project/P2G_FW/Dave/Generated/DMA_CH\dma_ch.h ****  * uint32_t rx_buf[256];
 289:E:/NOVA/Assets/IFX_P2G-HW-SW_V1.0.4/Firmware_Software/DAVE project/P2G_FW/Dave/Generated/DMA_CH\dma_ch.h ****  *
 290:E:/NOVA/Assets/IFX_P2G-HW-SW_V1.0.4/Firmware_Software/DAVE project/P2G_FW/Dave/Generated/DMA_CH\dma_ch.h ****  * volatile uint8_t xfer_cmplt_cb = 0, block_count = 0;
 291:E:/NOVA/Assets/IFX_P2G-HW-SW_V1.0.4/Firmware_Software/DAVE project/P2G_FW/Dave/Generated/DMA_CH\dma_ch.h ****  * volatile uint8_t dma_error_cb = 0;
 292:E:/NOVA/Assets/IFX_P2G-HW-SW_V1.0.4/Firmware_Software/DAVE project/P2G_FW/Dave/Generated/DMA_CH\dma_ch.h ****  * volatile uint8_t xfer_block_cmplt = 0;
 293:E:/NOVA/Assets/IFX_P2G-HW-SW_V1.0.4/Firmware_Software/DAVE project/P2G_FW/Dave/Generated/DMA_CH\dma_ch.h ****  * volatile uint8_t src_xfer_cmplt = 0;
 294:E:/NOVA/Assets/IFX_P2G-HW-SW_V1.0.4/Firmware_Software/DAVE project/P2G_FW/Dave/Generated/DMA_CH\dma_ch.h ****  * volatile uint8_t dest_xfer_cmplt = 0;
 295:E:/NOVA/Assets/IFX_P2G-HW-SW_V1.0.4/Firmware_Software/DAVE project/P2G_FW/Dave/Generated/DMA_CH\dma_ch.h ****  * volatile uint8_t multi_block = 0;
 296:E:/NOVA/Assets/IFX_P2G-HW-SW_V1.0.4/Firmware_Software/DAVE project/P2G_FW/Dave/Generated/DMA_CH\dma_ch.h ****  *
 297:E:/NOVA/Assets/IFX_P2G-HW-SW_V1.0.4/Firmware_Software/DAVE project/P2G_FW/Dave/Generated/DMA_CH\dma_ch.h ****  * void user_event_handler (XMC_DMA_CH_EVENT_t event)
 298:E:/NOVA/Assets/IFX_P2G-HW-SW_V1.0.4/Firmware_Software/DAVE project/P2G_FW/Dave/Generated/DMA_CH\dma_ch.h ****  * {
 299:E:/NOVA/Assets/IFX_P2G-HW-SW_V1.0.4/Firmware_Software/DAVE project/P2G_FW/Dave/Generated/DMA_CH\dma_ch.h ****  *   DMA_CH_t *dma_ch;
 300:E:/NOVA/Assets/IFX_P2G-HW-SW_V1.0.4/Firmware_Software/DAVE project/P2G_FW/Dave/Generated/DMA_CH\dma_ch.h ****  *   dma_ch = &DMA_CH_0;
 301:E:/NOVA/Assets/IFX_P2G-HW-SW_V1.0.4/Firmware_Software/DAVE project/P2G_FW/Dave/Generated/DMA_CH\dma_ch.h ****  *
 302:E:/NOVA/Assets/IFX_P2G-HW-SW_V1.0.4/Firmware_Software/DAVE project/P2G_FW/Dave/Generated/DMA_CH\dma_ch.h ****  *   // Check and update the volatile flags
 303:E:/NOVA/Assets/IFX_P2G-HW-SW_V1.0.4/Firmware_Software/DAVE project/P2G_FW/Dave/Generated/DMA_CH\dma_ch.h ****  *   event = XMC_DMA_CH_GetEventStatus(dma_ch->dma_global->dma, dma_ch->ch_num);
 304:E:/NOVA/Assets/IFX_P2G-HW-SW_V1.0.4/Firmware_Software/DAVE project/P2G_FW/Dave/Generated/DMA_CH\dma_ch.h ****  *   if ((event & XMC_DMA_CH_EVENT_ERROR) != 0)
 305:E:/NOVA/Assets/IFX_P2G-HW-SW_V1.0.4/Firmware_Software/DAVE project/P2G_FW/Dave/Generated/DMA_CH\dma_ch.h ****  *   {
 306:E:/NOVA/Assets/IFX_P2G-HW-SW_V1.0.4/Firmware_Software/DAVE project/P2G_FW/Dave/Generated/DMA_CH\dma_ch.h ****  *     dma_error_cb = 1;
 307:E:/NOVA/Assets/IFX_P2G-HW-SW_V1.0.4/Firmware_Software/DAVE project/P2G_FW/Dave/Generated/DMA_CH\dma_ch.h ****  *   }
 308:E:/NOVA/Assets/IFX_P2G-HW-SW_V1.0.4/Firmware_Software/DAVE project/P2G_FW/Dave/Generated/DMA_CH\dma_ch.h ****  *   else if ((event & XMC_DMA_CH_EVENT_TRANSFER_COMPLETE) != 0)
 309:E:/NOVA/Assets/IFX_P2G-HW-SW_V1.0.4/Firmware_Software/DAVE project/P2G_FW/Dave/Generated/DMA_CH\dma_ch.h ****  *   {
 310:E:/NOVA/Assets/IFX_P2G-HW-SW_V1.0.4/Firmware_Software/DAVE project/P2G_FW/Dave/Generated/DMA_CH\dma_ch.h ****  *     xfer_cmplt_cb = 1;
 311:E:/NOVA/Assets/IFX_P2G-HW-SW_V1.0.4/Firmware_Software/DAVE project/P2G_FW/Dave/Generated/DMA_CH\dma_ch.h ****  *     if (multi_block)
 312:E:/NOVA/Assets/IFX_P2G-HW-SW_V1.0.4/Firmware_Software/DAVE project/P2G_FW/Dave/Generated/DMA_CH\dma_ch.h ****  *     {
 313:E:/NOVA/Assets/IFX_P2G-HW-SW_V1.0.4/Firmware_Software/DAVE project/P2G_FW/Dave/Generated/DMA_CH\dma_ch.h ****  *       block_count++;
 314:E:/NOVA/Assets/IFX_P2G-HW-SW_V1.0.4/Firmware_Software/DAVE project/P2G_FW/Dave/Generated/DMA_CH\dma_ch.h ****  *       DMA_CH_Disable(dma_ch);
 315:E:/NOVA/Assets/IFX_P2G-HW-SW_V1.0.4/Firmware_Software/DAVE project/P2G_FW/Dave/Generated/DMA_CH\dma_ch.h ****  *     }
 316:E:/NOVA/Assets/IFX_P2G-HW-SW_V1.0.4/Firmware_Software/DAVE project/P2G_FW/Dave/Generated/DMA_CH\dma_ch.h ****  *   }
 317:E:/NOVA/Assets/IFX_P2G-HW-SW_V1.0.4/Firmware_Software/DAVE project/P2G_FW/Dave/Generated/DMA_CH\dma_ch.h ****  *   else if ((event & XMC_DMA_CH_EVENT_BLOCK_TRANSFER_COMPLETE) != 0)
 318:E:/NOVA/Assets/IFX_P2G-HW-SW_V1.0.4/Firmware_Software/DAVE project/P2G_FW/Dave/Generated/DMA_CH\dma_ch.h ****  *   {
 319:E:/NOVA/Assets/IFX_P2G-HW-SW_V1.0.4/Firmware_Software/DAVE project/P2G_FW/Dave/Generated/DMA_CH\dma_ch.h ****  *     xfer_block_cmplt = 1;
 320:E:/NOVA/Assets/IFX_P2G-HW-SW_V1.0.4/Firmware_Software/DAVE project/P2G_FW/Dave/Generated/DMA_CH\dma_ch.h ****  *     block_count++;
 321:E:/NOVA/Assets/IFX_P2G-HW-SW_V1.0.4/Firmware_Software/DAVE project/P2G_FW/Dave/Generated/DMA_CH\dma_ch.h ****  *     if (block_count == 3)
 322:E:/NOVA/Assets/IFX_P2G-HW-SW_V1.0.4/Firmware_Software/DAVE project/P2G_FW/Dave/Generated/DMA_CH\dma_ch.h ****  *     {
 323:E:/NOVA/Assets/IFX_P2G-HW-SW_V1.0.4/Firmware_Software/DAVE project/P2G_FW/Dave/Generated/DMA_CH\dma_ch.h ****  *       XMC_DMA_CH_RequestLastMultiblockTransfer(dma_ch->dma_global->dma, dma_ch->ch_num);
 324:E:/NOVA/Assets/IFX_P2G-HW-SW_V1.0.4/Firmware_Software/DAVE project/P2G_FW/Dave/Generated/DMA_CH\dma_ch.h ****  *     }
 325:E:/NOVA/Assets/IFX_P2G-HW-SW_V1.0.4/Firmware_Software/DAVE project/P2G_FW/Dave/Generated/DMA_CH\dma_ch.h ****  *   }
 326:E:/NOVA/Assets/IFX_P2G-HW-SW_V1.0.4/Firmware_Software/DAVE project/P2G_FW/Dave/Generated/DMA_CH\dma_ch.h ****  *   else if ((event & XMC_DMA_CH_EVENT_SRC_TRANSACTION_COMPLETE) != 0)
 327:E:/NOVA/Assets/IFX_P2G-HW-SW_V1.0.4/Firmware_Software/DAVE project/P2G_FW/Dave/Generated/DMA_CH\dma_ch.h ****  *   {
 328:E:/NOVA/Assets/IFX_P2G-HW-SW_V1.0.4/Firmware_Software/DAVE project/P2G_FW/Dave/Generated/DMA_CH\dma_ch.h ****  *     src_xfer_cmplt = 1;
 329:E:/NOVA/Assets/IFX_P2G-HW-SW_V1.0.4/Firmware_Software/DAVE project/P2G_FW/Dave/Generated/DMA_CH\dma_ch.h ****  *   }
 330:E:/NOVA/Assets/IFX_P2G-HW-SW_V1.0.4/Firmware_Software/DAVE project/P2G_FW/Dave/Generated/DMA_CH\dma_ch.h ****  *   else if ((event & XMC_DMA_CH_EVENT_DST_TRANSACTION_COMPLETE) != 0)
 331:E:/NOVA/Assets/IFX_P2G-HW-SW_V1.0.4/Firmware_Software/DAVE project/P2G_FW/Dave/Generated/DMA_CH\dma_ch.h ****  *   {
 332:E:/NOVA/Assets/IFX_P2G-HW-SW_V1.0.4/Firmware_Software/DAVE project/P2G_FW/Dave/Generated/DMA_CH\dma_ch.h ****  *     dest_xfer_cmplt = 1;
 333:E:/NOVA/Assets/IFX_P2G-HW-SW_V1.0.4/Firmware_Software/DAVE project/P2G_FW/Dave/Generated/DMA_CH\dma_ch.h ****  *   }
 334:E:/NOVA/Assets/IFX_P2G-HW-SW_V1.0.4/Firmware_Software/DAVE project/P2G_FW/Dave/Generated/DMA_CH\dma_ch.h ****  * }
 335:E:/NOVA/Assets/IFX_P2G-HW-SW_V1.0.4/Firmware_Software/DAVE project/P2G_FW/Dave/Generated/DMA_CH\dma_ch.h ****  *
 336:E:/NOVA/Assets/IFX_P2G-HW-SW_V1.0.4/Firmware_Software/DAVE project/P2G_FW/Dave/Generated/DMA_CH\dma_ch.h ****  * int main (void)
 337:E:/NOVA/Assets/IFX_P2G-HW-SW_V1.0.4/Firmware_Software/DAVE project/P2G_FW/Dave/Generated/DMA_CH\dma_ch.h ****  * {
 338:E:/NOVA/Assets/IFX_P2G-HW-SW_V1.0.4/Firmware_Software/DAVE project/P2G_FW/Dave/Generated/DMA_CH\dma_ch.h ****  *   DAVE_STATUS_t status;
 339:E:/NOVA/Assets/IFX_P2G-HW-SW_V1.0.4/Firmware_Software/DAVE project/P2G_FW/Dave/Generated/DMA_CH\dma_ch.h ****  *   uint8_t i = 0;
 340:E:/NOVA/Assets/IFX_P2G-HW-SW_V1.0.4/Firmware_Software/DAVE project/P2G_FW/Dave/Generated/DMA_CH\dma_ch.h ****  *
 341:E:/NOVA/Assets/IFX_P2G-HW-SW_V1.0.4/Firmware_Software/DAVE project/P2G_FW/Dave/Generated/DMA_CH\dma_ch.h ****  *   status = DAVE_Init();
 342:E:/NOVA/Assets/IFX_P2G-HW-SW_V1.0.4/Firmware_Software/DAVE project/P2G_FW/Dave/Generated/DMA_CH\dma_ch.h ****  *
 343:E:/NOVA/Assets/IFX_P2G-HW-SW_V1.0.4/Firmware_Software/DAVE project/P2G_FW/Dave/Generated/DMA_CH\dma_ch.h ****  *   for(i = 0; i < 100; i++)
 344:E:/NOVA/Assets/IFX_P2G-HW-SW_V1.0.4/Firmware_Software/DAVE project/P2G_FW/Dave/Generated/DMA_CH\dma_ch.h ****  *   {
 345:E:/NOVA/Assets/IFX_P2G-HW-SW_V1.0.4/Firmware_Software/DAVE project/P2G_FW/Dave/Generated/DMA_CH\dma_ch.h ****  *     tx_buf[i] = i;
 346:E:/NOVA/Assets/IFX_P2G-HW-SW_V1.0.4/Firmware_Software/DAVE project/P2G_FW/Dave/Generated/DMA_CH\dma_ch.h ****  *   }
 347:E:/NOVA/Assets/IFX_P2G-HW-SW_V1.0.4/Firmware_Software/DAVE project/P2G_FW/Dave/Generated/DMA_CH\dma_ch.h ****  *
 348:E:/NOVA/Assets/IFX_P2G-HW-SW_V1.0.4/Firmware_Software/DAVE project/P2G_FW/Dave/Generated/DMA_CH\dma_ch.h ****  *   if (status == DAVE_STATUS_SUCCESS)
 349:E:/NOVA/Assets/IFX_P2G-HW-SW_V1.0.4/Firmware_Software/DAVE project/P2G_FW/Dave/Generated/DMA_CH\dma_ch.h ****  *   {
 350:E:/NOVA/Assets/IFX_P2G-HW-SW_V1.0.4/Firmware_Software/DAVE project/P2G_FW/Dave/Generated/DMA_CH\dma_ch.h ****  *     DMA_CH_Enable(&DMA_CH_0);
 351:E:/NOVA/Assets/IFX_P2G-HW-SW_V1.0.4/Firmware_Software/DAVE project/P2G_FW/Dave/Generated/DMA_CH\dma_ch.h ****  *   }
 352:E:/NOVA/Assets/IFX_P2G-HW-SW_V1.0.4/Firmware_Software/DAVE project/P2G_FW/Dave/Generated/DMA_CH\dma_ch.h ****  *   else
 353:E:/NOVA/Assets/IFX_P2G-HW-SW_V1.0.4/Firmware_Software/DAVE project/P2G_FW/Dave/Generated/DMA_CH\dma_ch.h ****  *   {
 354:E:/NOVA/Assets/IFX_P2G-HW-SW_V1.0.4/Firmware_Software/DAVE project/P2G_FW/Dave/Generated/DMA_CH\dma_ch.h ****  *     while(1U);
 355:E:/NOVA/Assets/IFX_P2G-HW-SW_V1.0.4/Firmware_Software/DAVE project/P2G_FW/Dave/Generated/DMA_CH\dma_ch.h ****  *   }
 356:E:/NOVA/Assets/IFX_P2G-HW-SW_V1.0.4/Firmware_Software/DAVE project/P2G_FW/Dave/Generated/DMA_CH\dma_ch.h ****  *
 357:E:/NOVA/Assets/IFX_P2G-HW-SW_V1.0.4/Firmware_Software/DAVE project/P2G_FW/Dave/Generated/DMA_CH\dma_ch.h ****  *   while (1U);
 358:E:/NOVA/Assets/IFX_P2G-HW-SW_V1.0.4/Firmware_Software/DAVE project/P2G_FW/Dave/Generated/DMA_CH\dma_ch.h ****  *
 359:E:/NOVA/Assets/IFX_P2G-HW-SW_V1.0.4/Firmware_Software/DAVE project/P2G_FW/Dave/Generated/DMA_CH\dma_ch.h ****  *   return 1;
 360:E:/NOVA/Assets/IFX_P2G-HW-SW_V1.0.4/Firmware_Software/DAVE project/P2G_FW/Dave/Generated/DMA_CH\dma_ch.h ****  * }
 361:E:/NOVA/Assets/IFX_P2G-HW-SW_V1.0.4/Firmware_Software/DAVE project/P2G_FW/Dave/Generated/DMA_CH\dma_ch.h ****  * @endcode<BR> </p>
 362:E:/NOVA/Assets/IFX_P2G-HW-SW_V1.0.4/Firmware_Software/DAVE project/P2G_FW/Dave/Generated/DMA_CH\dma_ch.h ****  */
 363:E:/NOVA/Assets/IFX_P2G-HW-SW_V1.0.4/Firmware_Software/DAVE project/P2G_FW/Dave/Generated/DMA_CH\dma_ch.h **** __STATIC_INLINE void DMA_CH_Disable(DMA_CH_t *const obj)
 364:E:/NOVA/Assets/IFX_P2G-HW-SW_V1.0.4/Firmware_Software/DAVE project/P2G_FW/Dave/Generated/DMA_CH\dma_ch.h **** {
 365:E:/NOVA/Assets/IFX_P2G-HW-SW_V1.0.4/Firmware_Software/DAVE project/P2G_FW/Dave/Generated/DMA_CH\dma_ch.h ****   XMC_ASSERT("DMA_CH_Disable: NULL DMA_CH_t object", (obj != NULL));
 366:E:/NOVA/Assets/IFX_P2G-HW-SW_V1.0.4/Firmware_Software/DAVE project/P2G_FW/Dave/Generated/DMA_CH\dma_ch.h **** 
 367:E:/NOVA/Assets/IFX_P2G-HW-SW_V1.0.4/Firmware_Software/DAVE project/P2G_FW/Dave/Generated/DMA_CH\dma_ch.h ****   XMC_DMA_CH_Disable(obj->dma_global->dma, obj->ch_num);
 523              	 .loc 3 367 0
 524 0210 3B68     	 ldr r3,[r7]
 525 0212 397B     	 ldrb r1,[r7,#12]
 526 0214 1868     	 ldr r0,[r3]
 527 0216 FFF7FEFF 	 bl XMC_DMA_CH_Disable
 528              	.LVL65:
 529              	.LBE234:
 530              	.LBE233:
 531              	.LBB235:
 532              	.LBB236:
 533 021a 3368     	 ldr r3,[r6]
 534 021c 317B     	 ldrb r1,[r6,#12]
 535 021e 1868     	 ldr r0,[r3]
 536 0220 FFF7FEFF 	 bl XMC_DMA_CH_Disable
 537              	.LVL66:
 538              	.LBE236:
 539              	.LBE235:
 540              	.LBB237:
 541              	.LBB238:
 542 0224 2B68     	 ldr r3,[r5]
 543 0226 297B     	 ldrb r1,[r5,#12]
 544 0228 1868     	 ldr r0,[r3]
 545 022a FFF7FEFF 	 bl XMC_DMA_CH_Disable
 546              	.LVL67:
 547              	.LBE238:
 548              	.LBE237:
 549              	.LBB239:
 550              	.LBB240:
 551 022e 2368     	 ldr r3,[r4]
 552 0230 217B     	 ldrb r1,[r4,#12]
 553 0232 1868     	 ldr r0,[r3]
 554 0234 FFF7FEFF 	 bl XMC_DMA_CH_Disable
 555              	.LVL68:
 556              	.LBE240:
 557              	.LBE239:
 558              	.LBE232:
 245:../BSP/Position2Go/src/position2go_bsp.c ****   {
 559              	 .loc 1 245 0
 560 0238 214B     	 ldr r3,.L34+44
 561 023a 1B78     	 ldrb r3,[r3]
 562 023c 012B     	 cmp r3,#1
 563 023e 07D0     	 beq .L33
 251:../BSP/Position2Go/src/position2go_bsp.c ****   }
 564              	 .loc 1 251 0
 565 0240 FFF7FEFF 	 bl bgt_start_tx
 566              	.LVL69:
 567              	.L12:
 568              	.LBB241:
 569              	.LBB242:
 500:../BSP/Position2Go/src/position2go_bsp.c **** }
 501:../BSP/Position2Go/src/position2go_bsp.c **** 
 502:../BSP/Position2Go/src/position2go_bsp.c **** //============================================================================
 503:../BSP/Position2Go/src/position2go_bsp.c **** 
 504:../BSP/Position2Go/src/position2go_bsp.c **** void bsp_dma_set_destination_addr_from_acq_buf_obj(acq_buf_obj *acq_buf, uint32_t chirp_cnt)
 505:../BSP/Position2Go/src/position2go_bsp.c **** {
 506:../BSP/Position2Go/src/position2go_bsp.c ****   pDMA_dst_I1 = (uint32_t*) get_buffer_address_by_chirp(acq_buf, 0, chirp_cnt);
 507:../BSP/Position2Go/src/position2go_bsp.c ****   pDMA_dst_Q1 = (uint32_t*) get_buffer_address_by_chirp(acq_buf, 1, chirp_cnt);
 508:../BSP/Position2Go/src/position2go_bsp.c ****   pDMA_dst_I2 = (uint32_t*) get_buffer_address_by_chirp(acq_buf, 2, chirp_cnt);
 509:../BSP/Position2Go/src/position2go_bsp.c ****   pDMA_dst_Q2 = (uint32_t*) get_buffer_address_by_chirp(acq_buf, 3, chirp_cnt);
 510:../BSP/Position2Go/src/position2go_bsp.c ****   
 511:../BSP/Position2Go/src/position2go_bsp.c ****   XMC_DMA_CH_SetDestinationAddress(DMA_CH_I1.dma_global->dma, DMA_CH_I1.ch_num, (uint32_t) pDMA_dst
 512:../BSP/Position2Go/src/position2go_bsp.c ****   XMC_DMA_CH_SetDestinationAddress(DMA_CH_Q1.dma_global->dma, DMA_CH_Q1.ch_num, (uint32_t) pDMA_dst
 513:../BSP/Position2Go/src/position2go_bsp.c ****   XMC_DMA_CH_SetDestinationAddress(DMA_CH_I2.dma_global->dma, DMA_CH_I2.ch_num, (uint32_t) pDMA_dst
 514:../BSP/Position2Go/src/position2go_bsp.c ****   XMC_DMA_CH_SetDestinationAddress(DMA_CH_Q2.dma_global->dma, DMA_CH_Q2.ch_num, (uint32_t) pDMA_dst
 515:../BSP/Position2Go/src/position2go_bsp.c **** }
 516:../BSP/Position2Go/src/position2go_bsp.c **** 
 517:../BSP/Position2Go/src/position2go_bsp.c **** //============================================================================
 518:../BSP/Position2Go/src/position2go_bsp.c **** 
 519:../BSP/Position2Go/src/position2go_bsp.c **** uint8_t bsp_usb_init(uint32_t timeout_delay)
 520:../BSP/Position2Go/src/position2go_bsp.c **** {
 521:../BSP/Position2Go/src/position2go_bsp.c ****   uint32_t time_out_cnt = 0;
 522:../BSP/Position2Go/src/position2go_bsp.c ****   
 523:../BSP/Position2Go/src/position2go_bsp.c ****   if (USBD_VCOM_Connect() != USBD_VCOM_STATUS_SUCCESS)
 524:../BSP/Position2Go/src/position2go_bsp.c ****   {
 525:../BSP/Position2Go/src/position2go_bsp.c ****     return (1); /* Fail */
 526:../BSP/Position2Go/src/position2go_bsp.c ****   }
 527:../BSP/Position2Go/src/position2go_bsp.c ****   
 528:../BSP/Position2Go/src/position2go_bsp.c ****   while (time_out_cnt < timeout_delay)
 529:../BSP/Position2Go/src/position2go_bsp.c ****   {
 530:../BSP/Position2Go/src/position2go_bsp.c ****     if (USBD_VCOM_IsEnumDone())
 531:../BSP/Position2Go/src/position2go_bsp.c ****     {
 532:../BSP/Position2Go/src/position2go_bsp.c ****       return (0); /* Success */
 533:../BSP/Position2Go/src/position2go_bsp.c ****     }
 534:../BSP/Position2Go/src/position2go_bsp.c ****     
 535:../BSP/Position2Go/src/position2go_bsp.c ****     time_out_cnt++;
 536:../BSP/Position2Go/src/position2go_bsp.c ****   }
 537:../BSP/Position2Go/src/position2go_bsp.c ****   
 538:../BSP/Position2Go/src/position2go_bsp.c ****   return (1); /* Fail */
 539:../BSP/Position2Go/src/position2go_bsp.c **** }
 540:../BSP/Position2Go/src/position2go_bsp.c **** 
 541:../BSP/Position2Go/src/position2go_bsp.c **** //============================================================================
 542:../BSP/Position2Go/src/position2go_bsp.c **** 
 543:../BSP/Position2Go/src/position2go_bsp.c **** uint8_t bsp_get_number_of_available_radar_devices(void)
 544:../BSP/Position2Go/src/position2go_bsp.c **** {
 545:../BSP/Position2Go/src/position2go_bsp.c ****   /* The number of available radar devices is defined in the BSP layer */
 546:../BSP/Position2Go/src/position2go_bsp.c ****   return (BSP_NUM_OF_AVAILABLE_RADAR_DEVICES);
 547:../BSP/Position2Go/src/position2go_bsp.c **** }
 548:../BSP/Position2Go/src/position2go_bsp.c **** 
 549:../BSP/Position2Go/src/position2go_bsp.c **** //============================================================================
 550:../BSP/Position2Go/src/position2go_bsp.c **** 
 551:../BSP/Position2Go/src/position2go_bsp.c **** float32_t bsp_bgt_get_temp_value(void)
 552:../BSP/Position2Go/src/position2go_bsp.c **** {
 553:../BSP/Position2Go/src/position2go_bsp.c ****   return (bsp_bgt_temperature_C);
 554:../BSP/Position2Go/src/position2go_bsp.c **** }
 555:../BSP/Position2Go/src/position2go_bsp.c **** 
 556:../BSP/Position2Go/src/position2go_bsp.c **** //============================================================================
 557:../BSP/Position2Go/src/position2go_bsp.c **** 
 558:../BSP/Position2Go/src/position2go_bsp.c **** float32_t bsp_bgt_get_txpower_value(void)
 559:../BSP/Position2Go/src/position2go_bsp.c **** {
 560:../BSP/Position2Go/src/position2go_bsp.c ****   return (bsp_bgt_vout_tx_power_dBm);
 561:../BSP/Position2Go/src/position2go_bsp.c **** }
 562:../BSP/Position2Go/src/position2go_bsp.c **** 
 563:../BSP/Position2Go/src/position2go_bsp.c **** //============================================================================
 564:../BSP/Position2Go/src/position2go_bsp.c **** 
 565:../BSP/Position2Go/src/position2go_bsp.c **** void bsp_set_num_samples_per_dma_transfer(uint32_t num_samples_per_dma_transfer)
 566:../BSP/Position2Go/src/position2go_bsp.c **** {
 567:../BSP/Position2Go/src/position2go_bsp.c ****   bsp_num_samples_per_dma_transfer = num_samples_per_dma_transfer;
 568:../BSP/Position2Go/src/position2go_bsp.c **** }
 569:../BSP/Position2Go/src/position2go_bsp.c **** 
 570:../BSP/Position2Go/src/position2go_bsp.c **** //============================================================================
 571:../BSP/Position2Go/src/position2go_bsp.c **** 
 572:../BSP/Position2Go/src/position2go_bsp.c **** void bsp_set_num_chirps_per_frame(uint32_t num_chirps_per_frame)
 573:../BSP/Position2Go/src/position2go_bsp.c **** {
 574:../BSP/Position2Go/src/position2go_bsp.c ****   pll_set_num_chirps_per_frame(num_chirps_per_frame);
 575:../BSP/Position2Go/src/position2go_bsp.c **** }
 576:../BSP/Position2Go/src/position2go_bsp.c **** 
 577:../BSP/Position2Go/src/position2go_bsp.c **** //============================================================================
 578:../BSP/Position2Go/src/position2go_bsp.c **** 
 579:../BSP/Position2Go/src/position2go_bsp.c **** uint16_t bsp_get_frame_counter(void)
 580:../BSP/Position2Go/src/position2go_bsp.c **** {
 581:../BSP/Position2Go/src/position2go_bsp.c ****   return (bsp_frame_counter);
 582:../BSP/Position2Go/src/position2go_bsp.c **** }
 583:../BSP/Position2Go/src/position2go_bsp.c **** 
 584:../BSP/Position2Go/src/position2go_bsp.c **** //============================================================================
 585:../BSP/Position2Go/src/position2go_bsp.c **** 
 586:../BSP/Position2Go/src/position2go_bsp.c **** void bsp_reset_frame_counter(void)
 587:../BSP/Position2Go/src/position2go_bsp.c **** {
 588:../BSP/Position2Go/src/position2go_bsp.c ****   bsp_frame_counter = 0;
 570              	 .loc 1 588 0
 571 0244 1F4B     	 ldr r3,.L34+48
 572 0246 0022     	 movs r2,#0
 573              	.LBE242:
 574              	.LBE241:
 258:../BSP/Position2Go/src/position2go_bsp.c **** 
 575              	 .loc 1 258 0
 576 0248 4846     	 mov r0,r9
 577              	.LBB244:
 578              	.LBB243:
 579              	 .loc 1 588 0
